###############################################################################
#                                                                             #
# IAR C/C++ Compiler V8.10.3.10338/W32 for 8051         25/Aug/2018  23:10:05 #
# Copyright 2004-2011 IAR Systems AB.                                         #
#                                                                             #
#    Core               =  plain                                              #
#    Code model         =  banked                                             #
#    Data model         =  large                                              #
#    Calling convention =  xdata reentrant                                    #
#    Constant location  =  data_rom                                           #
#    Dptr setup         =  1,16                                               #
#    Source file        =  F:\work\iot-hardware\logger\logger\Components\stac #
#                          k\af\AF.c                                          #
#    Command line       =  -f F:\work\iot-hardware\logger\logger\Projects\zst #
#                          ack\Samples\GenericApp\CC2530DB\..\..\..\Tools\CC2 #
#                          530DB\f8wEndev.cfg (-DCPU32MHZ -DROOT=__near_func  #
#                          -DMAC_CFG_TX_DATA_MAX=3 -DMAC_CFG_TX_MAX=6         #
#                          -DMAC_CFG_RX_MAX=3) -f F:\work\iot-hardware\logger #
#                          \logger\Projects\zstack\Samples\GenericApp\CC2530D #
#                          B\..\..\..\Tools\CC2530DB\f8wConfig.cfg            #
#                          (-DZIGBEEPRO -DSECURE=0 -DZG_SECURE_DYNAMIC=0      #
#                          -DREFLECTOR -DDEFAULT_CHANLIST=0x00000800          #
#                          -DZDAPP_CONFIG_PAN_ID=0xFFFF                       #
#                          -DNWK_START_DELAY=100 -DEXTENDED_JOINING_RANDOM_MA #
#                          SK=0x007F -DBEACON_REQUEST_DELAY=100               #
#                          -DBEACON_REQ_DELAY_MASK=0x00FF                     #
#                          -DLINK_STATUS_JITTER_MASK=0x007F                   #
#                          -DROUTE_EXPIRY_TIME=30 -DAPSC_ACK_WAIT_DURATION_PO #
#                          LLED=3000 -DNWK_INDIRECT_MSG_TIMEOUT=7             #
#                          -DMAX_RREQ_ENTRIES=8 -DAPSC_MAX_FRAME_RETRIES=3    #
#                          -DNWK_MAX_DATA_RETRIES=2                           #
#                          -DMAX_POLL_FAILURE_RETRIES=2 -DMAX_BCAST=9         #
#                          -DAPS_MAX_GROUPS=16 -DMAX_RTG_ENTRIES=40           #
#                          -DNWK_MAX_BINDING_ENTRIES=4                        #
#                          -DMAX_BINDING_CLUSTER_IDS=4 "-DDEFAULT_KEY={0x01,  #
#                          0x03, 0x05, 0x07, 0x09, 0x0B, 0x0D, 0x0F, 0x00,    #
#                          0x02, 0x04, 0x06, 0x08, 0x0A, 0x0C, 0x0D}"         #
#                          -DMAC_MAX_FRAME_SIZE=116                           #
#                          -DZDNWKMGR_MIN_TRANSMISSIONS=20 "-DCONST=const     #
#                          __code" -DGENERIC=__generic                        #
#                          -DRFD_RCVC_ALWAYS_ON=FALSE -DPOLL_RATE=1000        #
#                          -DQUEUED_POLL_RATE=100 -DRESPONSE_POLL_RATE=100)   #
#                          -DREJOIN_POLL_RATE=440 F:\work\iot-hardware\logger #
#                          \logger\Components\stack\af\AF.c -D NWK_AUTO_POLL  #
#                          -D ZTOOL_P1 -D MT_TASK -D MT_SYS_FUNC -D           #
#                          MT_ZDO_FUNC -D LCD_SUPPORTED=DEBUG -D              #
#                          xPOWER_SAVING -lC F:\work\iot-hardware\logger\logg #
#                          er\Projects\zstack\Samples\GenericApp\CC2530DB\End #
#                          DeviceEB\List\ -lA F:\work\iot-hardware\logger\log #
#                          ger\Projects\zstack\Samples\GenericApp\CC2530DB\En #
#                          dDeviceEB\List\ --diag_suppress Pe001,Pa010 -o     #
#                          F:\work\iot-hardware\logger\logger\Projects\zstack #
#                          \Samples\GenericApp\CC2530DB\EndDeviceEB\Obj\ -e   #
#                          --no_cse --no_unroll --no_inline --no_code_motion  #
#                          --no_tbaa --debug --core=plain --dptr=16,1         #
#                          --data_model=large --code_model=banked             #
#                          --calling_convention=xdata_reentrant               #
#                          --place_constants=data_rom --nr_virtual_regs 16    #
#                          -I F:\work\iot-hardware\logger\logger\Projects\zst #
#                          ack\Samples\GenericApp\CC2530DB\ -I                #
#                          F:\work\iot-hardware\logger\logger\Projects\zstack #
#                          \Samples\GenericApp\CC2530DB\..\Source\ -I         #
#                          F:\work\iot-hardware\logger\logger\Projects\zstack #
#                          \Samples\GenericApp\CC2530DB\..\..\..\ZMain\TI2530 #
#                          DB\ -I F:\work\iot-hardware\logger\logger\Projects #
#                          \zstack\Samples\GenericApp\CC2530DB\..\..\..\..\.. #
#                          \Components\hal\include\ -I                        #
#                          F:\work\iot-hardware\logger\logger\Projects\zstack #
#                          \Samples\GenericApp\CC2530DB\..\..\..\..\..\Compon #
#                          ents\hal\target\CC2530EB\ -I                       #
#                          F:\work\iot-hardware\logger\logger\Projects\zstack #
#                          \Samples\GenericApp\CC2530DB\..\..\..\..\..\Compon #
#                          ents\mac\include\ -I F:\work\iot-hardware\logger\l #
#                          ogger\Projects\zstack\Samples\GenericApp\CC2530DB\ #
#                          ..\..\..\..\..\Components\mac\high_level\ -I       #
#                          F:\work\iot-hardware\logger\logger\Projects\zstack #
#                          \Samples\GenericApp\CC2530DB\..\..\..\..\..\Compon #
#                          ents\mac\low_level\srf04\ -I                       #
#                          F:\work\iot-hardware\logger\logger\Projects\zstack #
#                          \Samples\GenericApp\CC2530DB\..\..\..\..\..\Compon #
#                          ents\mac\low_level\srf04\single_chip\ -I           #
#                          F:\work\iot-hardware\logger\logger\Projects\zstack #
#                          \Samples\GenericApp\CC2530DB\..\..\..\..\..\Compon #
#                          ents\mt\ -I F:\work\iot-hardware\logger\logger\Pro #
#                          jects\zstack\Samples\GenericApp\CC2530DB\..\..\..\ #
#                          ..\..\Components\osal\include\ -I                  #
#                          F:\work\iot-hardware\logger\logger\Projects\zstack #
#                          \Samples\GenericApp\CC2530DB\..\..\..\..\..\Compon #
#                          ents\services\saddr\ -I F:\work\iot-hardware\logge #
#                          r\logger\Projects\zstack\Samples\GenericApp\CC2530 #
#                          DB\..\..\..\..\..\Components\services\sdata\ -I    #
#                          F:\work\iot-hardware\logger\logger\Projects\zstack #
#                          \Samples\GenericApp\CC2530DB\..\..\..\..\..\Compon #
#                          ents\stack\af\ -I F:\work\iot-hardware\logger\logg #
#                          er\Projects\zstack\Samples\GenericApp\CC2530DB\..\ #
#                          ..\..\..\..\Components\stack\nwk\ -I               #
#                          F:\work\iot-hardware\logger\logger\Projects\zstack #
#                          \Samples\GenericApp\CC2530DB\..\..\..\..\..\Compon #
#                          ents\stack\sapi\ -I F:\work\iot-hardware\logger\lo #
#                          gger\Projects\zstack\Samples\GenericApp\CC2530DB\. #
#                          .\..\..\..\..\Components\stack\sec\ -I             #
#                          F:\work\iot-hardware\logger\logger\Projects\zstack #
#                          \Samples\GenericApp\CC2530DB\..\..\..\..\..\Compon #
#                          ents\stack\sys\ -I F:\work\iot-hardware\logger\log #
#                          ger\Projects\zstack\Samples\GenericApp\CC2530DB\.. #
#                          \..\..\..\..\Components\stack\zdo\ -I              #
#                          F:\work\iot-hardware\logger\logger\Projects\zstack #
#                          \Samples\GenericApp\CC2530DB\..\..\..\..\..\Compon #
#                          ents\zmac\ -I F:\work\iot-hardware\logger\logger\P #
#                          rojects\zstack\Samples\GenericApp\CC2530DB\..\..\. #
#                          .\..\..\Components\zmac\f8w\ -Ol                   #
#                          --require_prototypes                               #
#    List file          =  F:\work\iot-hardware\logger\logger\Projects\zstack #
#                          \Samples\GenericApp\CC2530DB\EndDeviceEB\List\AF.l #
#                          st                                                 #
#    Object file        =  F:\work\iot-hardware\logger\logger\Projects\zstack #
#                          \Samples\GenericApp\CC2530DB\EndDeviceEB\Obj\AF.r5 #
#                          1                                                  #
#                                                                             #
#                                                                             #
###############################################################################

F:\work\iot-hardware\logger\logger\Components\stack\af\AF.c
      1          /**************************************************************************************************
      2            Filename:       AF.c
      3            Revised:        $Date: 2011-11-18 16:03:29 -0800 (Fri, 18 Nov 2011) $
      4            Revision:       $Revision: 28423 $
      5          
      6            Description:    Application Framework - Device Description helper functions
      7          
      8          
      9            Copyright 2004-2011 Texas Instruments Incorporated. All rights reserved.
     10          
     11            IMPORTANT: Your use of this Software is limited to those specific rights
     12            granted under the terms of a software license agreement between the user
     13            who downloaded the software, his/her employer (which must be your employer)
     14            and Texas Instruments Incorporated (the "License").  You may not use this
     15            Software unless you agree to abide by the terms of the License. The License
     16            limits your use, and you acknowledge, that the Software may not be modified,
     17            copied or distributed unless embedded on a Texas Instruments microcontroller
     18            or used solely and exclusively in conjunction with a Texas Instruments radio
     19            frequency transceiver, which is integrated into your product.  Other than for
     20            the foregoing purpose, you may not use, reproduce, copy, prepare derivative
     21            works of, modify, distribute, perform, display or sell this Software and/or
     22            its documentation for any purpose.
     23          
     24            YOU FURTHER ACKNOWLEDGE AND AGREE THAT THE SOFTWARE AND DOCUMENTATION ARE
     25            PROVIDED “AS IS” WITHOUT WARRANTY OF ANY KIND, EITHER EXPRESS OR IMPLIED,
     26            INCLUDING WITHOUT LIMITATION, ANY WARRANTY OF MERCHANTABILITY, TITLE,
     27            NON-INFRINGEMENT AND FITNESS FOR A PARTICULAR PURPOSE. IN NO EVENT SHALL
     28            TEXAS INSTRUMENTS OR ITS LICENSORS BE LIABLE OR OBLIGATED UNDER CONTRACT,
     29            NEGLIGENCE, STRICT LIABILITY, CONTRIBUTION, BREACH OF WARRANTY, OR OTHER
     30            LEGAL EQUITABLE THEORY ANY DIRECT OR INDIRECT DAMAGES OR EXPENSES
     31            INCLUDING BUT NOT LIMITED TO ANY INCIDENTAL, SPECIAL, INDIRECT, PUNITIVE
     32            OR CONSEQUENTIAL DAMAGES, LOST PROFITS OR LOST DATA, COST OF PROCUREMENT
     33            OF SUBSTITUTE GOODS, TECHNOLOGY, SERVICES, OR ANY CLAIMS BY THIRD PARTIES
     34            (INCLUDING BUT NOT LIMITED TO ANY DEFENSE THEREOF), OR OTHER SIMILAR COSTS.
     35          
     36            Should you have any questions regarding your right to use this Software,
     37            contact Texas Instruments Incorporated at www.TI.com.
     38          **************************************************************************************************/
     39          
     40          /*********************************************************************
     41           * INCLUDES
     42           */
     43          
     44          #include "OSAL.h"
     45          #include "AF.h"
     46          #include "nwk_globals.h"
     47          #include "nwk_util.h"
     48          #include "aps_groups.h"
     49          #include "ZDProfile.h"
     50          #include "aps_frag.h"
     51          #include "rtg.h"
     52          
     53          #if defined ( MT_AF_CB_FUNC )
     54            #include "MT_AF.h"
     55          #endif
     56          
     57          #if defined ( INTER_PAN )
     58            #include "stub_aps.h"
     59          #endif
     60          
     61          /*********************************************************************
     62           * MACROS
     63           */
     64          
     65          /*********************************************************************
     66           * @fn      afSend
     67           *
     68           * @brief   Helper macro for V1 API to invoke V2 API.
     69           *
     70           * input parameters
     71           *
     72           * @param  *dstAddr - Full ZB destination address: Nwk Addr + End Point.
     73           * @param   srcEP - Origination (i.e. respond to or ack to) End Point.
     74           * @param   cID - A valid cluster ID as specified by the Profile.
     75           * @param   len - Number of bytes of data pointed to by next param.
     76           * @param  *buf - A pointer to the data bytes to send.
     77           * @param   options - Valid bit mask of AF Tx Options as defined in AF.h.
     78           * @param  *transID - A pointer to a byte which can be modified and which will
     79           *                    be used as the transaction sequence number of the msg.
     80           *
     81           * output parameters
     82           *
     83           * @param  *transID - Incremented by one if the return value is success.
     84           *
     85           * @return  afStatus_t - See previous definition of afStatus_... types.
     86           */
     87          #define afSend( dstAddr, srcEP, cID, len, buf, transID, options, radius ) \
     88                  AF_DataRequest( (dstAddr), afFindEndPointDesc( (srcEP) ), \
     89                                    (cID), (len), (buf), (transID), (options), (radius) )
     90          
     91          /*********************************************************************
     92           * GLOBAL VARIABLES
     93           */
     94          

   \                                 In  segment XDATA_Z, align 1, keep-with-next
     95          epList_t *epList;
   \                     epList:
   \   000000                DS 2
   \   000002                REQUIRE __INIT_XDATA_Z
     96          
     97          /*********************************************************************
     98           * LOCAL FUNCTIONS
     99           */
    100          
    101          static void afBuildMSGIncoming( aps_FrameFormat_t *aff, endPointDesc_t *epDesc,
    102                          zAddrType_t *SrcAddress, uint16 SrcPanId, NLDE_Signal_t *sig,
    103                          uint8 nwkSeqNum, uint8 SecurityUse, uint32 timestamp );
    104          
    105          static epList_t *afFindEndPointDescList( uint8 EndPoint );
    106          
    107          static pDescCB afGetDescCB( endPointDesc_t *epDesc );
    108          
    109          /*********************************************************************
    110           * PUBLIC FUNCTIONS
    111           */
    112          
    113          /*********************************************************************
    114           * @fn      afInit
    115           *
    116           * @brief   Initialization function for the AF.
    117           *
    118           * @param   none
    119           *
    120           * @return  none
    121          void afInit( void )
    122          {
    123          }
    124           */
    125          
    126          /*********************************************************************
    127           * @fn      afRegisterExtended
    128           *
    129           * @brief   Register an Application's EndPoint description.
    130           *
    131           * @param   epDesc - pointer to the Application's endpoint descriptor.
    132           * @param   descFn - pointer to descriptor callback function
    133           *
    134           * NOTE:  The memory that epDesc is pointing to must exist after this call.
    135           *
    136           * @return  Pointer to epList_t on success, NULL otherwise.
    137           */

   \                                 In  segment BANKED_CODE, align 1, keep-with-next
    138          epList_t *afRegisterExtended( endPointDesc_t *epDesc, pDescCB descFn )
   \                     afRegisterExtended:
    139          {
   \   000000   74F4         MOV     A,#-0xc
   \   000002   12....       LCALL   ?BANKED_ENTER_XDATA
   \   000005                ; Saved register size: 12
   \   000005                ; Auto size: 0
   \   000005   EA           MOV     A,R2
   \   000006   FE           MOV     R6,A
   \   000007   EB           MOV     A,R3
   \   000008   FF           MOV     R7,A
   \   000009   8C..         MOV     ?V0 + 0,R4
   \   00000B   8D..         MOV     ?V0 + 1,R5
    140            epList_t *ep = osal_mem_alloc(sizeof(epList_t));
   \   00000D                ; Setup parameters for call to function osal_mem_alloc
   \   00000D   7A09         MOV     R2,#0x9
   \   00000F   7B00         MOV     R3,#0x0
   \   000011   12....       LCALL   ??osal_mem_alloc?relay
   \   000014   8A..         MOV     ?V0 + 2,R2
   \   000016   8B..         MOV     ?V0 + 3,R3
   \   000018   AA..         MOV     R2,?V0 + 2
   \   00001A   AB..         MOV     R3,?V0 + 3
    141          
    142            if (ep != NULL)
   \   00001C   EA           MOV     A,R2
   \   00001D   4B           ORL     A,R3
   \   00001E   605D         JZ      ??afRegisterExtended_0
    143            {
    144              ep->nextDesc = epList;
   \   000020   90....       MOV     DPTR,#epList
   \   000023   E0           MOVX    A,@DPTR
   \   000024   F8           MOV     R0,A
   \   000025   A3           INC     DPTR
   \   000026   E0           MOVX    A,@DPTR
   \   000027   F9           MOV     R1,A
   \   000028   8A82         MOV     DPL,R2
   \   00002A   8B83         MOV     DPH,R3
   \   00002C   E8           MOV     A,R0
   \   00002D   F0           MOVX    @DPTR,A
   \   00002E   A3           INC     DPTR
   \   00002F   E9           MOV     A,R1
   \   000030   F0           MOVX    @DPTR,A
    145              epList = ep;
   \   000031   90....       MOV     DPTR,#epList
   \   000034   EA           MOV     A,R2
   \   000035   F0           MOVX    @DPTR,A
   \   000036   A3           INC     DPTR
   \   000037   EB           MOV     A,R3
   \   000038   F0           MOVX    @DPTR,A
    146              ep->epDesc = epDesc;
   \   000039   8A82         MOV     DPL,R2
   \   00003B   8B83         MOV     DPH,R3
   \   00003D   A3           INC     DPTR
   \   00003E   A3           INC     DPTR
   \   00003F   EE           MOV     A,R6
   \   000040   F0           MOVX    @DPTR,A
   \   000041   A3           INC     DPTR
   \   000042   EF           MOV     A,R7
   \   000043   F0           MOVX    @DPTR,A
    147              ep->pfnDescCB = descFn;
   \   000044   8A82         MOV     DPL,R2
   \   000046   8B83         MOV     DPH,R3
   \   000048   A3           INC     DPTR
   \   000049   A3           INC     DPTR
   \   00004A   A3           INC     DPTR
   \   00004B   A3           INC     DPTR
   \   00004C   E5..         MOV     A,?V0 + 0
   \   00004E   F0           MOVX    @DPTR,A
   \   00004F   A3           INC     DPTR
   \   000050   E5..         MOV     A,?V0 + 1
   \   000052   F0           MOVX    @DPTR,A
    148              ep->apsfCfg.frameDelay = APSF_DEFAULT_INTERFRAME_DELAY;
   \   000053   8A82         MOV     DPL,R2
   \   000055   8B83         MOV     DPH,R3
   \   000057   A3           INC     DPTR
   \   000058   A3           INC     DPTR
   \   000059   A3           INC     DPTR
   \   00005A   A3           INC     DPTR
   \   00005B   A3           INC     DPTR
   \   00005C   A3           INC     DPTR
   \   00005D   7432         MOV     A,#0x32
   \   00005F   F0           MOVX    @DPTR,A
    149              ep->apsfCfg.windowSize = APSF_DEFAULT_WINDOW_SIZE;
   \   000060   8A82         MOV     DPL,R2
   \   000062   8B83         MOV     DPH,R3
   \   000064   A3           INC     DPTR
   \   000065   A3           INC     DPTR
   \   000066   A3           INC     DPTR
   \   000067   A3           INC     DPTR
   \   000068   A3           INC     DPTR
   \   000069   A3           INC     DPTR
   \   00006A   A3           INC     DPTR
   \   00006B   7401         MOV     A,#0x1
   \   00006D   F0           MOVX    @DPTR,A
    150              ep->flags = eEP_AllowMatch;  // Default to allow Match Descriptor.
   \   00006E   8A82         MOV     DPL,R2
   \   000070   8B83         MOV     DPH,R3
   \   000072   A3           INC     DPTR
   \   000073   A3           INC     DPTR
   \   000074   A3           INC     DPTR
   \   000075   A3           INC     DPTR
   \   000076   A3           INC     DPTR
   \   000077   A3           INC     DPTR
   \   000078   A3           INC     DPTR
   \   000079   A3           INC     DPTR
   \   00007A   7401         MOV     A,#0x1
   \   00007C   F0           MOVX    @DPTR,A
    151            }
    152          
    153            return ep;
   \                     ??afRegisterExtended_0:
   \   00007D   7F04         MOV     R7,#0x4
   \   00007F   02....       LJMP    ?BANKED_LEAVE_XDATA
    154          }
    155          
    156          /*********************************************************************
    157           * @fn      afRegister
    158           *
    159           * @brief   Register an Application's EndPoint description.
    160           *
    161           * @param   epDesc - pointer to the Application's endpoint descriptor.
    162           *
    163           * NOTE:  The memory that epDesc is pointing to must exist after this call.
    164           *
    165           * @return  afStatus_SUCCESS - Registered
    166           *          afStatus_MEM_FAIL - not enough memory to add descriptor
    167           *          afStatus_INVALID_PARAMETER - duplicate endpoint
    168           */

   \                                 In  segment BANKED_CODE, align 1, keep-with-next
    169          afStatus_t afRegister( endPointDesc_t *epDesc )
   \                     afRegister:
    170          {
   \   000000   74F6         MOV     A,#-0xa
   \   000002   12....       LCALL   ?BANKED_ENTER_XDATA
   \   000005                ; Saved register size: 10
   \   000005                ; Auto size: 0
   \   000005   EA           MOV     A,R2
   \   000006   FE           MOV     R6,A
   \   000007   EB           MOV     A,R3
   \   000008   FF           MOV     R7,A
    171            if (afFindEndPointDescList(epDesc->endPoint))  // Look for duplicate endpoint.
   \   000009                ; Setup parameters for call to function afFindEndPointDescList
   \   000009   8E82         MOV     DPL,R6
   \   00000B   8F83         MOV     DPH,R7
   \   00000D   E0           MOVX    A,@DPTR
   \   00000E   F9           MOV     R1,A
   \   00000F   12....       LCALL   ??afFindEndPointDescList?relay
   \   000012   8A..         MOV     ?V0 + 0,R2
   \   000014   8B..         MOV     ?V0 + 1,R3
   \   000016   E5..         MOV     A,?V0 + 0
   \   000018   45..         ORL     A,?V0 + 1
   \   00001A   6004         JZ      ??afRegister_0
    172            {
    173              return afStatus_INVALID_PARAMETER;
   \   00001C   7902         MOV     R1,#0x2
   \   00001E   801B         SJMP    ??afRegister_1
    174            }
    175          
    176            return ((NULL == afRegisterExtended(epDesc, NULL)) ? afStatus_MEM_FAIL : afStatus_SUCCESS);
   \                     ??afRegister_0:
   \   000020                ; Setup parameters for call to function afRegisterExtended
   \   000020   7C00         MOV     R4,#0x0
   \   000022   7D00         MOV     R5,#0x0
   \   000024   EE           MOV     A,R6
   \   000025   FA           MOV     R2,A
   \   000026   EF           MOV     A,R7
   \   000027   FB           MOV     R3,A
   \   000028   12....       LCALL   ??afRegisterExtended?relay
   \   00002B   8A..         MOV     ?V0 + 0,R2
   \   00002D   8B..         MOV     ?V0 + 1,R3
   \   00002F   E5..         MOV     A,?V0 + 0
   \   000031   45..         ORL     A,?V0 + 1
   \   000033   7004         JNZ     ??afRegister_2
   \   000035   7910         MOV     R1,#0x10
   \   000037   8002         SJMP    ??afRegister_1
   \                     ??afRegister_2:
   \   000039   7900         MOV     R1,#0x0
   \                     ??afRegister_1:
   \   00003B   7F02         MOV     R7,#0x2
   \   00003D   02....       LJMP    ?BANKED_LEAVE_XDATA
    177          }
    178          
    179          /*********************************************************************
    180           * @fn      afDelete
    181           *
    182           * @brief   Delete an Application's EndPoint descriptor and frees the memory
    183           *
    184           * @param   EndPoint - Application Endpoint to delete
    185           *
    186           * @return  afStatus_SUCCESS - endpoint deleted
    187           *          afStatus_INVALID_PARAMETER - endpoint not found
    188           *          afStatus_FAILED - endpoint list empty
    189           */

   \                                 In  segment BANKED_CODE, align 1, keep-with-next
    190          afStatus_t afDelete( uint8 EndPoint )
   \                     afDelete:
    191          {
   \   000000   74F7         MOV     A,#-0x9
   \   000002   12....       LCALL   ?BANKED_ENTER_XDATA
   \   000005                ; Saved register size: 9
   \   000005                ; Auto size: 0
   \   000005   E9           MOV     A,R1
   \   000006   FE           MOV     R6,A
    192            epList_t *epCurrent;
    193            epList_t *epPrevious;
    194          
    195            if (epList != NULL)
   \   000007   90....       MOV     DPTR,#epList
   \   00000A   E0           MOVX    A,@DPTR
   \   00000B   F8           MOV     R0,A
   \   00000C   A3           INC     DPTR
   \   00000D   E0           MOVX    A,@DPTR
   \   00000E   F9           MOV     R1,A
   \   00000F   E8           MOV     A,R0
   \   000010   49           ORL     A,R1
   \   000011   6078         JZ      ??afDelete_0
    196            {
    197              epPrevious = epCurrent = epList;
   \   000013   90....       MOV     DPTR,#epList
   \   000016   E0           MOVX    A,@DPTR
   \   000017   F8           MOV     R0,A
   \   000018   A3           INC     DPTR
   \   000019   E0           MOVX    A,@DPTR
   \   00001A   F9           MOV     R1,A
   \   00001B   E8           MOV     A,R0
   \   00001C   FA           MOV     R2,A
   \   00001D   E9           MOV     A,R1
   \   00001E   FB           MOV     R3,A
    198          
    199              // first element of the list matches
    200              if (epCurrent->epDesc->endPoint == EndPoint)
   \   00001F   8A82         MOV     DPL,R2
   \   000021   8B83         MOV     DPH,R3
   \   000023   A3           INC     DPTR
   \   000024   A3           INC     DPTR
   \   000025   E0           MOVX    A,@DPTR
   \   000026   FC           MOV     R4,A
   \   000027   A3           INC     DPTR
   \   000028   E0           MOVX    A,@DPTR
   \   000029   F583         MOV     DPH,A
   \   00002B   8C82         MOV     DPL,R4
   \   00002D   E0           MOVX    A,@DPTR
   \   00002E   6E           XRL     A,R6
   \   00002F   7018         JNZ     ??afDelete_1
    201              {
    202                epList = epCurrent->nextDesc;
   \   000031   8A82         MOV     DPL,R2
   \   000033   8B83         MOV     DPH,R3
   \   000035   E0           MOVX    A,@DPTR
   \   000036   F8           MOV     R0,A
   \   000037   A3           INC     DPTR
   \   000038   E0           MOVX    A,@DPTR
   \   000039   F9           MOV     R1,A
   \   00003A   90....       MOV     DPTR,#epList
   \   00003D   E8           MOV     A,R0
   \   00003E   F0           MOVX    @DPTR,A
   \   00003F   A3           INC     DPTR
   \   000040   E9           MOV     A,R1
   \   000041   F0           MOVX    @DPTR,A
    203                osal_mem_free(epCurrent);
   \   000042                ; Setup parameters for call to function osal_mem_free
   \   000042   12....       LCALL   ??osal_mem_free?relay
    204          
    205                return (afStatus_SUCCESS);
   \   000045   7900         MOV     R1,#0x0
   \   000047   8044         SJMP    ??afDelete_2
    206              }
    207              else
    208              {
    209                // search the list
    210                for (epCurrent = epPrevious->nextDesc; epCurrent != NULL; epPrevious = epCurrent)
   \                     ??afDelete_1:
   \   000049   8882         MOV     DPL,R0
   \   00004B   8983         MOV     DPH,R1
   \   00004D   E0           MOVX    A,@DPTR
   \   00004E   FA           MOV     R2,A
   \   00004F   A3           INC     DPTR
   \   000050   E0           MOVX    A,@DPTR
   \   000051   FB           MOV     R3,A
   \   000052   8004         SJMP    ??afDelete_3
   \                     ??afDelete_4:
   \   000054   EA           MOV     A,R2
   \   000055   F8           MOV     R0,A
   \   000056   EB           MOV     A,R3
   \   000057   F9           MOV     R1,A
   \                     ??afDelete_3:
   \   000058   EA           MOV     A,R2
   \   000059   4B           ORL     A,R3
   \   00005A   602B         JZ      ??afDelete_5
    211                {
    212                  if (epCurrent->epDesc->endPoint == EndPoint)
   \   00005C   8A82         MOV     DPL,R2
   \   00005E   8B83         MOV     DPH,R3
   \   000060   A3           INC     DPTR
   \   000061   A3           INC     DPTR
   \   000062   E0           MOVX    A,@DPTR
   \   000063   FC           MOV     R4,A
   \   000064   A3           INC     DPTR
   \   000065   E0           MOVX    A,@DPTR
   \   000066   F583         MOV     DPH,A
   \   000068   8C82         MOV     DPL,R4
   \   00006A   E0           MOVX    A,@DPTR
   \   00006B   6E           XRL     A,R6
   \   00006C   70E6         JNZ     ??afDelete_4
    213                  {
    214                    epPrevious->nextDesc = epCurrent->nextDesc;
   \   00006E   8A82         MOV     DPL,R2
   \   000070   8B83         MOV     DPH,R3
   \   000072   E0           MOVX    A,@DPTR
   \   000073   FC           MOV     R4,A
   \   000074   A3           INC     DPTR
   \   000075   E0           MOVX    A,@DPTR
   \   000076   FD           MOV     R5,A
   \   000077   8882         MOV     DPL,R0
   \   000079   8983         MOV     DPH,R1
   \   00007B   EC           MOV     A,R4
   \   00007C   F0           MOVX    @DPTR,A
   \   00007D   A3           INC     DPTR
   \   00007E   ED           MOV     A,R5
   \   00007F   F0           MOVX    @DPTR,A
    215                    osal_mem_free(epCurrent);
   \   000080                ; Setup parameters for call to function osal_mem_free
   \   000080   12....       LCALL   ??osal_mem_free?relay
    216          
    217                    // delete the entry and free the memory
    218                    return (afStatus_SUCCESS);
   \   000083   7900         MOV     R1,#0x0
   \   000085   8006         SJMP    ??afDelete_2
    219                  }
    220                }
    221              }
    222          
    223              // no endpoint found
    224              return (afStatus_INVALID_PARAMETER);
   \                     ??afDelete_5:
   \   000087   7902         MOV     R1,#0x2
   \   000089   8002         SJMP    ??afDelete_2
    225            }
    226            else
    227            {
    228              // epList is empty
    229              return (afStatus_FAILED);
   \                     ??afDelete_0:
   \   00008B   7901         MOV     R1,#0x1
   \                     ??afDelete_2:
   \   00008D   7F01         MOV     R7,#0x1
   \   00008F   02....       LJMP    ?BANKED_LEAVE_XDATA
    230            }
    231          }
    232          
    233          /*********************************************************************
    234           * @fn          afDataConfirm
    235           *
    236           * @brief       This function will generate the Data Confirm back to
    237           *              the application.
    238           *
    239           * @param       endPoint - confirm end point
    240           * @param       transID - transaction ID from APSDE_DATA_REQUEST
    241           * @param       status - status of APSDE_DATA_REQUEST
    242           *
    243           * @return      none
    244           */

   \                                 In  segment BANKED_CODE, align 1, keep-with-next
    245          void afDataConfirm( uint8 endPoint, uint8 transID, ZStatus_t status )
   \                     afDataConfirm:
    246          {
   \   000000   74F2         MOV     A,#-0xe
   \   000002   12....       LCALL   ?BANKED_ENTER_XDATA
   \   000005                ; Saved register size: 14
   \   000005                ; Auto size: 0
   \   000005   89..         MOV     ?V0 + 0,R1
   \   000007   8A..         MOV     ?V0 + 1,R2
   \   000009   8B..         MOV     ?V0 + 2,R3
    247            endPointDesc_t *epDesc;
    248            afDataConfirm_t *msgPtr;
    249          
    250            // Find the endpoint description
    251            epDesc = afFindEndPointDesc( endPoint );
   \   00000B                ; Setup parameters for call to function afFindEndPointDesc
   \   00000B   A9..         MOV     R1,?V0 + 0
   \   00000D   12....       LCALL   ??afFindEndPointDesc?relay
   \   000010   8A..         MOV     ?V0 + 4,R2
   \   000012   8B..         MOV     ?V0 + 5,R3
   \   000014   AE..         MOV     R6,?V0 + 4
   \   000016   AF..         MOV     R7,?V0 + 5
    252            if ( epDesc == NULL )
   \   000018   EE           MOV     A,R6
   \   000019   4F           ORL     A,R7
   \   00001A   604E         JZ      ??afDataConfirm_0
    253              return;
    254          
    255            // Determine the incoming command type
    256            msgPtr = (afDataConfirm_t *)osal_msg_allocate( sizeof(afDataConfirm_t) );
   \   00001C                ; Setup parameters for call to function osal_msg_allocate
   \   00001C   7A04         MOV     R2,#0x4
   \   00001E   7B00         MOV     R3,#0x0
   \   000020   12....       LCALL   ??osal_msg_allocate?relay
   \   000023   8A..         MOV     ?V0 + 4,R2
   \   000025   8B..         MOV     ?V0 + 5,R3
   \   000027   AA..         MOV     R2,?V0 + 4
   \   000029   AB..         MOV     R3,?V0 + 5
    257            if ( msgPtr )
   \   00002B   EA           MOV     A,R2
   \   00002C   4B           ORL     A,R3
   \   00002D   603B         JZ      ??afDataConfirm_0
    258            {
    259              // Build the Data Confirm message
    260              msgPtr->hdr.event = AF_DATA_CONFIRM_CMD;
   \   00002F   8A82         MOV     DPL,R2
   \   000031   8B83         MOV     DPH,R3
   \   000033   74FD         MOV     A,#-0x3
   \   000035   F0           MOVX    @DPTR,A
    261              msgPtr->hdr.status = status;
   \   000036   E5..         MOV     A,?V0 + 2
   \   000038   8A82         MOV     DPL,R2
   \   00003A   8B83         MOV     DPH,R3
   \   00003C   A3           INC     DPTR
   \   00003D   E5..         MOV     A,?V0 + 2
   \   00003F   F0           MOVX    @DPTR,A
    262              msgPtr->endpoint = endPoint;
   \   000040   E5..         MOV     A,?V0 + 0
   \   000042   8A82         MOV     DPL,R2
   \   000044   8B83         MOV     DPH,R3
   \   000046   A3           INC     DPTR
   \   000047   A3           INC     DPTR
   \   000048   E5..         MOV     A,?V0 + 0
   \   00004A   F0           MOVX    @DPTR,A
    263              msgPtr->transID = transID;
   \   00004B   E5..         MOV     A,?V0 + 1
   \   00004D   8A82         MOV     DPL,R2
   \   00004F   8B83         MOV     DPH,R3
   \   000051   A3           INC     DPTR
   \   000052   A3           INC     DPTR
   \   000053   A3           INC     DPTR
   \   000054   E5..         MOV     A,?V0 + 1
   \   000056   F0           MOVX    @DPTR,A
    264          
    265          #if defined ( MT_AF_CB_FUNC )
    266              /* If MT has subscribed for this callback, don't send as a message. */
    267              if ( AFCB_CHECK(CB_ID_AF_DATA_CNF,*(epDesc->task_id)) )
    268              {
    269                /* Send callback if it's subscribed */
    270                MT_AfDataConfirm ((void *)msgPtr);
    271                /* Release the memory. */
    272                osal_msg_deallocate( (void *)msgPtr );
    273              }
    274              else
    275          #endif
    276              {
    277                /* send message through task message */
    278                osal_msg_send( *(epDesc->task_id), (uint8 *)msgPtr );
   \   000057                ; Setup parameters for call to function osal_msg_send
   \   000057   8E82         MOV     DPL,R6
   \   000059   8F83         MOV     DPH,R7
   \   00005B   A3           INC     DPTR
   \   00005C   E0           MOVX    A,@DPTR
   \   00005D   F8           MOV     R0,A
   \   00005E   A3           INC     DPTR
   \   00005F   E0           MOVX    A,@DPTR
   \   000060   F583         MOV     DPH,A
   \   000062   8882         MOV     DPL,R0
   \   000064   E0           MOVX    A,@DPTR
   \   000065   F9           MOV     R1,A
   \   000066   12....       LCALL   ??osal_msg_send?relay
   \   000069   E9           MOV     A,R1
    279              }
    280            }
    281          }
   \                     ??afDataConfirm_0:
   \   00006A   7F06         MOV     R7,#0x6
   \   00006C   02....       LJMP    ?BANKED_LEAVE_XDATA
    282          
    283          /*********************************************************************
    284           * @fn          afIncomingData
    285           *
    286           * @brief       Transfer a data PDU (ASDU) from the APS sub-layer to the AF.
    287           *
    288           * @param       aff  - pointer to APS frame format
    289           * @param       SrcAddress  - Source address
    290           * @param       SrcPanId  - Source PAN ID
    291           * @param       sig - incoming message's link quality
    292           * @param       nwkSeqNum - incoming network sequence number (from nwk header frame)
    293           * @param       SecurityUse - Security enable/disable
    294           * @param       timestamp - the MAC Timer2 timestamp at Rx.
    295           *
    296           * @return      none
    297           */

   \                                 In  segment BANKED_CODE, align 1, keep-with-next
    298          void afIncomingData( aps_FrameFormat_t *aff, zAddrType_t *SrcAddress, uint16 SrcPanId,
   \                     afIncomingData:
    299                               NLDE_Signal_t *sig, uint8 nwkSeqNum, uint8 SecurityUse, uint32 timestamp )
    300          {
   \   000000   74E8         MOV     A,#-0x18
   \   000002   12....       LCALL   ?BANKED_ENTER_XDATA
   \   000005                ; Saved register size: 24
   \   000005                ; Auto size: 3
   \   000005   74FD         MOV     A,#-0x3
   \   000007   12....       LCALL   ?ALLOC_XSTACK8
   \   00000A   7401         MOV     A,#0x1
   \   00000C   12....       LCALL   ?XSTACK_DISP0_8
   \   00000F   EC           MOV     A,R4
   \   000010   F0           MOVX    @DPTR,A
   \   000011   A3           INC     DPTR
   \   000012   ED           MOV     A,R5
   \   000013   F0           MOVX    @DPTR,A
   \   000014   E9           MOV     A,R1
   \   000015   85..82       MOV     DPL,?XSP + 0
   \   000018   85..83       MOV     DPH,?XSP + 1
   \   00001B   F0           MOVX    @DPTR,A
   \   00001C   8A..         MOV     ?V0 + 0,R2
   \   00001E   8B..         MOV     ?V0 + 1,R3
   \   000020   741B         MOV     A,#0x1b
   \   000022   12....       LCALL   ?XSTACK_DISP0_8
   \   000025   E0           MOVX    A,@DPTR
   \   000026   F5..         MOV     ?V0 + 10,A
   \   000028   A3           INC     DPTR
   \   000029   E0           MOVX    A,@DPTR
   \   00002A   F5..         MOV     ?V0 + 11,A
   \   00002C   7420         MOV     A,#0x20
   \   00002E   12....       LCALL   ?XSTACK_DISP0_8
   \   000031   78..         MOV     R0,#?V0 + 4
   \   000033   12....       LCALL   ?L_MOV_X
    301            endPointDesc_t *epDesc = NULL;
   \   000036   75..00       MOV     ?V0 + 2,#0x0
   \   000039   75..00       MOV     ?V0 + 3,#0x0
    302            epList_t *pList = epList;
   \   00003C   90....       MOV     DPTR,#epList
   \   00003F   E0           MOVX    A,@DPTR
   \   000040   FE           MOV     R6,A
   \   000041   A3           INC     DPTR
   \   000042   E0           MOVX    A,@DPTR
   \   000043   FF           MOV     R7,A
    303          #if !defined ( APS_NO_GROUPS )
    304            uint8 grpEp = APS_GROUPS_EP_NOT_FOUND;
   \   000044   75..FE       MOV     ?V0 + 8,#-0x2
    305          #endif
    306          
    307            if ( ((aff->FrmCtrl & APS_DELIVERYMODE_MASK) == APS_FC_DM_GROUP) )
   \   000047   85..82       MOV     DPL,?V0 + 0
   \   00004A   85..83       MOV     DPH,?V0 + 1
   \   00004D   E0           MOVX    A,@DPTR
   \   00004E   540C         ANL     A,#0xc
   \   000050   640C         XRL     A,#0xc
   \   000052   704D         JNZ     ??afIncomingData_0
    308            {
    309          #if !defined ( APS_NO_GROUPS )
    310              // Find the first endpoint for this group
    311              grpEp = aps_FindGroupForEndpoint( aff->GroupID, APS_GROUPS_FIND_FIRST );
   \   000054                ; Setup parameters for call to function aps_FindGroupForEndpoint
   \   000054   79FE         MOV     R1,#-0x2
   \   000056   85..82       MOV     DPL,?V0 + 0
   \   000059   85..83       MOV     DPH,?V0 + 1
   \   00005C   A3           INC     DPTR
   \   00005D   A3           INC     DPTR
   \   00005E   A3           INC     DPTR
   \   00005F   A3           INC     DPTR
   \   000060   E0           MOVX    A,@DPTR
   \   000061   FA           MOV     R2,A
   \   000062   A3           INC     DPTR
   \   000063   E0           MOVX    A,@DPTR
   \   000064   FB           MOV     R3,A
   \   000065   12....       LCALL   ??aps_FindGroupForEndpoint?relay
   \   000068   E9           MOV     A,R1
   \   000069   F5..         MOV     ?V0 + 8,A
    312              if ( grpEp == APS_GROUPS_EP_NOT_FOUND )
   \   00006B   74FE         MOV     A,#-0x2
   \   00006D   65..         XRL     A,?V0 + 8
   \   00006F   7003         JNZ     $+5
   \   000071   02....       LJMP    ??afIncomingData_1 & 0xFFFF
    313                return;   // No endpoint found
    314          
    315              epDesc = afFindEndPointDesc( grpEp );
   \   000074                ; Setup parameters for call to function afFindEndPointDesc
   \   000074   A9..         MOV     R1,?V0 + 8
   \   000076   12....       LCALL   ??afFindEndPointDesc?relay
   \   000079   8A..         MOV     ?V0 + 12,R2
   \   00007B   8B..         MOV     ?V0 + 13,R3
   \   00007D   85....       MOV     ?V0 + 2,?V0 + 12
   \   000080   85....       MOV     ?V0 + 3,?V0 + 13
    316              if ( epDesc == NULL )
   \   000083   E5..         MOV     A,?V0 + 2
   \   000085   45..         ORL     A,?V0 + 3
   \   000087   7003         JNZ     $+5
   \   000089   02....       LJMP    ??afIncomingData_1 & 0xFFFF
    317                return;   // Endpoint descriptor not found
    318          
    319              pList = afFindEndPointDescList( epDesc->endPoint );
   \   00008C                ; Setup parameters for call to function afFindEndPointDescList
   \   00008C   85..82       MOV     DPL,?V0 + 2
   \   00008F   85..83       MOV     DPH,?V0 + 3
   \   000092   E0           MOVX    A,@DPTR
   \   000093   F9           MOV     R1,A
   \   000094   12....       LCALL   ??afFindEndPointDescList?relay
   \   000097   8A..         MOV     ?V0 + 12,R2
   \   000099   8B..         MOV     ?V0 + 13,R3
   \   00009B   AE..         MOV     R6,?V0 + 12
   \   00009D   AF..         MOV     R7,?V0 + 13
   \   00009F   8065         SJMP    ??afIncomingData_2
    320          #else
    321              return; // Not supported
    322          #endif
    323            }
    324            else if ( aff->DstEndPoint == AF_BROADCAST_ENDPOINT )
   \                     ??afIncomingData_0:
   \   0000A1   85..82       MOV     DPL,?V0 + 0
   \   0000A4   85..83       MOV     DPH,?V0 + 1
   \   0000A7   A3           INC     DPTR
   \   0000A8   A3           INC     DPTR
   \   0000A9   E0           MOVX    A,@DPTR
   \   0000AA   64FF         XRL     A,#0xff
   \   0000AC   7013         JNZ     ??afIncomingData_3
    325            {
    326              // Set the list
    327              if ( pList != NULL )
   \   0000AE   EE           MOV     A,R6
   \   0000AF   4F           ORL     A,R7
   \   0000B0   6054         JZ      ??afIncomingData_2
    328              {
    329                epDesc = pList->epDesc;
   \   0000B2   8E82         MOV     DPL,R6
   \   0000B4   8F83         MOV     DPH,R7
   \   0000B6   A3           INC     DPTR
   \   0000B7   A3           INC     DPTR
   \   0000B8   E0           MOVX    A,@DPTR
   \   0000B9   F5..         MOV     ?V0 + 2,A
   \   0000BB   A3           INC     DPTR
   \   0000BC   E0           MOVX    A,@DPTR
   \   0000BD   F5..         MOV     ?V0 + 3,A
   \   0000BF   8045         SJMP    ??afIncomingData_2
    330              }
    331            }
    332            else if ( (epDesc = afFindEndPointDesc( aff->DstEndPoint )) )
   \                     ??afIncomingData_3:
   \   0000C1                ; Setup parameters for call to function afFindEndPointDesc
   \   0000C1   85..82       MOV     DPL,?V0 + 0
   \   0000C4   85..83       MOV     DPH,?V0 + 1
   \   0000C7   A3           INC     DPTR
   \   0000C8   A3           INC     DPTR
   \   0000C9   E0           MOVX    A,@DPTR
   \   0000CA   F9           MOV     R1,A
   \   0000CB   12....       LCALL   ??afFindEndPointDesc?relay
   \   0000CE   8A..         MOV     ?V0 + 2,R2
   \   0000D0   8B..         MOV     ?V0 + 3,R3
   \   0000D2   A8..         MOV     R0,?V0 + 2
   \   0000D4   A9..         MOV     R1,?V0 + 3
   \   0000D6   88..         MOV     ?V0 + 2,R0
   \   0000D8   89..         MOV     ?V0 + 3,R1
   \   0000DA   E8           MOV     A,R0
   \   0000DB   49           ORL     A,R1
   \   0000DC   6028         JZ      ??afIncomingData_2
    333            {
    334              pList = afFindEndPointDescList( epDesc->endPoint );
   \   0000DE                ; Setup parameters for call to function afFindEndPointDescList
   \   0000DE   85..82       MOV     DPL,?V0 + 2
   \   0000E1   85..83       MOV     DPH,?V0 + 3
   \   0000E4   E0           MOVX    A,@DPTR
   \   0000E5   F9           MOV     R1,A
   \   0000E6   12....       LCALL   ??afFindEndPointDescList?relay
   \   0000E9   8A..         MOV     ?V0 + 12,R2
   \   0000EB   8B..         MOV     ?V0 + 13,R3
   \   0000ED   AE..         MOV     R6,?V0 + 12
   \   0000EF   AF..         MOV     R7,?V0 + 13
   \   0000F1   8013         SJMP    ??afIncomingData_2
    335            }
    336          
    337            while ( epDesc )
    338            {
    339              uint16 epProfileID = 0xFFFF;  // Invalid Profile ID
    340          
    341              if ( pList->pfnDescCB )
    342              {
    343                uint16 *pID = (uint16 *)(pList->pfnDescCB(
    344                                           AF_DESCRIPTOR_PROFILE_ID, epDesc->endPoint ));
    345                if ( pID )
    346                {
    347                  epProfileID = *pID;
    348                  osal_mem_free( pID );
    349                }
    350              }
    351              else if ( epDesc->simpleDesc )
    352              {
    353                epProfileID = epDesc->simpleDesc->AppProfId;
    354              }
    355          
    356              if ( (aff->ProfileID == epProfileID) ||
    357                   ((epDesc->endPoint == ZDO_EP) && (aff->ProfileID == ZDO_PROFILE_ID)) )
    358              {
    359                {
    360                  // Save original endpoint
    361                  uint8 endpoint = aff->DstEndPoint;
    362          
    363                  // overwrite with descriptor's endpoint
    364                  aff->DstEndPoint = epDesc->endPoint;
    365          
    366                  afBuildMSGIncoming( aff, epDesc, SrcAddress, SrcPanId, sig,
    367                                     nwkSeqNum, SecurityUse, timestamp );
    368          
    369                  // Restore with original endpoint
    370                  aff->DstEndPoint = endpoint;
    371                }
    372              }
    373          
    374              if ( ((aff->FrmCtrl & APS_DELIVERYMODE_MASK) == APS_FC_DM_GROUP) )
    375              {
    376          #if !defined ( APS_NO_GROUPS )
    377                // Find the next endpoint for this group
    378                grpEp = aps_FindGroupForEndpoint( aff->GroupID, grpEp );
    379                if ( grpEp == APS_GROUPS_EP_NOT_FOUND )
    380                  return;   // No endpoint found
    381          
    382                epDesc = afFindEndPointDesc( grpEp );
    383                if ( epDesc == NULL )
    384                  return;   // Endpoint descriptor not found
    385          
    386                pList = afFindEndPointDescList( epDesc->endPoint );
   \                     ??afIncomingData_4:
   \   0000F3                ; Setup parameters for call to function afFindEndPointDescList
   \   0000F3   85..82       MOV     DPL,?V0 + 2
   \   0000F6   85..83       MOV     DPH,?V0 + 3
   \   0000F9   E0           MOVX    A,@DPTR
   \   0000FA   F9           MOV     R1,A
   \   0000FB   12....       LCALL   ??afFindEndPointDescList?relay
   \   0000FE   8A..         MOV     ?V0 + 12,R2
   \   000100   8B..         MOV     ?V0 + 13,R3
   \   000102   AE..         MOV     R6,?V0 + 12
   \   000104   AF..         MOV     R7,?V0 + 13
   \                     ??afIncomingData_2:
   \   000106   E5..         MOV     A,?V0 + 2
   \   000108   45..         ORL     A,?V0 + 3
   \   00010A   7003         JNZ     $+5
   \   00010C   02....       LJMP    ??afIncomingData_1 & 0xFFFF
   \   00010F   75..FF       MOV     ?V0 + 14,#-0x1
   \   000112   75..FF       MOV     ?V0 + 15,#-0x1
   \   000115   8E82         MOV     DPL,R6
   \   000117   8F83         MOV     DPH,R7
   \   000119   A3           INC     DPTR
   \   00011A   A3           INC     DPTR
   \   00011B   A3           INC     DPTR
   \   00011C   A3           INC     DPTR
   \   00011D   E0           MOVX    A,@DPTR
   \   00011E   F8           MOV     R0,A
   \   00011F   A3           INC     DPTR
   \   000120   E0           MOVX    A,@DPTR
   \   000121   F9           MOV     R1,A
   \   000122   E8           MOV     A,R0
   \   000123   49           ORL     A,R1
   \   000124   6039         JZ      ??afIncomingData_5
   \   000126                ; Setup parameters for indirect call
   \   000126   85..82       MOV     DPL,?V0 + 2
   \   000129   85..83       MOV     DPH,?V0 + 3
   \   00012C   E0           MOVX    A,@DPTR
   \   00012D   FA           MOV     R2,A
   \   00012E   7902         MOV     R1,#0x2
   \   000130   8E82         MOV     DPL,R6
   \   000132   8F83         MOV     DPH,R7
   \   000134   A3           INC     DPTR
   \   000135   A3           INC     DPTR
   \   000136   A3           INC     DPTR
   \   000137   A3           INC     DPTR
   \   000138   E0           MOVX    A,@DPTR
   \   000139   F8           MOV     R0,A
   \   00013A   A3           INC     DPTR
   \   00013B   E0           MOVX    A,@DPTR
   \   00013C   F583         MOV     DPH,A
   \   00013E   8882         MOV     DPL,R0
   \   000140   12....       LCALL   ?CALL_IND
   \   000143   8A..         MOV     ?V0 + 12,R2
   \   000145   8B..         MOV     ?V0 + 13,R3
   \   000147   AA..         MOV     R2,?V0 + 12
   \   000149   AB..         MOV     R3,?V0 + 13
   \   00014B   EA           MOV     A,R2
   \   00014C   4B           ORL     A,R3
   \   00014D   603B         JZ      ??afIncomingData_6
   \   00014F   8A82         MOV     DPL,R2
   \   000151   8B83         MOV     DPH,R3
   \   000153   E0           MOVX    A,@DPTR
   \   000154   F5..         MOV     ?V0 + 14,A
   \   000156   A3           INC     DPTR
   \   000157   E0           MOVX    A,@DPTR
   \   000158   F5..         MOV     ?V0 + 15,A
   \   00015A                ; Setup parameters for call to function osal_mem_free
   \   00015A   12....       LCALL   ??osal_mem_free?relay
   \   00015D   802B         SJMP    ??afIncomingData_6
   \                     ??afIncomingData_5:
   \   00015F   85..82       MOV     DPL,?V0 + 2
   \   000162   85..83       MOV     DPH,?V0 + 3
   \   000165   A3           INC     DPTR
   \   000166   A3           INC     DPTR
   \   000167   A3           INC     DPTR
   \   000168   E0           MOVX    A,@DPTR
   \   000169   F8           MOV     R0,A
   \   00016A   A3           INC     DPTR
   \   00016B   E0           MOVX    A,@DPTR
   \   00016C   F9           MOV     R1,A
   \   00016D   E8           MOV     A,R0
   \   00016E   49           ORL     A,R1
   \   00016F   6019         JZ      ??afIncomingData_6
   \   000171   85..82       MOV     DPL,?V0 + 2
   \   000174   85..83       MOV     DPH,?V0 + 3
   \   000177   A3           INC     DPTR
   \   000178   A3           INC     DPTR
   \   000179   A3           INC     DPTR
   \   00017A   E0           MOVX    A,@DPTR
   \   00017B   F8           MOV     R0,A
   \   00017C   A3           INC     DPTR
   \   00017D   E0           MOVX    A,@DPTR
   \   00017E   F583         MOV     DPH,A
   \   000180   8882         MOV     DPL,R0
   \   000182   A3           INC     DPTR
   \   000183   E0           MOVX    A,@DPTR
   \   000184   F5..         MOV     ?V0 + 14,A
   \   000186   A3           INC     DPTR
   \   000187   E0           MOVX    A,@DPTR
   \   000188   F5..         MOV     ?V0 + 15,A
   \                     ??afIncomingData_6:
   \   00018A   85..82       MOV     DPL,?V0 + 0
   \   00018D   85..83       MOV     DPH,?V0 + 1
   \   000190   A3           INC     DPTR
   \   000191   A3           INC     DPTR
   \   000192   A3           INC     DPTR
   \   000193   A3           INC     DPTR
   \   000194   A3           INC     DPTR
   \   000195   A3           INC     DPTR
   \   000196   A3           INC     DPTR
   \   000197   A3           INC     DPTR
   \   000198   E0           MOVX    A,@DPTR
   \   000199   65..         XRL     A,?V0 + 14
   \   00019B   7004         JNZ     ??afIncomingData_7
   \   00019D   A3           INC     DPTR
   \   00019E   E0           MOVX    A,@DPTR
   \   00019F   65..         XRL     A,?V0 + 15
   \                     ??afIncomingData_7:
   \   0001A1   6020         JZ      ??afIncomingData_8
   \   0001A3   85..82       MOV     DPL,?V0 + 2
   \   0001A6   85..83       MOV     DPH,?V0 + 3
   \   0001A9   E0           MOVX    A,@DPTR
   \   0001AA   707D         JNZ     ??afIncomingData_9
   \   0001AC   85..82       MOV     DPL,?V0 + 0
   \   0001AF   85..83       MOV     DPH,?V0 + 1
   \   0001B2   A3           INC     DPTR
   \   0001B3   A3           INC     DPTR
   \   0001B4   A3           INC     DPTR
   \   0001B5   A3           INC     DPTR
   \   0001B6   A3           INC     DPTR
   \   0001B7   A3           INC     DPTR
   \   0001B8   A3           INC     DPTR
   \   0001B9   A3           INC     DPTR
   \   0001BA   E0           MOVX    A,@DPTR
   \   0001BB   F8           MOV     R0,A
   \   0001BC   A3           INC     DPTR
   \   0001BD   E0           MOVX    A,@DPTR
   \   0001BE   F9           MOV     R1,A
   \   0001BF   E8           MOV     A,R0
   \   0001C0   49           ORL     A,R1
   \   0001C1   7066         JNZ     ??afIncomingData_9
   \                     ??afIncomingData_8:
   \   0001C3   85..82       MOV     DPL,?V0 + 0
   \   0001C6   85..83       MOV     DPH,?V0 + 1
   \   0001C9   A3           INC     DPTR
   \   0001CA   A3           INC     DPTR
   \   0001CB   E0           MOVX    A,@DPTR
   \   0001CC   F5..         MOV     ?V0 + 9,A
   \   0001CE   85..82       MOV     DPL,?V0 + 2
   \   0001D1   85..83       MOV     DPH,?V0 + 3
   \   0001D4   E0           MOVX    A,@DPTR
   \   0001D5   85..82       MOV     DPL,?V0 + 0
   \   0001D8   85..83       MOV     DPH,?V0 + 1
   \   0001DB   A3           INC     DPTR
   \   0001DC   A3           INC     DPTR
   \   0001DD   F0           MOVX    @DPTR,A
   \   0001DE                ; Setup parameters for call to function afBuildMSGIncoming
   \   0001DE   78..         MOV     R0,#?V0 + 4
   \   0001E0   12....       LCALL   ?PUSH_XSTACK_I_FOUR
   \   0001E3   7423         MOV     A,#0x23
   \   0001E5   12....       LCALL   ?XSTACK_DISP0_8
   \   0001E8   E0           MOVX    A,@DPTR
   \   0001E9   F5..         MOV     ?V0 + 12,A
   \   0001EB   78..         MOV     R0,#?V0 + 12
   \   0001ED   12....       LCALL   ?PUSH_XSTACK_I_ONE
   \   0001F0   7422         MOV     A,#0x22
   \   0001F2   12....       LCALL   ?XSTACK_DISP0_8
   \   0001F5   12....       LCALL   ?PUSH_XSTACK8_X_TWO
   \   0001F8   78..         MOV     R0,#?V0 + 10
   \   0001FA   12....       LCALL   ?PUSH_XSTACK_I_TWO
   \   0001FD   740A         MOV     A,#0xa
   \   0001FF   12....       LCALL   ?XSTACK_DISP0_8
   \   000202   12....       LCALL   ?PUSH_XSTACK8_X_TWO
   \   000205   740B         MOV     A,#0xb
   \   000207   12....       LCALL   ?XSTACK_DISP0_8
   \   00020A   E0           MOVX    A,@DPTR
   \   00020B   F9           MOV     R1,A
   \   00020C   AC..         MOV     R4,?V0 + 2
   \   00020E   AD..         MOV     R5,?V0 + 3
   \   000210   AA..         MOV     R2,?V0 + 0
   \   000212   AB..         MOV     R3,?V0 + 1
   \   000214   12....       LCALL   ??afBuildMSGIncoming?relay
   \   000217   740B         MOV     A,#0xb
   \   000219   12....       LCALL   ?DEALLOC_XSTACK8
   \   00021C   E5..         MOV     A,?V0 + 9
   \   00021E   85..82       MOV     DPL,?V0 + 0
   \   000221   85..83       MOV     DPH,?V0 + 1
   \   000224   A3           INC     DPTR
   \   000225   A3           INC     DPTR
   \   000226   E5..         MOV     A,?V0 + 9
   \   000228   F0           MOVX    @DPTR,A
   \                     ??afIncomingData_9:
   \   000229   85..82       MOV     DPL,?V0 + 0
   \   00022C   85..83       MOV     DPH,?V0 + 1
   \   00022F   E0           MOVX    A,@DPTR
   \   000230   540C         ANL     A,#0xc
   \   000232   640C         XRL     A,#0xc
   \   000234   7037         JNZ     ??afIncomingData_10
   \   000236                ; Setup parameters for call to function aps_FindGroupForEndpoint
   \   000236   A9..         MOV     R1,?V0 + 8
   \   000238   85..82       MOV     DPL,?V0 + 0
   \   00023B   85..83       MOV     DPH,?V0 + 1
   \   00023E   A3           INC     DPTR
   \   00023F   A3           INC     DPTR
   \   000240   A3           INC     DPTR
   \   000241   A3           INC     DPTR
   \   000242   E0           MOVX    A,@DPTR
   \   000243   FA           MOV     R2,A
   \   000244   A3           INC     DPTR
   \   000245   E0           MOVX    A,@DPTR
   \   000246   FB           MOV     R3,A
   \   000247   12....       LCALL   ??aps_FindGroupForEndpoint?relay
   \   00024A   E9           MOV     A,R1
   \   00024B   F5..         MOV     ?V0 + 8,A
   \   00024D   74FE         MOV     A,#-0x2
   \   00024F   65..         XRL     A,?V0 + 8
   \   000251   6056         JZ      ??afIncomingData_1
   \   000253                ; Setup parameters for call to function afFindEndPointDesc
   \   000253   A9..         MOV     R1,?V0 + 8
   \   000255   12....       LCALL   ??afFindEndPointDesc?relay
   \   000258   8A..         MOV     ?V0 + 12,R2
   \   00025A   8B..         MOV     ?V0 + 13,R3
   \   00025C   85....       MOV     ?V0 + 2,?V0 + 12
   \   00025F   85....       MOV     ?V0 + 3,?V0 + 13
   \   000262   E5..         MOV     A,?V0 + 2
   \   000264   45..         ORL     A,?V0 + 3
   \   000266   6003         JZ      $+5
   \   000268   02....       LJMP    ??afIncomingData_4 & 0xFFFF
   \   00026B   803C         SJMP    ??afIncomingData_1
    387          #else
    388                return;
    389          #endif
    390              }
    391              else if ( aff->DstEndPoint == AF_BROADCAST_ENDPOINT )
   \                     ??afIncomingData_10:
   \   00026D   85..82       MOV     DPL,?V0 + 0
   \   000270   85..83       MOV     DPH,?V0 + 1
   \   000273   A3           INC     DPTR
   \   000274   A3           INC     DPTR
   \   000275   E0           MOVX    A,@DPTR
   \   000276   64FF         XRL     A,#0xff
   \   000278   7026         JNZ     ??afIncomingData_11
    392              {
    393                pList = pList->nextDesc;
   \   00027A   8E82         MOV     DPL,R6
   \   00027C   8F83         MOV     DPH,R7
   \   00027E   E0           MOVX    A,@DPTR
   \   00027F   FE           MOV     R6,A
   \   000280   A3           INC     DPTR
   \   000281   E0           MOVX    A,@DPTR
   \   000282   FF           MOV     R7,A
    394                if ( pList )
   \   000283   EE           MOV     A,R6
   \   000284   4F           ORL     A,R7
   \   000285   6010         JZ      ??afIncomingData_12
    395                  epDesc = pList->epDesc;
   \   000287   8E82         MOV     DPL,R6
   \   000289   8F83         MOV     DPH,R7
   \   00028B   A3           INC     DPTR
   \   00028C   A3           INC     DPTR
   \   00028D   E0           MOVX    A,@DPTR
   \   00028E   F5..         MOV     ?V0 + 2,A
   \   000290   A3           INC     DPTR
   \   000291   E0           MOVX    A,@DPTR
   \   000292   F5..         MOV     ?V0 + 3,A
   \   000294   02....       LJMP    ??afIncomingData_2 & 0xFFFF
    396                else
    397                  epDesc = NULL;
   \                     ??afIncomingData_12:
   \   000297   75..00       MOV     ?V0 + 2,#0x0
   \   00029A   75..00       MOV     ?V0 + 3,#0x0
   \   00029D   02....       LJMP    ??afIncomingData_2 & 0xFFFF
    398              }
    399              else
    400                epDesc = NULL;
   \                     ??afIncomingData_11:
   \   0002A0   75..00       MOV     ?V0 + 2,#0x0
   \   0002A3   75..00       MOV     ?V0 + 3,#0x0
   \   0002A6   02....       LJMP    ??afIncomingData_2 & 0xFFFF
    401            }
    402          }
   \                     ??afIncomingData_1:
   \   0002A9   7403         MOV     A,#0x3
   \   0002AB   12....       LCALL   ?DEALLOC_XSTACK8
   \   0002AE   7F10         MOV     R7,#0x10
   \   0002B0   02....       LJMP    ?BANKED_LEAVE_XDATA
    403          
    404          /*********************************************************************
    405           * @fn          afBuildMSGIncoming
    406           *
    407           * @brief       Build the message for the app
    408           *
    409           * @param
    410           *
    411           * @return      pointer to next in data buffer
    412           */

   \                                 In  segment BANKED_CODE, align 1, keep-with-next
    413          static void afBuildMSGIncoming( aps_FrameFormat_t *aff, endPointDesc_t *epDesc,
   \                     afBuildMSGIncoming:
    414                           zAddrType_t *SrcAddress, uint16 SrcPanId, NLDE_Signal_t *sig,
    415                           uint8 nwkSeqNum, uint8 SecurityUse, uint32 timestamp )
    416          {
   \   000000   74E8         MOV     A,#-0x18
   \   000002   12....       LCALL   ?BANKED_ENTER_XDATA
   \   000005                ; Saved register size: 24
   \   000005                ; Auto size: 0
   \   000005   8A..         MOV     ?V0 + 0,R2
   \   000007   8B..         MOV     ?V0 + 1,R3
   \   000009   8C..         MOV     ?V0 + 10,R4
   \   00000B   8D..         MOV     ?V0 + 11,R5
   \   00000D   89..         MOV     ?V0 + 15,R1
   \   00000F   741C         MOV     A,#0x1c
   \   000011   12....       LCALL   ?XSTACK_DISP0_8
   \   000014   E0           MOVX    A,@DPTR
   \   000015   F5..         MOV     ?V0 + 2,A
   \   000017   A3           INC     DPTR
   \   000018   E0           MOVX    A,@DPTR
   \   000019   F5..         MOV     ?V0 + 3,A
   \   00001B   741E         MOV     A,#0x1e
   \   00001D   12....       LCALL   ?XSTACK_DISP0_8
   \   000020   E0           MOVX    A,@DPTR
   \   000021   F5..         MOV     ?V0 + 14,A
   \   000023   741F         MOV     A,#0x1f
   \   000025   12....       LCALL   ?XSTACK_DISP0_8
   \   000028   78..         MOV     R0,#?V0 + 4
   \   00002A   12....       LCALL   ?L_MOV_X
    417            afIncomingMSGPacket_t *MSGpkt;
    418            const uint8 len = sizeof( afIncomingMSGPacket_t ) + aff->asduLength;
   \   00002D   E5..         MOV     A,?V0 + 0
   \   00002F   2410         ADD     A,#0x10
   \   000031   F582         MOV     DPL,A
   \   000033   E5..         MOV     A,?V0 + 1
   \   000035   3400         ADDC    A,#0x0
   \   000037   F583         MOV     DPH,A
   \   000039   E0           MOVX    A,@DPTR
   \   00003A   2424         ADD     A,#0x24
   \   00003C   F5..         MOV     ?V0 + 12,A
    419            uint8 *asdu = aff->asdu;
   \   00003E   E5..         MOV     A,?V0 + 0
   \   000040   240E         ADD     A,#0xe
   \   000042   F582         MOV     DPL,A
   \   000044   E5..         MOV     A,?V0 + 1
   \   000046   3400         ADDC    A,#0x0
   \   000048   F583         MOV     DPH,A
   \   00004A   E0           MOVX    A,@DPTR
   \   00004B   F5..         MOV     ?V0 + 8,A
   \   00004D   A3           INC     DPTR
   \   00004E   E0           MOVX    A,@DPTR
   \   00004F   F5..         MOV     ?V0 + 9,A
    420            MSGpkt = (afIncomingMSGPacket_t *)osal_msg_allocate( len );
   \   000051                ; Setup parameters for call to function osal_msg_allocate
   \   000051   75..00       MOV     ?V0 + 13,#0x0
   \   000054   AA..         MOV     R2,?V0 + 12
   \   000056   AB..         MOV     R3,?V0 + 13
   \   000058   12....       LCALL   ??osal_msg_allocate?relay
   \   00005B   8A..         MOV     ?V0 + 12,R2
   \   00005D   8B..         MOV     ?V0 + 13,R3
   \   00005F   AE..         MOV     R6,?V0 + 12
   \   000061   AF..         MOV     R7,?V0 + 13
    421          
    422            if ( MSGpkt == NULL )
   \   000063   EE           MOV     A,R6
   \   000064   4F           ORL     A,R7
   \   000065   7003         JNZ     $+5
   \   000067   02....       LJMP    ??afBuildMSGIncoming_0 & 0xFFFF
    423            {
    424              return;
    425            }
    426          
    427            MSGpkt->hdr.event = AF_INCOMING_MSG_CMD;
   \   00006A   8E82         MOV     DPL,R6
   \   00006C   8F83         MOV     DPH,R7
   \   00006E   741A         MOV     A,#0x1a
   \   000070   F0           MOVX    @DPTR,A
    428            MSGpkt->groupId = aff->GroupID;
   \   000071   85..82       MOV     DPL,?V0 + 0
   \   000074   85..83       MOV     DPH,?V0 + 1
   \   000077   A3           INC     DPTR
   \   000078   A3           INC     DPTR
   \   000079   A3           INC     DPTR
   \   00007A   A3           INC     DPTR
   \   00007B   E0           MOVX    A,@DPTR
   \   00007C   F8           MOV     R0,A
   \   00007D   A3           INC     DPTR
   \   00007E   E0           MOVX    A,@DPTR
   \   00007F   F9           MOV     R1,A
   \   000080   8E82         MOV     DPL,R6
   \   000082   8F83         MOV     DPH,R7
   \   000084   A3           INC     DPTR
   \   000085   A3           INC     DPTR
   \   000086   E8           MOV     A,R0
   \   000087   F0           MOVX    @DPTR,A
   \   000088   A3           INC     DPTR
   \   000089   E9           MOV     A,R1
   \   00008A   F0           MOVX    @DPTR,A
    429            MSGpkt->clusterId = aff->ClusterID;
   \   00008B   85..82       MOV     DPL,?V0 + 0
   \   00008E   85..83       MOV     DPH,?V0 + 1
   \   000091   A3           INC     DPTR
   \   000092   A3           INC     DPTR
   \   000093   A3           INC     DPTR
   \   000094   A3           INC     DPTR
   \   000095   A3           INC     DPTR
   \   000096   A3           INC     DPTR
   \   000097   E0           MOVX    A,@DPTR
   \   000098   F8           MOV     R0,A
   \   000099   A3           INC     DPTR
   \   00009A   E0           MOVX    A,@DPTR
   \   00009B   F9           MOV     R1,A
   \   00009C   8E82         MOV     DPL,R6
   \   00009E   8F83         MOV     DPH,R7
   \   0000A0   A3           INC     DPTR
   \   0000A1   A3           INC     DPTR
   \   0000A2   A3           INC     DPTR
   \   0000A3   A3           INC     DPTR
   \   0000A4   E8           MOV     A,R0
   \   0000A5   F0           MOVX    @DPTR,A
   \   0000A6   A3           INC     DPTR
   \   0000A7   E9           MOV     A,R1
   \   0000A8   F0           MOVX    @DPTR,A
    430            afCopyAddress( &MSGpkt->srcAddr, SrcAddress );
   \   0000A9                ; Setup parameters for call to function afCopyAddress
   \   0000A9   7418         MOV     A,#0x18
   \   0000AB   12....       LCALL   ?XSTACK_DISP0_8
   \   0000AE   E0           MOVX    A,@DPTR
   \   0000AF   FC           MOV     R4,A
   \   0000B0   A3           INC     DPTR
   \   0000B1   E0           MOVX    A,@DPTR
   \   0000B2   FD           MOV     R5,A
   \   0000B3   EE           MOV     A,R6
   \   0000B4   2406         ADD     A,#0x6
   \   0000B6   FA           MOV     R2,A
   \   0000B7   EF           MOV     A,R7
   \   0000B8   3400         ADDC    A,#0x0
   \   0000BA   FB           MOV     R3,A
   \   0000BB   12....       LCALL   ??afCopyAddress?relay
    431            MSGpkt->srcAddr.endPoint = aff->SrcEndPoint;
   \   0000BE   85..82       MOV     DPL,?V0 + 0
   \   0000C1   85..83       MOV     DPH,?V0 + 1
   \   0000C4   A3           INC     DPTR
   \   0000C5   A3           INC     DPTR
   \   0000C6   A3           INC     DPTR
   \   0000C7   E0           MOVX    A,@DPTR
   \   0000C8   C0E0         PUSH    A
   \   0000CA   EE           MOV     A,R6
   \   0000CB   240F         ADD     A,#0xf
   \   0000CD   F582         MOV     DPL,A
   \   0000CF   EF           MOV     A,R7
   \   0000D0   3400         ADDC    A,#0x0
   \   0000D2   F583         MOV     DPH,A
   \   0000D4   D0E0         POP     A
   \   0000D6   F0           MOVX    @DPTR,A
    432            MSGpkt->endPoint = epDesc->endPoint;
   \   0000D7   85..82       MOV     DPL,?V0 + 10
   \   0000DA   85..83       MOV     DPH,?V0 + 11
   \   0000DD   E0           MOVX    A,@DPTR
   \   0000DE   C0E0         PUSH    A
   \   0000E0   EE           MOV     A,R6
   \   0000E1   2414         ADD     A,#0x14
   \   0000E3   F582         MOV     DPL,A
   \   0000E5   EF           MOV     A,R7
   \   0000E6   3400         ADDC    A,#0x0
   \   0000E8   F583         MOV     DPH,A
   \   0000EA   D0E0         POP     A
   \   0000EC   F0           MOVX    @DPTR,A
    433            MSGpkt->wasBroadcast = aff->wasBroadcast;
   \   0000ED   E5..         MOV     A,?V0 + 0
   \   0000EF   240C         ADD     A,#0xc
   \   0000F1   F582         MOV     DPL,A
   \   0000F3   E5..         MOV     A,?V0 + 1
   \   0000F5   3400         ADDC    A,#0x0
   \   0000F7   F583         MOV     DPH,A
   \   0000F9   E0           MOVX    A,@DPTR
   \   0000FA   C0E0         PUSH    A
   \   0000FC   EE           MOV     A,R6
   \   0000FD   2415         ADD     A,#0x15
   \   0000FF   F582         MOV     DPL,A
   \   000101   EF           MOV     A,R7
   \   000102   3400         ADDC    A,#0x0
   \   000104   F583         MOV     DPH,A
   \   000106   D0E0         POP     A
   \   000108   F0           MOVX    @DPTR,A
    434            MSGpkt->LinkQuality = sig->LinkQuality;
   \   000109   85..82       MOV     DPL,?V0 + 2
   \   00010C   85..83       MOV     DPH,?V0 + 3
   \   00010F   E0           MOVX    A,@DPTR
   \   000110   C0E0         PUSH    A
   \   000112   EE           MOV     A,R6
   \   000113   2416         ADD     A,#0x16
   \   000115   F582         MOV     DPL,A
   \   000117   EF           MOV     A,R7
   \   000118   3400         ADDC    A,#0x0
   \   00011A   F583         MOV     DPH,A
   \   00011C   D0E0         POP     A
   \   00011E   F0           MOVX    @DPTR,A
    435            MSGpkt->correlation = sig->correlation;
   \   00011F   85..82       MOV     DPL,?V0 + 2
   \   000122   85..83       MOV     DPH,?V0 + 3
   \   000125   A3           INC     DPTR
   \   000126   E0           MOVX    A,@DPTR
   \   000127   C0E0         PUSH    A
   \   000129   EE           MOV     A,R6
   \   00012A   2417         ADD     A,#0x17
   \   00012C   F582         MOV     DPL,A
   \   00012E   EF           MOV     A,R7
   \   00012F   3400         ADDC    A,#0x0
   \   000131   F583         MOV     DPH,A
   \   000133   D0E0         POP     A
   \   000135   F0           MOVX    @DPTR,A
    436            MSGpkt->rssi = sig->rssi;
   \   000136   85..82       MOV     DPL,?V0 + 2
   \   000139   85..83       MOV     DPH,?V0 + 3
   \   00013C   A3           INC     DPTR
   \   00013D   A3           INC     DPTR
   \   00013E   E0           MOVX    A,@DPTR
   \   00013F   C0E0         PUSH    A
   \   000141   EE           MOV     A,R6
   \   000142   2418         ADD     A,#0x18
   \   000144   F582         MOV     DPL,A
   \   000146   EF           MOV     A,R7
   \   000147   3400         ADDC    A,#0x0
   \   000149   F583         MOV     DPH,A
   \   00014B   D0E0         POP     A
   \   00014D   F0           MOVX    @DPTR,A
    437            MSGpkt->SecurityUse = SecurityUse;
   \   00014E   E5..         MOV     A,?V0 + 14
   \   000150   EE           MOV     A,R6
   \   000151   2419         ADD     A,#0x19
   \   000153   F582         MOV     DPL,A
   \   000155   EF           MOV     A,R7
   \   000156   3400         ADDC    A,#0x0
   \   000158   F583         MOV     DPH,A
   \   00015A   E5..         MOV     A,?V0 + 14
   \   00015C   F0           MOVX    @DPTR,A
    438            MSGpkt->timestamp = timestamp;
   \   00015D   EE           MOV     A,R6
   \   00015E   241A         ADD     A,#0x1a
   \   000160   F582         MOV     DPL,A
   \   000162   EF           MOV     A,R7
   \   000163   3400         ADDC    A,#0x0
   \   000165   F583         MOV     DPH,A
   \   000167   78..         MOV     R0,#?V0 + 4
   \   000169   12....       LCALL   ?L_MOV_TO_X
    439            MSGpkt->nwkSeqNum = nwkSeqNum;
   \   00016C   E5..         MOV     A,?V0 + 15
   \   00016E   EE           MOV     A,R6
   \   00016F   241E         ADD     A,#0x1e
   \   000171   F582         MOV     DPL,A
   \   000173   EF           MOV     A,R7
   \   000174   3400         ADDC    A,#0x0
   \   000176   F583         MOV     DPH,A
   \   000178   E5..         MOV     A,?V0 + 15
   \   00017A   F0           MOVX    @DPTR,A
    440            MSGpkt->macDestAddr = aff->macDestAddr;
   \   00017B   85..82       MOV     DPL,?V0 + 0
   \   00017E   85..83       MOV     DPH,?V0 + 1
   \   000181   A3           INC     DPTR
   \   000182   A3           INC     DPTR
   \   000183   A3           INC     DPTR
   \   000184   A3           INC     DPTR
   \   000185   A3           INC     DPTR
   \   000186   A3           INC     DPTR
   \   000187   A3           INC     DPTR
   \   000188   A3           INC     DPTR
   \   000189   A3           INC     DPTR
   \   00018A   A3           INC     DPTR
   \   00018B   E0           MOVX    A,@DPTR
   \   00018C   F8           MOV     R0,A
   \   00018D   A3           INC     DPTR
   \   00018E   E0           MOVX    A,@DPTR
   \   00018F   F9           MOV     R1,A
   \   000190   EE           MOV     A,R6
   \   000191   2412         ADD     A,#0x12
   \   000193   F582         MOV     DPL,A
   \   000195   EF           MOV     A,R7
   \   000196   3400         ADDC    A,#0x0
   \   000198   F583         MOV     DPH,A
   \   00019A   E8           MOV     A,R0
   \   00019B   F0           MOVX    @DPTR,A
   \   00019C   A3           INC     DPTR
   \   00019D   E9           MOV     A,R1
   \   00019E   F0           MOVX    @DPTR,A
    441            MSGpkt->srcAddr.panId = SrcPanId;
   \   00019F   741A         MOV     A,#0x1a
   \   0001A1   12....       LCALL   ?XSTACK_DISP0_8
   \   0001A4   E0           MOVX    A,@DPTR
   \   0001A5   F8           MOV     R0,A
   \   0001A6   A3           INC     DPTR
   \   0001A7   E0           MOVX    A,@DPTR
   \   0001A8   F9           MOV     R1,A
   \   0001A9   EE           MOV     A,R6
   \   0001AA   2410         ADD     A,#0x10
   \   0001AC   F582         MOV     DPL,A
   \   0001AE   EF           MOV     A,R7
   \   0001AF   3400         ADDC    A,#0x0
   \   0001B1   F583         MOV     DPH,A
   \   0001B3   E8           MOV     A,R0
   \   0001B4   F0           MOVX    @DPTR,A
   \   0001B5   A3           INC     DPTR
   \   0001B6   E9           MOV     A,R1
   \   0001B7   F0           MOVX    @DPTR,A
    442            MSGpkt->cmd.TransSeqNumber = 0;
   \   0001B8   EE           MOV     A,R6
   \   0001B9   241F         ADD     A,#0x1f
   \   0001BB   F582         MOV     DPL,A
   \   0001BD   EF           MOV     A,R7
   \   0001BE   3400         ADDC    A,#0x0
   \   0001C0   F583         MOV     DPH,A
   \   0001C2   7400         MOV     A,#0x0
   \   0001C4   F0           MOVX    @DPTR,A
    443            MSGpkt->cmd.DataLength = aff->asduLength;
   \   0001C5   E5..         MOV     A,?V0 + 0
   \   0001C7   2410         ADD     A,#0x10
   \   0001C9   F582         MOV     DPL,A
   \   0001CB   E5..         MOV     A,?V0 + 1
   \   0001CD   3400         ADDC    A,#0x0
   \   0001CF   F583         MOV     DPH,A
   \   0001D1   E0           MOVX    A,@DPTR
   \   0001D2   F8           MOV     R0,A
   \   0001D3   7900         MOV     R1,#0x0
   \   0001D5   EE           MOV     A,R6
   \   0001D6   2420         ADD     A,#0x20
   \   0001D8   F582         MOV     DPL,A
   \   0001DA   EF           MOV     A,R7
   \   0001DB   3400         ADDC    A,#0x0
   \   0001DD   F583         MOV     DPH,A
   \   0001DF   E8           MOV     A,R0
   \   0001E0   F0           MOVX    @DPTR,A
   \   0001E1   A3           INC     DPTR
   \   0001E2   E9           MOV     A,R1
   \   0001E3   F0           MOVX    @DPTR,A
    444          
    445            if ( MSGpkt->cmd.DataLength )
   \   0001E4   EE           MOV     A,R6
   \   0001E5   2420         ADD     A,#0x20
   \   0001E7   F582         MOV     DPL,A
   \   0001E9   EF           MOV     A,R7
   \   0001EA   3400         ADDC    A,#0x0
   \   0001EC   F583         MOV     DPH,A
   \   0001EE   E0           MOVX    A,@DPTR
   \   0001EF   F8           MOV     R0,A
   \   0001F0   A3           INC     DPTR
   \   0001F1   E0           MOVX    A,@DPTR
   \   0001F2   F9           MOV     R1,A
   \   0001F3   E8           MOV     A,R0
   \   0001F4   49           ORL     A,R1
   \   0001F5   604D         JZ      ??afBuildMSGIncoming_1
    446            {
    447              MSGpkt->cmd.Data = (uint8 *)(MSGpkt + 1);
   \   0001F7   EE           MOV     A,R6
   \   0001F8   2424         ADD     A,#0x24
   \   0001FA   F8           MOV     R0,A
   \   0001FB   EF           MOV     A,R7
   \   0001FC   3400         ADDC    A,#0x0
   \   0001FE   F9           MOV     R1,A
   \   0001FF   EE           MOV     A,R6
   \   000200   2422         ADD     A,#0x22
   \   000202   F582         MOV     DPL,A
   \   000204   EF           MOV     A,R7
   \   000205   3400         ADDC    A,#0x0
   \   000207   F583         MOV     DPH,A
   \   000209   E8           MOV     A,R0
   \   00020A   F0           MOVX    @DPTR,A
   \   00020B   A3           INC     DPTR
   \   00020C   E9           MOV     A,R1
   \   00020D   F0           MOVX    @DPTR,A
    448              osal_memcpy( MSGpkt->cmd.Data, asdu, MSGpkt->cmd.DataLength );
   \   00020E                ; Setup parameters for call to function osal_memcpy
   \   00020E   85....       MOV     ?V0 + 0,?V0 + 8
   \   000211   85....       MOV     ?V0 + 1,?V0 + 9
   \   000214   75..00       MOV     ?V0 + 2,#0x0
   \   000217   78..         MOV     R0,#?V0 + 0
   \   000219   12....       LCALL   ?PUSH_XSTACK_I_THREE
   \   00021C   EE           MOV     A,R6
   \   00021D   2420         ADD     A,#0x20
   \   00021F   F582         MOV     DPL,A
   \   000221   EF           MOV     A,R7
   \   000222   3400         ADDC    A,#0x0
   \   000224   F583         MOV     DPH,A
   \   000226   E0           MOVX    A,@DPTR
   \   000227   FC           MOV     R4,A
   \   000228   A3           INC     DPTR
   \   000229   E0           MOVX    A,@DPTR
   \   00022A   FD           MOV     R5,A
   \   00022B   EE           MOV     A,R6
   \   00022C   2422         ADD     A,#0x22
   \   00022E   F582         MOV     DPL,A
   \   000230   EF           MOV     A,R7
   \   000231   3400         ADDC    A,#0x0
   \   000233   F583         MOV     DPH,A
   \   000235   E0           MOVX    A,@DPTR
   \   000236   FA           MOV     R2,A
   \   000237   A3           INC     DPTR
   \   000238   E0           MOVX    A,@DPTR
   \   000239   FB           MOV     R3,A
   \   00023A   12....       LCALL   ??osal_memcpy?relay
   \   00023D   7403         MOV     A,#0x3
   \   00023F   12....       LCALL   ?DEALLOC_XSTACK8
   \   000242   8011         SJMP    ??afBuildMSGIncoming_2
    449            }
    450            else
    451            {
    452              MSGpkt->cmd.Data = NULL;
   \                     ??afBuildMSGIncoming_1:
   \   000244   EE           MOV     A,R6
   \   000245   2422         ADD     A,#0x22
   \   000247   F582         MOV     DPL,A
   \   000249   EF           MOV     A,R7
   \   00024A   3400         ADDC    A,#0x0
   \   00024C   F583         MOV     DPH,A
   \   00024E   7400         MOV     A,#0x0
   \   000250   F0           MOVX    @DPTR,A
   \   000251   A3           INC     DPTR
   \   000252   7400         MOV     A,#0x0
   \   000254   F0           MOVX    @DPTR,A
    453            }
    454          
    455          #if defined ( MT_AF_CB_FUNC )
    456            // If ZDO or SAPI have registered for this endpoint, dont intercept it here
    457            if (AFCB_CHECK(CB_ID_AF_DATA_IND, *(epDesc->task_id)))
    458            {
    459              MT_AfIncomingMsg( (void *)MSGpkt );
    460              // Release the memory.
    461              osal_msg_deallocate( (void *)MSGpkt );
    462            }
    463            else
    464          #endif
    465            {
    466              // Send message through task message.
    467              osal_msg_send( *(epDesc->task_id), (uint8 *)MSGpkt );
   \                     ??afBuildMSGIncoming_2:
   \   000255                ; Setup parameters for call to function osal_msg_send
   \   000255   EE           MOV     A,R6
   \   000256   FA           MOV     R2,A
   \   000257   EF           MOV     A,R7
   \   000258   FB           MOV     R3,A
   \   000259   85..82       MOV     DPL,?V0 + 10
   \   00025C   85..83       MOV     DPH,?V0 + 11
   \   00025F   A3           INC     DPTR
   \   000260   E0           MOVX    A,@DPTR
   \   000261   F8           MOV     R0,A
   \   000262   A3           INC     DPTR
   \   000263   E0           MOVX    A,@DPTR
   \   000264   F583         MOV     DPH,A
   \   000266   8882         MOV     DPL,R0
   \   000268   E0           MOVX    A,@DPTR
   \   000269   F9           MOV     R1,A
   \   00026A   12....       LCALL   ??osal_msg_send?relay
   \   00026D   E9           MOV     A,R1
    468            }
    469          }
   \                     ??afBuildMSGIncoming_0:
   \   00026E   7F10         MOV     R7,#0x10
   \   000270   02....       LJMP    ?BANKED_LEAVE_XDATA
    470          
    471          /*********************************************************************
    472           * @fn      AF_DataRequest
    473           *
    474           * @brief   Common functionality for invoking APSDE_DataReq() for both
    475           *          SendMulti and MSG-Send.
    476           *
    477           * input parameters
    478           *
    479           * @param  *dstAddr - Full ZB destination address: Nwk Addr + End Point.
    480           * @param  *srcEP - Origination (i.e. respond to or ack to) End Point Descr.
    481           * @param   cID - A valid cluster ID as specified by the Profile.
    482           * @param   len - Number of bytes of data pointed to by next param.
    483           * @param  *buf - A pointer to the data bytes to send.
    484           * @param  *transID - A pointer to a byte which can be modified and which will
    485           *                    be used as the transaction sequence number of the msg.
    486           * @param   options - Valid bit mask of Tx options.
    487           * @param   radius - Normally set to AF_DEFAULT_RADIUS.
    488           *
    489           * output parameters
    490           *
    491           * @param  *transID - Incremented by one if the return value is success.
    492           *
    493           * @return  afStatus_t - See previous definition of afStatus_... types.
    494           */

   \                                 In  segment XDATA_I, align 1, keep-with-next
    495          uint8 AF_DataRequestDiscoverRoute = TRUE;
   \                     AF_DataRequestDiscoverRoute:
   \   000000                DS 1
   \   000001                REQUIRE `?<Initializer for AF_DataRequestDiscoverRoute>`
   \   000001                REQUIRE __INIT_XDATA_I

   \                                 In  segment BANKED_CODE, align 1, keep-with-next
    496          afStatus_t AF_DataRequest( afAddrType_t *dstAddr, endPointDesc_t *srcEP,
   \                     AF_DataRequest:
    497                                     uint16 cID, uint16 len, uint8 *buf, uint8 *transID,
    498                                     uint8 options, uint8 radius )
    499          {
   \   000000   74EA         MOV     A,#-0x16
   \   000002   12....       LCALL   ?BANKED_ENTER_XDATA
   \   000005                ; Saved register size: 22
   \   000005                ; Auto size: 30
   \   000005   74E2         MOV     A,#-0x1e
   \   000007   12....       LCALL   ?ALLOC_XSTACK8
   \   00000A   EA           MOV     A,R2
   \   00000B   FE           MOV     R6,A
   \   00000C   EB           MOV     A,R3
   \   00000D   FF           MOV     R7,A
   \   00000E   8C..         MOV     ?V0 + 0,R4
   \   000010   8D..         MOV     ?V0 + 1,R5
   \   000012   89..         MOV     ?V0 + 2,R1
   \   000014   7434         MOV     A,#0x34
   \   000016   12....       LCALL   ?XSTACK_DISP0_8
   \   000019   E0           MOVX    A,@DPTR
   \   00001A   F5..         MOV     ?V0 + 8,A
   \   00001C   A3           INC     DPTR
   \   00001D   E0           MOVX    A,@DPTR
   \   00001E   F5..         MOV     ?V0 + 9,A
   \   000020   7436         MOV     A,#0x36
   \   000022   12....       LCALL   ?XSTACK_DISP0_8
   \   000025   E0           MOVX    A,@DPTR
   \   000026   F5..         MOV     ?V0 + 6,A
   \   000028   A3           INC     DPTR
   \   000029   E0           MOVX    A,@DPTR
   \   00002A   F5..         MOV     ?V0 + 7,A
   \   00002C   7438         MOV     A,#0x38
   \   00002E   12....       LCALL   ?XSTACK_DISP0_8
   \   000031   E0           MOVX    A,@DPTR
   \   000032   F5..         MOV     ?V0 + 12,A
   \   000034   A3           INC     DPTR
   \   000035   E0           MOVX    A,@DPTR
   \   000036   F5..         MOV     ?V0 + 13,A
   \   000038   743A         MOV     A,#0x3a
   \   00003A   12....       LCALL   ?XSTACK_DISP0_8
   \   00003D   E0           MOVX    A,@DPTR
   \   00003E   F5..         MOV     ?V0 + 4,A
   \   000040   A3           INC     DPTR
   \   000041   E0           MOVX    A,@DPTR
   \   000042   F5..         MOV     ?V0 + 5,A
   \   000044   743C         MOV     A,#0x3c
   \   000046   12....       LCALL   ?XSTACK_DISP0_8
   \   000049   E0           MOVX    A,@DPTR
   \   00004A   F5..         MOV     ?V0 + 3,A
    500            pDescCB pfnDescCB;
    501            ZStatus_t stat;
    502            APSDE_DataReq_t req;
    503            afDataReqMTU_t mtu;
    504          
    505            // Verify source end point
    506            if ( srcEP == NULL )
   \   00004C   E5..         MOV     A,?V0 + 0
   \   00004E   45..         ORL     A,?V0 + 1
   \   000050   7005         JNZ     ??AF_DataRequest_0
    507            {
    508              return afStatus_INVALID_PARAMETER;
   \   000052   7902         MOV     R1,#0x2
   \   000054   02....       LJMP    ??AF_DataRequest_1 & 0xFFFF
    509            }
    510          
    511          #if !defined( REFLECTOR )
    512            if ( dstAddr->addrMode == afAddrNotPresent )
    513            {
    514              return afStatus_INVALID_PARAMETER;
    515            }
    516          #endif
    517          
    518            // Check if route is available before sending data
    519            if ( options & AF_LIMIT_CONCENTRATOR  )
   \                     ??AF_DataRequest_0:
   \   000057   E5..         MOV     A,?V0 + 2
   \   000059   A2E3         MOV     C,0xE0 /* A   */.3
   \   00005B   504C         JNC     ??AF_DataRequest_2
    520            {
    521              if ( dstAddr->addrMode != afAddr16Bit )
   \   00005D   8E82         MOV     DPL,R6
   \   00005F   8F83         MOV     DPH,R7
   \   000061   A3           INC     DPTR
   \   000062   A3           INC     DPTR
   \   000063   A3           INC     DPTR
   \   000064   A3           INC     DPTR
   \   000065   A3           INC     DPTR
   \   000066   A3           INC     DPTR
   \   000067   A3           INC     DPTR
   \   000068   A3           INC     DPTR
   \   000069   E0           MOVX    A,@DPTR
   \   00006A   6402         XRL     A,#0x2
   \   00006C   6005         JZ      ??AF_DataRequest_3
    522              {
    523                return ( afStatus_INVALID_PARAMETER );
   \   00006E   7902         MOV     R1,#0x2
   \   000070   02....       LJMP    ??AF_DataRequest_1 & 0xFFFF
    524              }
    525          
    526              // First, make sure the destination is not its self, then check for an existing route.
    527              if ( (dstAddr->addr.shortAddr != NLME_GetShortAddr())
    528                  && (RTG_CheckRtStatus( dstAddr->addr.shortAddr, RT_ACTIVE, (MTO_ROUTE | NO_ROUTE_CACHE) ) != RTG_SUCCESS) )
   \                     ??AF_DataRequest_3:
   \   000073   8E82         MOV     DPL,R6
   \   000075   8F83         MOV     DPH,R7
   \   000077   C082         PUSH    DPL
   \   000079   C083         PUSH    DPH
   \   00007B                ; Setup parameters for call to function NLME_GetShortAddr
   \   00007B   12....       LCALL   ??NLME_GetShortAddr?relay
   \   00007E   8A..         MOV     ?V0 + 10,R2
   \   000080   8B..         MOV     ?V0 + 11,R3
   \   000082   D083         POP     DPH
   \   000084   D082         POP     DPL
   \   000086   E0           MOVX    A,@DPTR
   \   000087   65..         XRL     A,?V0 + 10
   \   000089   7004         JNZ     ??AF_DataRequest_4
   \   00008B   A3           INC     DPTR
   \   00008C   E0           MOVX    A,@DPTR
   \   00008D   65..         XRL     A,?V0 + 11
   \                     ??AF_DataRequest_4:
   \   00008F   6018         JZ      ??AF_DataRequest_2
   \   000091                ; Setup parameters for call to function RTG_CheckRtStatus
   \   000091   7C03         MOV     R4,#0x3
   \   000093   7901         MOV     R1,#0x1
   \   000095   8E82         MOV     DPL,R6
   \   000097   8F83         MOV     DPH,R7
   \   000099   E0           MOVX    A,@DPTR
   \   00009A   FA           MOV     R2,A
   \   00009B   A3           INC     DPTR
   \   00009C   E0           MOVX    A,@DPTR
   \   00009D   FB           MOV     R3,A
   \   00009E   12....       LCALL   ??RTG_CheckRtStatus?relay
   \   0000A1   E9           MOV     A,R1
   \   0000A2   6005         JZ      ??AF_DataRequest_2
    529              {
    530                // A valid route to a concentrator wasn't found
    531                return ( afStatus_NO_ROUTE );
   \   0000A4   79CD         MOV     R1,#-0x33
   \   0000A6   02....       LJMP    ??AF_DataRequest_1 & 0xFFFF
    532              }
    533            }
    534          
    535            // Validate broadcasting
    536            if ( ( dstAddr->addrMode == afAddr16Bit     ) ||
    537                 ( dstAddr->addrMode == afAddrBroadcast )    )
   \                     ??AF_DataRequest_2:
   \   0000A9   8E82         MOV     DPL,R6
   \   0000AB   8F83         MOV     DPH,R7
   \   0000AD   A3           INC     DPTR
   \   0000AE   A3           INC     DPTR
   \   0000AF   A3           INC     DPTR
   \   0000B0   A3           INC     DPTR
   \   0000B1   A3           INC     DPTR
   \   0000B2   A3           INC     DPTR
   \   0000B3   A3           INC     DPTR
   \   0000B4   A3           INC     DPTR
   \   0000B5   E0           MOVX    A,@DPTR
   \   0000B6   6402         XRL     A,#0x2
   \   0000B8   6011         JZ      ??AF_DataRequest_5
   \   0000BA   8E82         MOV     DPL,R6
   \   0000BC   8F83         MOV     DPH,R7
   \   0000BE   A3           INC     DPTR
   \   0000BF   A3           INC     DPTR
   \   0000C0   A3           INC     DPTR
   \   0000C1   A3           INC     DPTR
   \   0000C2   A3           INC     DPTR
   \   0000C3   A3           INC     DPTR
   \   0000C4   A3           INC     DPTR
   \   0000C5   A3           INC     DPTR
   \   0000C6   E0           MOVX    A,@DPTR
   \   0000C7   640F         XRL     A,#0xf
   \   0000C9   706E         JNZ     ??AF_DataRequest_6
    538            {
    539              // Check for valid broadcast values
    540              if( ADDR_NOT_BCAST != NLME_IsAddressBroadcast( dstAddr->addr.shortAddr )  )
   \                     ??AF_DataRequest_5:
   \   0000CB                ; Setup parameters for call to function NLME_IsAddressBroadcast
   \   0000CB   8E82         MOV     DPL,R6
   \   0000CD   8F83         MOV     DPH,R7
   \   0000CF   E0           MOVX    A,@DPTR
   \   0000D0   FA           MOV     R2,A
   \   0000D1   A3           INC     DPTR
   \   0000D2   E0           MOVX    A,@DPTR
   \   0000D3   FB           MOV     R3,A
   \   0000D4   12....       LCALL   ??NLME_IsAddressBroadcast?relay
   \   0000D7   E9           MOV     A,R1
   \   0000D8   6049         JZ      ??AF_DataRequest_7
    541              {
    542                // Force mode to broadcast
    543                dstAddr->addrMode = afAddrBroadcast;
   \   0000DA   8E82         MOV     DPL,R6
   \   0000DC   8F83         MOV     DPH,R7
   \   0000DE   A3           INC     DPTR
   \   0000DF   A3           INC     DPTR
   \   0000E0   A3           INC     DPTR
   \   0000E1   A3           INC     DPTR
   \   0000E2   A3           INC     DPTR
   \   0000E3   A3           INC     DPTR
   \   0000E4   A3           INC     DPTR
   \   0000E5   A3           INC     DPTR
   \   0000E6   740F         MOV     A,#0xf
   \   0000E8   F0           MOVX    @DPTR,A
    544              }
    545              else
    546              {
    547                // Address is not a valid broadcast type
    548                if ( dstAddr->addrMode == afAddrBroadcast )
    549                {
    550                  return afStatus_INVALID_PARAMETER;
    551                }
    552              }
    553            }
    554            else if ( dstAddr->addrMode != afAddr64Bit &&
    555                      dstAddr->addrMode != afAddrGroup &&
    556                      dstAddr->addrMode != afAddrNotPresent )
    557            {
    558              return afStatus_INVALID_PARAMETER;
    559            }
    560          
    561            // Set destination address
    562            req.dstAddr.addrMode = dstAddr->addrMode;
   \                     ??AF_DataRequest_8:
   \   0000E9   8E82         MOV     DPL,R6
   \   0000EB   8F83         MOV     DPH,R7
   \   0000ED   A3           INC     DPTR
   \   0000EE   A3           INC     DPTR
   \   0000EF   A3           INC     DPTR
   \   0000F0   A3           INC     DPTR
   \   0000F1   A3           INC     DPTR
   \   0000F2   A3           INC     DPTR
   \   0000F3   A3           INC     DPTR
   \   0000F4   A3           INC     DPTR
   \   0000F5   E0           MOVX    A,@DPTR
   \   0000F6   C0E0         PUSH    A
   \   0000F8   740A         MOV     A,#0xa
   \   0000FA   12....       LCALL   ?XSTACK_DISP0_8
   \   0000FD   D0E0         POP     A
   \   0000FF   F0           MOVX    @DPTR,A
    563            if ( dstAddr->addrMode == afAddr64Bit )
   \   000100   8E82         MOV     DPL,R6
   \   000102   8F83         MOV     DPH,R7
   \   000104   A3           INC     DPTR
   \   000105   A3           INC     DPTR
   \   000106   A3           INC     DPTR
   \   000107   A3           INC     DPTR
   \   000108   A3           INC     DPTR
   \   000109   A3           INC     DPTR
   \   00010A   A3           INC     DPTR
   \   00010B   A3           INC     DPTR
   \   00010C   E0           MOVX    A,@DPTR
   \   00010D   6403         XRL     A,#0x3
   \   00010F   7061         JNZ     ??AF_DataRequest_9
    564              osal_cpyExtAddr( req.dstAddr.addr.extAddr, dstAddr->addr.extAddr );
   \   000111                ; Setup parameters for call to function sAddrExtCpy
   \   000111   EE           MOV     A,R6
   \   000112   FC           MOV     R4,A
   \   000113   EF           MOV     A,R7
   \   000114   FD           MOV     R5,A
   \   000115   7402         MOV     A,#0x2
   \   000117   12....       LCALL   ?XSTACK_DISP0_8
   \   00011A   AA82         MOV     R2,DPL
   \   00011C   AB83         MOV     R3,DPH
   \   00011E   12....       LCALL   ??sAddrExtCpy?relay
   \   000121   8062         SJMP    ??AF_DataRequest_10
   \                     ??AF_DataRequest_7:
   \   000123   8E82         MOV     DPL,R6
   \   000125   8F83         MOV     DPH,R7
   \   000127   A3           INC     DPTR
   \   000128   A3           INC     DPTR
   \   000129   A3           INC     DPTR
   \   00012A   A3           INC     DPTR
   \   00012B   A3           INC     DPTR
   \   00012C   A3           INC     DPTR
   \   00012D   A3           INC     DPTR
   \   00012E   A3           INC     DPTR
   \   00012F   E0           MOVX    A,@DPTR
   \   000130   640F         XRL     A,#0xf
   \   000132   70B5         JNZ     ??AF_DataRequest_8
   \   000134   7902         MOV     R1,#0x2
   \   000136   02....       LJMP    ??AF_DataRequest_1 & 0xFFFF
   \                     ??AF_DataRequest_6:
   \   000139   8E82         MOV     DPL,R6
   \   00013B   8F83         MOV     DPH,R7
   \   00013D   A3           INC     DPTR
   \   00013E   A3           INC     DPTR
   \   00013F   A3           INC     DPTR
   \   000140   A3           INC     DPTR
   \   000141   A3           INC     DPTR
   \   000142   A3           INC     DPTR
   \   000143   A3           INC     DPTR
   \   000144   A3           INC     DPTR
   \   000145   E0           MOVX    A,@DPTR
   \   000146   6403         XRL     A,#0x3
   \   000148   609F         JZ      ??AF_DataRequest_8
   \   00014A   8E82         MOV     DPL,R6
   \   00014C   8F83         MOV     DPH,R7
   \   00014E   A3           INC     DPTR
   \   00014F   A3           INC     DPTR
   \   000150   A3           INC     DPTR
   \   000151   A3           INC     DPTR
   \   000152   A3           INC     DPTR
   \   000153   A3           INC     DPTR
   \   000154   A3           INC     DPTR
   \   000155   A3           INC     DPTR
   \   000156   E0           MOVX    A,@DPTR
   \   000157   6401         XRL     A,#0x1
   \   000159   608E         JZ      ??AF_DataRequest_8
   \   00015B   8E82         MOV     DPL,R6
   \   00015D   8F83         MOV     DPH,R7
   \   00015F   A3           INC     DPTR
   \   000160   A3           INC     DPTR
   \   000161   A3           INC     DPTR
   \   000162   A3           INC     DPTR
   \   000163   A3           INC     DPTR
   \   000164   A3           INC     DPTR
   \   000165   A3           INC     DPTR
   \   000166   A3           INC     DPTR
   \   000167   E0           MOVX    A,@DPTR
   \   000168   7003         JNZ     $+5
   \   00016A   02....       LJMP    ??AF_DataRequest_8 & 0xFFFF
   \   00016D   7902         MOV     R1,#0x2
   \   00016F   02....       LJMP    ??AF_DataRequest_1 & 0xFFFF
    565            else
    566              req.dstAddr.addr.shortAddr = dstAddr->addr.shortAddr;
   \                     ??AF_DataRequest_9:
   \   000172   8E82         MOV     DPL,R6
   \   000174   8F83         MOV     DPH,R7
   \   000176   E0           MOVX    A,@DPTR
   \   000177   F8           MOV     R0,A
   \   000178   A3           INC     DPTR
   \   000179   E0           MOVX    A,@DPTR
   \   00017A   F9           MOV     R1,A
   \   00017B   7402         MOV     A,#0x2
   \   00017D   12....       LCALL   ?XSTACK_DISP0_8
   \   000180   E8           MOV     A,R0
   \   000181   F0           MOVX    @DPTR,A
   \   000182   A3           INC     DPTR
   \   000183   E9           MOV     A,R1
   \   000184   F0           MOVX    @DPTR,A
    567          
    568            req.profileID = ZDO_PROFILE_ID;
   \                     ??AF_DataRequest_10:
   \   000185   7411         MOV     A,#0x11
   \   000187   12....       LCALL   ?XSTACK_DISP0_8
   \   00018A   7400         MOV     A,#0x0
   \   00018C   F0           MOVX    @DPTR,A
   \   00018D   A3           INC     DPTR
   \   00018E   7400         MOV     A,#0x0
   \   000190   F0           MOVX    @DPTR,A
    569          
    570            if ( (pfnDescCB = afGetDescCB( srcEP )) )
   \   000191                ; Setup parameters for call to function afGetDescCB
   \   000191   AA..         MOV     R2,?V0 + 0
   \   000193   AB..         MOV     R3,?V0 + 1
   \   000195   12....       LCALL   ??afGetDescCB?relay
   \   000198   8A..         MOV     ?V0 + 10,R2
   \   00019A   8B..         MOV     ?V0 + 11,R3
   \   00019C   A8..         MOV     R0,?V0 + 10
   \   00019E   A9..         MOV     R1,?V0 + 11
   \   0001A0   E8           MOV     A,R0
   \   0001A1   FC           MOV     R4,A
   \   0001A2   E9           MOV     A,R1
   \   0001A3   FD           MOV     R5,A
   \   0001A4   E8           MOV     A,R0
   \   0001A5   49           ORL     A,R1
   \   0001A6   6035         JZ      ??AF_DataRequest_11
    571            {
    572              uint16 *pID = (uint16 *)(pfnDescCB(
    573                                           AF_DESCRIPTOR_PROFILE_ID, srcEP->endPoint ));
   \   0001A8                ; Setup parameters for indirect call
   \   0001A8   85..82       MOV     DPL,?V0 + 0
   \   0001AB   85..83       MOV     DPH,?V0 + 1
   \   0001AE   E0           MOVX    A,@DPTR
   \   0001AF   FA           MOV     R2,A
   \   0001B0   7902         MOV     R1,#0x2
   \   0001B2   8C82         MOV     DPL,R4
   \   0001B4   8D83         MOV     DPH,R5
   \   0001B6   12....       LCALL   ?CALL_IND
   \   0001B9   8A..         MOV     ?V0 + 10,R2
   \   0001BB   8B..         MOV     ?V0 + 11,R3
   \   0001BD   AA..         MOV     R2,?V0 + 10
   \   0001BF   AB..         MOV     R3,?V0 + 11
    574              if ( pID )
   \   0001C1   EA           MOV     A,R2
   \   0001C2   4B           ORL     A,R3
   \   0001C3   604B         JZ      ??AF_DataRequest_12
    575              {
    576                req.profileID = *pID;
   \   0001C5   8A82         MOV     DPL,R2
   \   0001C7   8B83         MOV     DPH,R3
   \   0001C9   E0           MOVX    A,@DPTR
   \   0001CA   F8           MOV     R0,A
   \   0001CB   A3           INC     DPTR
   \   0001CC   E0           MOVX    A,@DPTR
   \   0001CD   F9           MOV     R1,A
   \   0001CE   7411         MOV     A,#0x11
   \   0001D0   12....       LCALL   ?XSTACK_DISP0_8
   \   0001D3   E8           MOV     A,R0
   \   0001D4   F0           MOVX    @DPTR,A
   \   0001D5   A3           INC     DPTR
   \   0001D6   E9           MOV     A,R1
   \   0001D7   F0           MOVX    @DPTR,A
    577                osal_mem_free( pID );
   \   0001D8                ; Setup parameters for call to function osal_mem_free
   \   0001D8   12....       LCALL   ??osal_mem_free?relay
   \   0001DB   8033         SJMP    ??AF_DataRequest_12
    578              }
    579            }
    580            else if ( srcEP->simpleDesc )
   \                     ??AF_DataRequest_11:
   \   0001DD   85..82       MOV     DPL,?V0 + 0
   \   0001E0   85..83       MOV     DPH,?V0 + 1
   \   0001E3   A3           INC     DPTR
   \   0001E4   A3           INC     DPTR
   \   0001E5   A3           INC     DPTR
   \   0001E6   E0           MOVX    A,@DPTR
   \   0001E7   F8           MOV     R0,A
   \   0001E8   A3           INC     DPTR
   \   0001E9   E0           MOVX    A,@DPTR
   \   0001EA   F9           MOV     R1,A
   \   0001EB   E8           MOV     A,R0
   \   0001EC   49           ORL     A,R1
   \   0001ED   6021         JZ      ??AF_DataRequest_12
    581            {
    582              req.profileID = srcEP->simpleDesc->AppProfId;
   \   0001EF   85..82       MOV     DPL,?V0 + 0
   \   0001F2   85..83       MOV     DPH,?V0 + 1
   \   0001F5   A3           INC     DPTR
   \   0001F6   A3           INC     DPTR
   \   0001F7   A3           INC     DPTR
   \   0001F8   E0           MOVX    A,@DPTR
   \   0001F9   F8           MOV     R0,A
   \   0001FA   A3           INC     DPTR
   \   0001FB   E0           MOVX    A,@DPTR
   \   0001FC   F583         MOV     DPH,A
   \   0001FE   8882         MOV     DPL,R0
   \   000200   A3           INC     DPTR
   \   000201   E0           MOVX    A,@DPTR
   \   000202   F8           MOV     R0,A
   \   000203   A3           INC     DPTR
   \   000204   E0           MOVX    A,@DPTR
   \   000205   F9           MOV     R1,A
   \   000206   7411         MOV     A,#0x11
   \   000208   12....       LCALL   ?XSTACK_DISP0_8
   \   00020B   E8           MOV     A,R0
   \   00020C   F0           MOVX    @DPTR,A
   \   00020D   A3           INC     DPTR
   \   00020E   E9           MOV     A,R1
   \   00020F   F0           MOVX    @DPTR,A
    583            }
    584          
    585            req.txOptions = 0;
   \                     ??AF_DataRequest_12:
   \   000210   7417         MOV     A,#0x17
   \   000212   12....       LCALL   ?XSTACK_DISP0_8
   \   000215   7400         MOV     A,#0x0
   \   000217   F0           MOVX    @DPTR,A
   \   000218   A3           INC     DPTR
   \   000219   7400         MOV     A,#0x0
   \   00021B   F0           MOVX    @DPTR,A
    586          
    587            if ( ( options & AF_ACK_REQUEST              ) &&
    588                 ( req.dstAddr.addrMode != AddrBroadcast ) &&
    589                 ( req.dstAddr.addrMode != AddrGroup     )    )
   \   00021C   E5..         MOV     A,?V0 + 2
   \   00021E   A2E4         MOV     C,0xE0 /* A   */.4
   \   000220   5022         JNC     ??AF_DataRequest_13
   \   000222   740A         MOV     A,#0xa
   \   000224   12....       LCALL   ?XSTACK_DISP0_8
   \   000227   E0           MOVX    A,@DPTR
   \   000228   640F         XRL     A,#0xf
   \   00022A   6018         JZ      ??AF_DataRequest_13
   \   00022C   740A         MOV     A,#0xa
   \   00022E   12....       LCALL   ?XSTACK_DISP0_8
   \   000231   E0           MOVX    A,@DPTR
   \   000232   6401         XRL     A,#0x1
   \   000234   600E         JZ      ??AF_DataRequest_13
    590            {
    591              req.txOptions |=  APS_TX_OPTIONS_ACK;
   \   000236   7417         MOV     A,#0x17
   \   000238   12....       LCALL   ?XSTACK_DISP0_8
   \   00023B   E0           MOVX    A,@DPTR
   \   00023C   4404         ORL     A,#0x4
   \   00023E   F0           MOVX    @DPTR,A
   \   00023F   A3           INC     DPTR
   \   000240   E0           MOVX    A,@DPTR
   \   000241   4400         ORL     A,#0x0
   \   000243   F0           MOVX    @DPTR,A
    592            }
    593          
    594            if ( options & AF_SKIP_ROUTING )
   \                     ??AF_DataRequest_13:
   \   000244   E5..         MOV     A,?V0 + 2
   \   000246   A2E7         MOV     C,0xE0 /* A   */.7
   \   000248   500E         JNC     ??AF_DataRequest_14
    595            {
    596              req.txOptions |=  APS_TX_OPTIONS_SKIP_ROUTING;
   \   00024A   7417         MOV     A,#0x17
   \   00024C   12....       LCALL   ?XSTACK_DISP0_8
   \   00024F   E0           MOVX    A,@DPTR
   \   000250   4410         ORL     A,#0x10
   \   000252   F0           MOVX    @DPTR,A
   \   000253   A3           INC     DPTR
   \   000254   E0           MOVX    A,@DPTR
   \   000255   4400         ORL     A,#0x0
   \   000257   F0           MOVX    @DPTR,A
    597            }
    598          
    599            if ( options & AF_EN_SECURITY )
   \                     ??AF_DataRequest_14:
   \   000258   E5..         MOV     A,?V0 + 2
   \   00025A   A2E6         MOV     C,0xE0 /* A   */.6
   \   00025C   5018         JNC     ??AF_DataRequest_15
    600            {
    601              req.txOptions |= APS_TX_OPTIONS_SECURITY_ENABLE;
   \   00025E   7417         MOV     A,#0x17
   \   000260   12....       LCALL   ?XSTACK_DISP0_8
   \   000263   E0           MOVX    A,@DPTR
   \   000264   4401         ORL     A,#0x1
   \   000266   F0           MOVX    @DPTR,A
   \   000267   A3           INC     DPTR
   \   000268   E0           MOVX    A,@DPTR
   \   000269   4400         ORL     A,#0x0
   \   00026B   F0           MOVX    @DPTR,A
    602              mtu.aps.secure = TRUE;
   \   00026C   7401         MOV     A,#0x1
   \   00026E   12....       LCALL   ?XSTACK_DISP0_8
   \   000271   7401         MOV     A,#0x1
   \   000273   F0           MOVX    @DPTR,A
   \   000274   8008         SJMP    ??AF_DataRequest_16
    603            }
    604            else
    605            {
    606              mtu.aps.secure = FALSE;
   \                     ??AF_DataRequest_15:
   \   000276   7401         MOV     A,#0x1
   \   000278   12....       LCALL   ?XSTACK_DISP0_8
   \   00027B   7400         MOV     A,#0x0
   \   00027D   F0           MOVX    @DPTR,A
    607            }
    608          
    609            if ( options & AF_PREPROCESS )
   \                     ??AF_DataRequest_16:
   \   00027E   E5..         MOV     A,?V0 + 2
   \   000280   A2E2         MOV     C,0xE0 /* A   */.2
   \   000282   500E         JNC     ??AF_DataRequest_17
    610            {
    611              req.txOptions |=  APS_TX_OPTIONS_PREPROCESS;
   \   000284   7417         MOV     A,#0x17
   \   000286   12....       LCALL   ?XSTACK_DISP0_8
   \   000289   E0           MOVX    A,@DPTR
   \   00028A   4440         ORL     A,#0x40
   \   00028C   F0           MOVX    @DPTR,A
   \   00028D   A3           INC     DPTR
   \   00028E   E0           MOVX    A,@DPTR
   \   00028F   4400         ORL     A,#0x0
   \   000291   F0           MOVX    @DPTR,A
    612            }
    613          
    614            mtu.kvp = FALSE;
   \                     ??AF_DataRequest_17:
   \   000292   85..82       MOV     DPL,?XSP + 0
   \   000295   85..83       MOV     DPH,?XSP + 1
   \   000298   7400         MOV     A,#0x0
   \   00029A   F0           MOVX    @DPTR,A
    615          
    616            req.transID       = *transID;
   \   00029B   85..82       MOV     DPL,?V0 + 4
   \   00029E   85..83       MOV     DPH,?V0 + 5
   \   0002A1   E0           MOVX    A,@DPTR
   \   0002A2   C0E0         PUSH    A
   \   0002A4   7419         MOV     A,#0x19
   \   0002A6   12....       LCALL   ?XSTACK_DISP0_8
   \   0002A9   D0E0         POP     A
   \   0002AB   F0           MOVX    @DPTR,A
    617            req.srcEP         = srcEP->endPoint;
   \   0002AC   85..82       MOV     DPL,?V0 + 0
   \   0002AF   85..83       MOV     DPH,?V0 + 1
   \   0002B2   E0           MOVX    A,@DPTR
   \   0002B3   C0E0         PUSH    A
   \   0002B5   740B         MOV     A,#0xb
   \   0002B7   12....       LCALL   ?XSTACK_DISP0_8
   \   0002BA   D0E0         POP     A
   \   0002BC   F0           MOVX    @DPTR,A
    618            req.dstEP         = dstAddr->endPoint;
   \   0002BD   8E82         MOV     DPL,R6
   \   0002BF   8F83         MOV     DPH,R7
   \   0002C1   A3           INC     DPTR
   \   0002C2   A3           INC     DPTR
   \   0002C3   A3           INC     DPTR
   \   0002C4   A3           INC     DPTR
   \   0002C5   A3           INC     DPTR
   \   0002C6   A3           INC     DPTR
   \   0002C7   A3           INC     DPTR
   \   0002C8   A3           INC     DPTR
   \   0002C9   A3           INC     DPTR
   \   0002CA   E0           MOVX    A,@DPTR
   \   0002CB   C0E0         PUSH    A
   \   0002CD   740C         MOV     A,#0xc
   \   0002CF   12....       LCALL   ?XSTACK_DISP0_8
   \   0002D2   D0E0         POP     A
   \   0002D4   F0           MOVX    @DPTR,A
    619            req.clusterID     = cID;
   \   0002D5   740F         MOV     A,#0xf
   \   0002D7   12....       LCALL   ?XSTACK_DISP0_8
   \   0002DA   E5..         MOV     A,?V0 + 8
   \   0002DC   F0           MOVX    @DPTR,A
   \   0002DD   A3           INC     DPTR
   \   0002DE   E5..         MOV     A,?V0 + 9
   \   0002E0   F0           MOVX    @DPTR,A
    620            req.asduLen       = len;
   \   0002E1   7413         MOV     A,#0x13
   \   0002E3   12....       LCALL   ?XSTACK_DISP0_8
   \   0002E6   E5..         MOV     A,?V0 + 6
   \   0002E8   F0           MOVX    @DPTR,A
   \   0002E9   A3           INC     DPTR
   \   0002EA   E5..         MOV     A,?V0 + 7
   \   0002EC   F0           MOVX    @DPTR,A
    621            req.asdu          = buf;
   \   0002ED   7415         MOV     A,#0x15
   \   0002EF   12....       LCALL   ?XSTACK_DISP0_8
   \   0002F2   E5..         MOV     A,?V0 + 12
   \   0002F4   F0           MOVX    @DPTR,A
   \   0002F5   A3           INC     DPTR
   \   0002F6   E5..         MOV     A,?V0 + 13
   \   0002F8   F0           MOVX    @DPTR,A
    622            req.discoverRoute = AF_DataRequestDiscoverRoute;//(uint8)((options & AF_DISCV_ROUTE) ? 1 : 0);
   \   0002F9   90....       MOV     DPTR,#AF_DataRequestDiscoverRoute
   \   0002FC   E0           MOVX    A,@DPTR
   \   0002FD   C0E0         PUSH    A
   \   0002FF   741A         MOV     A,#0x1a
   \   000301   12....       LCALL   ?XSTACK_DISP0_8
   \   000304   D0E0         POP     A
   \   000306   F0           MOVX    @DPTR,A
    623            req.radiusCounter = radius;
   \   000307   E5..         MOV     A,?V0 + 3
   \   000309   741B         MOV     A,#0x1b
   \   00030B   12....       LCALL   ?XSTACK_DISP0_8
   \   00030E   E5..         MOV     A,?V0 + 3
   \   000310   F0           MOVX    @DPTR,A
    624          #if defined ( INTER_PAN )
    625            req.dstPanId      = dstAddr->panId;
    626          
    627            if ( StubAPS_InterPan( dstAddr->panId, dstAddr->endPoint ) )
    628            {
    629              if ( len > INTERP_DataReqMTU() )
    630              {
    631                stat = afStatus_INVALID_PARAMETER;
    632              }
    633              else
    634              {
    635                stat = INTERP_DataReq( &req );
    636              }
    637            }
    638            else
    639          #endif // INTER_PAN
    640            {
    641              if (len > afDataReqMTU( &mtu ) )
   \   000311                ; Setup parameters for call to function afDataReqMTU
   \   000311   85..82       MOV     DPL,?XSP + 0
   \   000314   85..83       MOV     DPH,?XSP + 1
   \   000317   AA82         MOV     R2,DPL
   \   000319   AB83         MOV     R3,DPH
   \   00031B   12....       LCALL   ??afDataReqMTU?relay
   \   00031E   E9           MOV     A,R1
   \   00031F   F8           MOV     R0,A
   \   000320   7900         MOV     R1,#0x0
   \   000322   C3           CLR     C
   \   000323   95..         SUBB    A,?V0 + 6
   \   000325   E9           MOV     A,R1
   \   000326   95..         SUBB    A,?V0 + 7
   \   000328   502B         JNC     ??AF_DataRequest_18
    642              {
    643                if (apsfSendFragmented)
   \   00032A   90....       MOV     DPTR,#apsfSendFragmented
   \   00032D   E0           MOVX    A,@DPTR
   \   00032E   F8           MOV     R0,A
   \   00032F   A3           INC     DPTR
   \   000330   E0           MOVX    A,@DPTR
   \   000331   F9           MOV     R1,A
   \   000332   E8           MOV     A,R0
   \   000333   49           ORL     A,R1
   \   000334   601B         JZ      ??AF_DataRequest_19
    644                {
    645                  stat = (*apsfSendFragmented)( &req );
   \   000336                ; Setup parameters for indirect call
   \   000336   7402         MOV     A,#0x2
   \   000338   12....       LCALL   ?XSTACK_DISP0_8
   \   00033B   AA82         MOV     R2,DPL
   \   00033D   AB83         MOV     R3,DPH
   \   00033F   90....       MOV     DPTR,#apsfSendFragmented
   \   000342   E0           MOVX    A,@DPTR
   \   000343   F8           MOV     R0,A
   \   000344   A3           INC     DPTR
   \   000345   E0           MOVX    A,@DPTR
   \   000346   F583         MOV     DPH,A
   \   000348   8882         MOV     DPL,R0
   \   00034A   12....       LCALL   ?CALL_IND
   \   00034D   E9           MOV     A,R1
   \   00034E   FE           MOV     R6,A
   \   00034F   8012         SJMP    ??AF_DataRequest_20
    646                }
    647                else
    648                {
    649                  stat = afStatus_INVALID_PARAMETER;
   \                     ??AF_DataRequest_19:
   \   000351   7E02         MOV     R6,#0x2
   \   000353   800E         SJMP    ??AF_DataRequest_20
    650                }
    651              }
    652              else
    653              {
    654                stat = APSDE_DataReq( &req );
   \                     ??AF_DataRequest_18:
   \   000355                ; Setup parameters for call to function APSDE_DataReq
   \   000355   7402         MOV     A,#0x2
   \   000357   12....       LCALL   ?XSTACK_DISP0_8
   \   00035A   AA82         MOV     R2,DPL
   \   00035C   AB83         MOV     R3,DPH
   \   00035E   12....       LCALL   ??APSDE_DataReq?relay
   \   000361   E9           MOV     A,R1
   \   000362   FE           MOV     R6,A
    655              }
    656            }
    657          
    658            /*
    659             * If this is an EndPoint-to-EndPoint message on the same device, it will not
    660             * get added to the NWK databufs. So it will not go OTA and it will not get
    661             * a MACCB_DATA_CONFIRM_CMD callback. Thus it is necessary to generate the
    662             * AF_DATA_CONFIRM_CMD here. Note that APSDE_DataConfirm() only generates one
    663             * message with the first in line TransSeqNumber, even on a multi message.
    664             * Also note that a reflected msg will not have its confirmation generated
    665             * here.
    666             */
    667            if ( (req.dstAddr.addrMode == Addr16Bit) &&
    668                 (req.dstAddr.addr.shortAddr == NLME_GetShortAddr()) )
   \                     ??AF_DataRequest_20:
   \   000363   740A         MOV     A,#0xa
   \   000365   12....       LCALL   ?XSTACK_DISP0_8
   \   000368   E0           MOVX    A,@DPTR
   \   000369   6402         XRL     A,#0x2
   \   00036B   702E         JNZ     ??AF_DataRequest_21
   \   00036D                ; Setup parameters for call to function NLME_GetShortAddr
   \   00036D   12....       LCALL   ??NLME_GetShortAddr?relay
   \   000370   8A..         MOV     ?V0 + 6,R2
   \   000372   8B..         MOV     ?V0 + 7,R3
   \   000374   A8..         MOV     R0,?V0 + 6
   \   000376   A9..         MOV     R1,?V0 + 7
   \   000378   7402         MOV     A,#0x2
   \   00037A   12....       LCALL   ?XSTACK_DISP0_8
   \   00037D   E0           MOVX    A,@DPTR
   \   00037E   68           XRL     A,R0
   \   00037F   7003         JNZ     ??AF_DataRequest_22
   \   000381   A3           INC     DPTR
   \   000382   E0           MOVX    A,@DPTR
   \   000383   69           XRL     A,R1
   \                     ??AF_DataRequest_22:
   \   000384   7015         JNZ     ??AF_DataRequest_21
    669            {
    670              afDataConfirm( srcEP->endPoint, *transID, stat );
   \   000386                ; Setup parameters for call to function afDataConfirm
   \   000386   EE           MOV     A,R6
   \   000387   FB           MOV     R3,A
   \   000388   85..82       MOV     DPL,?V0 + 4
   \   00038B   85..83       MOV     DPH,?V0 + 5
   \   00038E   E0           MOVX    A,@DPTR
   \   00038F   FA           MOV     R2,A
   \   000390   85..82       MOV     DPL,?V0 + 0
   \   000393   85..83       MOV     DPH,?V0 + 1
   \   000396   E0           MOVX    A,@DPTR
   \   000397   F9           MOV     R1,A
   \   000398   12....       LCALL   ??afDataConfirm?relay
    671            }
    672          
    673            if ( stat == afStatus_SUCCESS )
   \                     ??AF_DataRequest_21:
   \   00039B   EE           MOV     A,R6
   \   00039C   700A         JNZ     ??AF_DataRequest_23
    674            {
    675              (*transID)++;
   \   00039E   85..82       MOV     DPL,?V0 + 4
   \   0003A1   85..83       MOV     DPH,?V0 + 5
   \   0003A4   E0           MOVX    A,@DPTR
   \   0003A5   2401         ADD     A,#0x1
   \   0003A7   F0           MOVX    @DPTR,A
    676            }
    677          
    678            return (afStatus_t)stat;
   \                     ??AF_DataRequest_23:
   \   0003A8   EE           MOV     A,R6
   \   0003A9   F9           MOV     R1,A
   \                     ??AF_DataRequest_1:
   \   0003AA   741E         MOV     A,#0x1e
   \   0003AC   12....       LCALL   ?DEALLOC_XSTACK8
   \   0003AF   7F0E         MOV     R7,#0xe
   \   0003B1   02....       LJMP    ?BANKED_LEAVE_XDATA
    679          }
    680          
    681          #if defined ( ZIGBEE_SOURCE_ROUTING )
    682          /*********************************************************************
    683           * @fn      AF_DataRequestSrcRtg
    684           *
    685           * @brief   Common functionality for invoking APSDE_DataReq() for both
    686           *          SendMulti and MSG-Send.
    687           *
    688           * input parameters
    689           *
    690           * @param  *dstAddr - Full ZB destination address: Nwk Addr + End Point.
    691           * @param  *srcEP - Origination (i.e. respond to or ack to) End Point Descr.
    692           * @param   cID - A valid cluster ID as specified by the Profile.
    693           * @param   len - Number of bytes of data pointed to by next param.
    694           * @param  *buf - A pointer to the data bytes to send.
    695           * @param  *transID - A pointer to a byte which can be modified and which will
    696           *                    be used as the transaction sequence number of the msg.
    697           * @param   options - Valid bit mask of Tx options.
    698           * @param   radius - Normally set to AF_DEFAULT_RADIUS.
    699           * @param   relayCnt - Number of devices in the relay list
    700           * @param   pRelayList - Pointer to the relay list
    701           *
    702           * output parameters
    703           *
    704           * @param  *transID - Incremented by one if the return value is success.
    705           *
    706           * @return  afStatus_t - See previous definition of afStatus_... types.
    707           */
    708          

   \                                 In  segment BANKED_CODE, align 1, keep-with-next
    709          afStatus_t AF_DataRequestSrcRtg( afAddrType_t *dstAddr, endPointDesc_t *srcEP,
   \                     AF_DataRequestSrcRtg:
    710                                     uint16 cID, uint16 len, uint8 *buf, uint8 *transID,
    711                                     uint8 options, uint8 radius, uint8 relayCnt, uint16* pRelayList )
    712          {
   \   000000   74EC         MOV     A,#-0x14
   \   000002   12....       LCALL   ?BANKED_ENTER_XDATA
   \   000005                ; Saved register size: 20
   \   000005                ; Auto size: 0
   \   000005   EA           MOV     A,R2
   \   000006   FE           MOV     R6,A
   \   000007   EB           MOV     A,R3
   \   000008   FF           MOV     R7,A
   \   000009   8C..         MOV     ?V0 + 0,R4
   \   00000B   8D..         MOV     ?V0 + 1,R5
   \   00000D   89..         MOV     ?V0 + 2,R1
   \   00000F   7414         MOV     A,#0x14
   \   000011   12....       LCALL   ?XSTACK_DISP0_8
   \   000014   E0           MOVX    A,@DPTR
   \   000015   F5..         MOV     ?V0 + 10,A
   \   000017   A3           INC     DPTR
   \   000018   E0           MOVX    A,@DPTR
   \   000019   F5..         MOV     ?V0 + 11,A
   \   00001B   7416         MOV     A,#0x16
   \   00001D   12....       LCALL   ?XSTACK_DISP0_8
   \   000020   E0           MOVX    A,@DPTR
   \   000021   F5..         MOV     ?V0 + 8,A
   \   000023   A3           INC     DPTR
   \   000024   E0           MOVX    A,@DPTR
   \   000025   F5..         MOV     ?V0 + 9,A
   \   000027   7418         MOV     A,#0x18
   \   000029   12....       LCALL   ?XSTACK_DISP0_8
   \   00002C   E0           MOVX    A,@DPTR
   \   00002D   F5..         MOV     ?V0 + 6,A
   \   00002F   A3           INC     DPTR
   \   000030   E0           MOVX    A,@DPTR
   \   000031   F5..         MOV     ?V0 + 7,A
   \   000033   741A         MOV     A,#0x1a
   \   000035   12....       LCALL   ?XSTACK_DISP0_8
   \   000038   E0           MOVX    A,@DPTR
   \   000039   F5..         MOV     ?V0 + 4,A
   \   00003B   A3           INC     DPTR
   \   00003C   E0           MOVX    A,@DPTR
   \   00003D   F5..         MOV     ?V0 + 5,A
   \   00003F   741C         MOV     A,#0x1c
   \   000041   12....       LCALL   ?XSTACK_DISP0_8
   \   000044   E0           MOVX    A,@DPTR
   \   000045   F5..         MOV     ?V0 + 3,A
   \   000047   741D         MOV     A,#0x1d
   \   000049   12....       LCALL   ?XSTACK_DISP0_8
   \   00004C   E0           MOVX    A,@DPTR
   \   00004D   F9           MOV     R1,A
   \   00004E   741E         MOV     A,#0x1e
   \   000050   12....       LCALL   ?XSTACK_DISP0_8
   \   000053   E0           MOVX    A,@DPTR
   \   000054   FC           MOV     R4,A
   \   000055   A3           INC     DPTR
   \   000056   E0           MOVX    A,@DPTR
   \   000057   FD           MOV     R5,A
    713            uint8 status;
    714          
    715            /* Add the source route to the source routing table */
    716            status = RTG_AddSrcRtgEntry_Guaranteed( dstAddr->addr.shortAddr, relayCnt,
    717                                                   pRelayList );
   \   000058                ; Setup parameters for call to function RTG_AddSrcRtgEntry_Guaranteed
   \   000058   8E82         MOV     DPL,R6
   \   00005A   8F83         MOV     DPH,R7
   \   00005C   E0           MOVX    A,@DPTR
   \   00005D   FA           MOV     R2,A
   \   00005E   A3           INC     DPTR
   \   00005F   E0           MOVX    A,@DPTR
   \   000060   FB           MOV     R3,A
   \   000061   12....       LCALL   ??RTG_AddSrcRtgEntry_Guaranteed?relay
   \   000064   E9           MOV     A,R1
   \   000065   F9           MOV     R1,A
    718          
    719            if( status == RTG_SUCCESS)
   \   000066   E9           MOV     A,R1
   \   000067   7033         JNZ     ??AF_DataRequestSrcRtg_0
    720            {
    721              /* Call AF_DataRequest to send the data */
    722              status = AF_DataRequest( dstAddr, srcEP, cID, len, buf, transID, options, radius );
   \   000069                ; Setup parameters for call to function AF_DataRequest
   \   000069   E5..         MOV     A,?V0 + 3
   \   00006B   F5..         MOV     ?V0 + 3,A
   \   00006D   78..         MOV     R0,#?V0 + 3
   \   00006F   12....       LCALL   ?PUSH_XSTACK_I_ONE
   \   000072   78..         MOV     R0,#?V0 + 4
   \   000074   12....       LCALL   ?PUSH_XSTACK_I_TWO
   \   000077   78..         MOV     R0,#?V0 + 6
   \   000079   12....       LCALL   ?PUSH_XSTACK_I_TWO
   \   00007C   78..         MOV     R0,#?V0 + 8
   \   00007E   12....       LCALL   ?PUSH_XSTACK_I_TWO
   \   000081   78..         MOV     R0,#?V0 + 10
   \   000083   12....       LCALL   ?PUSH_XSTACK_I_TWO
   \   000086   A9..         MOV     R1,?V0 + 2
   \   000088   AC..         MOV     R4,?V0 + 0
   \   00008A   AD..         MOV     R5,?V0 + 1
   \   00008C   EE           MOV     A,R6
   \   00008D   FA           MOV     R2,A
   \   00008E   EF           MOV     A,R7
   \   00008F   FB           MOV     R3,A
   \   000090   12....       LCALL   ??AF_DataRequest?relay
   \   000093   7409         MOV     A,#0x9
   \   000095   12....       LCALL   ?DEALLOC_XSTACK8
   \   000098   E9           MOV     A,R1
   \   000099   F9           MOV     R1,A
   \   00009A   800B         SJMP    ??AF_DataRequestSrcRtg_1
    723            }
    724            else if( status == RTG_INVALID_PATH )
   \                     ??AF_DataRequestSrcRtg_0:
   \   00009C   7405         MOV     A,#0x5
   \   00009E   69           XRL     A,R1
   \   00009F   7004         JNZ     ??AF_DataRequestSrcRtg_2
    725            {
    726              /* The source route relay count is exceeding the network limit */
    727              status = afStatus_INVALID_PARAMETER;
   \   0000A1   7902         MOV     R1,#0x2
   \   0000A3   8002         SJMP    ??AF_DataRequestSrcRtg_1
    728            }
    729            else
    730            {
    731              /* The guaranteed adding entry fails due to memory failure */
    732              status = afStatus_MEM_FAIL;
   \                     ??AF_DataRequestSrcRtg_2:
   \   0000A5   7910         MOV     R1,#0x10
    733            }
    734            return status;
   \                     ??AF_DataRequestSrcRtg_1:
   \   0000A7   7F0C         MOV     R7,#0xc
   \   0000A9   02....       LJMP    ?BANKED_LEAVE_XDATA
    735          }
    736          
    737          #endif
    738          
    739          /*********************************************************************
    740           * @fn      afFindEndPointDescList
    741           *
    742           * @brief   Find the endpoint description entry from the endpoint
    743           *          number.
    744           *
    745           * @param   EndPoint - Application Endpoint to look for
    746           *
    747           * @return  the address to the endpoint/interface description entry
    748           */

   \                                 In  segment BANKED_CODE, align 1, keep-with-next
    749          static epList_t *afFindEndPointDescList( uint8 EndPoint )
   \                     afFindEndPointDescList:
    750          {
   \   000000   C082         PUSH    DPL
   \   000002   C083         PUSH    DPH
   \   000004                ; Saved register size: 2
   \   000004                ; Auto size: 0
    751            epList_t *epSearch;
    752          
    753            for (epSearch = epList; epSearch != NULL; epSearch = epSearch->nextDesc)
   \   000004   90....       MOV     DPTR,#epList
   \   000007   E0           MOVX    A,@DPTR
   \   000008   FA           MOV     R2,A
   \   000009   A3           INC     DPTR
   \   00000A   E0           MOVX    A,@DPTR
   \   00000B   FB           MOV     R3,A
   \   00000C   8009         SJMP    ??afFindEndPointDescList_0
   \                     ??afFindEndPointDescList_1:
   \   00000E   8A82         MOV     DPL,R2
   \   000010   8B83         MOV     DPH,R3
   \   000012   E0           MOVX    A,@DPTR
   \   000013   FA           MOV     R2,A
   \   000014   A3           INC     DPTR
   \   000015   E0           MOVX    A,@DPTR
   \   000016   FB           MOV     R3,A
   \                     ??afFindEndPointDescList_0:
   \   000017   EA           MOV     A,R2
   \   000018   4B           ORL     A,R3
   \   000019   6012         JZ      ??afFindEndPointDescList_2
    754            {
    755              if (epSearch->epDesc->endPoint == EndPoint)
   \   00001B   8A82         MOV     DPL,R2
   \   00001D   8B83         MOV     DPH,R3
   \   00001F   A3           INC     DPTR
   \   000020   A3           INC     DPTR
   \   000021   E0           MOVX    A,@DPTR
   \   000022   F8           MOV     R0,A
   \   000023   A3           INC     DPTR
   \   000024   E0           MOVX    A,@DPTR
   \   000025   F583         MOV     DPH,A
   \   000027   8882         MOV     DPL,R0
   \   000029   E0           MOVX    A,@DPTR
   \   00002A   69           XRL     A,R1
   \   00002B   70E1         JNZ     ??afFindEndPointDescList_1
    756              {
    757                break;
    758              }
    759            }
    760          
    761            return epSearch;
   \                     ??afFindEndPointDescList_2:
   \   00002D   D083         POP     DPH
   \   00002F   D082         POP     DPL
   \   000031   02....       LJMP    ?BRET
    762          }
    763          
    764          /*********************************************************************
    765           * @fn      afFindEndPointDesc
    766           *
    767           * @brief   Find the endpoint description entry from the endpoint
    768           *          number.
    769           *
    770           * @param   EndPoint - Application Endpoint to look for
    771           *
    772           * @return  the address to the endpoint/interface description entry
    773           */

   \                                 In  segment BANKED_CODE, align 1, keep-with-next
    774          endPointDesc_t *afFindEndPointDesc( uint8 EndPoint )
   \                     afFindEndPointDesc:
    775          {
   \   000000   74F6         MOV     A,#-0xa
   \   000002   12....       LCALL   ?BANKED_ENTER_XDATA
   \   000005                ; Saved register size: 10
   \   000005                ; Auto size: 0
   \   000005   E9           MOV     A,R1
   \   000006   FE           MOV     R6,A
    776            epList_t *epSearch;
    777          
    778            // Look for the endpoint
    779            epSearch = afFindEndPointDescList( EndPoint );
   \   000007                ; Setup parameters for call to function afFindEndPointDescList
   \   000007   F9           MOV     R1,A
   \   000008   12....       LCALL   ??afFindEndPointDescList?relay
   \   00000B   8A..         MOV     ?V0 + 0,R2
   \   00000D   8B..         MOV     ?V0 + 1,R3
   \   00000F   85..82       MOV     DPL,?V0 + 0
   \   000012   85..83       MOV     DPH,?V0 + 1
    780          
    781            if ( epSearch )
   \   000015   E582         MOV     A,DPL
   \   000017   4583         ORL     A,DPH
   \   000019   6009         JZ      ??afFindEndPointDesc_0
    782              return ( epSearch->epDesc );
   \   00001B   A3           INC     DPTR
   \   00001C   A3           INC     DPTR
   \   00001D   E0           MOVX    A,@DPTR
   \   00001E   FA           MOV     R2,A
   \   00001F   A3           INC     DPTR
   \   000020   E0           MOVX    A,@DPTR
   \   000021   FB           MOV     R3,A
   \   000022   8004         SJMP    ??afFindEndPointDesc_1
    783            else
    784              return ( (endPointDesc_t *)NULL );
   \                     ??afFindEndPointDesc_0:
   \   000024   7A00         MOV     R2,#0x0
   \   000026   7B00         MOV     R3,#0x0
   \                     ??afFindEndPointDesc_1:
   \   000028   7F02         MOV     R7,#0x2
   \   00002A   02....       LJMP    ?BANKED_LEAVE_XDATA
    785          }
    786          
    787          /*********************************************************************
    788           * @fn      afFindSimpleDesc
    789           *
    790           * @brief   Find the Simple Descriptor from the endpoint number.
    791           *
    792           * @param   EP - Application Endpoint to look for.
    793           *
    794           * @return  Non-zero to indicate that the descriptor memory must be freed.
    795           */

   \                                 In  segment BANKED_CODE, align 1, keep-with-next
    796          uint8 afFindSimpleDesc( SimpleDescriptionFormat_t **ppDesc, uint8 EP )
   \                     afFindSimpleDesc:
    797          {
   \   000000   74F4         MOV     A,#-0xc
   \   000002   12....       LCALL   ?BANKED_ENTER_XDATA
   \   000005                ; Saved register size: 12
   \   000005                ; Auto size: 0
   \   000005   EA           MOV     A,R2
   \   000006   FE           MOV     R6,A
   \   000007   EB           MOV     A,R3
   \   000008   FF           MOV     R7,A
   \   000009   89..         MOV     ?V0 + 0,R1
    798            epList_t *epItem = afFindEndPointDescList( EP );
   \   00000B                ; Setup parameters for call to function afFindEndPointDescList
   \   00000B   A9..         MOV     R1,?V0 + 0
   \   00000D   12....       LCALL   ??afFindEndPointDescList?relay
   \   000010   8A..         MOV     ?V0 + 2,R2
   \   000012   8B..         MOV     ?V0 + 3,R3
   \   000014   AC..         MOV     R4,?V0 + 2
   \   000016   AD..         MOV     R5,?V0 + 3
    799            uint8 rtrn = FALSE;
   \   000018   7900         MOV     R1,#0x0
    800          
    801            if ( epItem )
   \   00001A   EC           MOV     A,R4
   \   00001B   4D           ORL     A,R5
   \   00001C   6056         JZ      ??afFindSimpleDesc_0
    802            {
    803              if ( epItem->pfnDescCB )
   \   00001E   8C82         MOV     DPL,R4
   \   000020   8D83         MOV     DPH,R5
   \   000022   A3           INC     DPTR
   \   000023   A3           INC     DPTR
   \   000024   A3           INC     DPTR
   \   000025   A3           INC     DPTR
   \   000026   E0           MOVX    A,@DPTR
   \   000027   FA           MOV     R2,A
   \   000028   A3           INC     DPTR
   \   000029   E0           MOVX    A,@DPTR
   \   00002A   FB           MOV     R3,A
   \   00002B   EA           MOV     A,R2
   \   00002C   4B           ORL     A,R3
   \   00002D   6024         JZ      ??afFindSimpleDesc_1
    804              {
    805                *ppDesc = epItem->pfnDescCB( AF_DESCRIPTOR_SIMPLE, EP );
   \   00002F                ; Setup parameters for indirect call
   \   00002F   AA..         MOV     R2,?V0 + 0
   \   000031   7901         MOV     R1,#0x1
   \   000033   8C82         MOV     DPL,R4
   \   000035   8D83         MOV     DPH,R5
   \   000037   A3           INC     DPTR
   \   000038   A3           INC     DPTR
   \   000039   A3           INC     DPTR
   \   00003A   A3           INC     DPTR
   \   00003B   E0           MOVX    A,@DPTR
   \   00003C   F8           MOV     R0,A
   \   00003D   A3           INC     DPTR
   \   00003E   E0           MOVX    A,@DPTR
   \   00003F   F583         MOV     DPH,A
   \   000041   8882         MOV     DPL,R0
   \   000043   12....       LCALL   ?CALL_IND
   \   000046   8E82         MOV     DPL,R6
   \   000048   8F83         MOV     DPH,R7
   \   00004A   EA           MOV     A,R2
   \   00004B   F0           MOVX    @DPTR,A
   \   00004C   A3           INC     DPTR
   \   00004D   EB           MOV     A,R3
   \   00004E   F0           MOVX    @DPTR,A
    806                rtrn = TRUE;
   \   00004F   7901         MOV     R1,#0x1
   \   000051   802C         SJMP    ??afFindSimpleDesc_2
    807              }
    808              else
    809              {
    810                *ppDesc = epItem->epDesc->simpleDesc;
   \                     ??afFindSimpleDesc_1:
   \   000053   8C82         MOV     DPL,R4
   \   000055   8D83         MOV     DPH,R5
   \   000057   A3           INC     DPTR
   \   000058   A3           INC     DPTR
   \   000059   E0           MOVX    A,@DPTR
   \   00005A   F8           MOV     R0,A
   \   00005B   A3           INC     DPTR
   \   00005C   E0           MOVX    A,@DPTR
   \   00005D   F583         MOV     DPH,A
   \   00005F   8882         MOV     DPL,R0
   \   000061   A3           INC     DPTR
   \   000062   A3           INC     DPTR
   \   000063   A3           INC     DPTR
   \   000064   E0           MOVX    A,@DPTR
   \   000065   FA           MOV     R2,A
   \   000066   A3           INC     DPTR
   \   000067   E0           MOVX    A,@DPTR
   \   000068   FB           MOV     R3,A
   \   000069   8E82         MOV     DPL,R6
   \   00006B   8F83         MOV     DPH,R7
   \   00006D   EA           MOV     A,R2
   \   00006E   F0           MOVX    @DPTR,A
   \   00006F   A3           INC     DPTR
   \   000070   EB           MOV     A,R3
   \   000071   F0           MOVX    @DPTR,A
   \   000072   800B         SJMP    ??afFindSimpleDesc_2
    811              }
    812            }
    813            else
    814            {
    815              *ppDesc = NULL;
   \                     ??afFindSimpleDesc_0:
   \   000074   8E82         MOV     DPL,R6
   \   000076   8F83         MOV     DPH,R7
   \   000078   7400         MOV     A,#0x0
   \   00007A   F0           MOVX    @DPTR,A
   \   00007B   A3           INC     DPTR
   \   00007C   7400         MOV     A,#0x0
   \   00007E   F0           MOVX    @DPTR,A
    816            }
    817          
    818            return rtrn;
   \                     ??afFindSimpleDesc_2:
   \   00007F   7F04         MOV     R7,#0x4
   \   000081   02....       LJMP    ?BANKED_LEAVE_XDATA
    819          }
    820          
    821          /*********************************************************************
    822           * @fn      afGetDescCB
    823           *
    824           * @brief   Get the Descriptor callback function.
    825           *
    826           * @param   epDesc - pointer to the endpoint descriptor
    827           *
    828           * @return  function pointer or NULL
    829           */

   \                                 In  segment BANKED_CODE, align 1, keep-with-next
    830          static pDescCB afGetDescCB( endPointDesc_t *epDesc )
   \                     afGetDescCB:
    831          {
   \   000000   C082         PUSH    DPL
   \   000002   C083         PUSH    DPH
   \   000004                ; Saved register size: 2
   \   000004                ; Auto size: 0
    832            epList_t *epSearch;
    833          
    834            // Start at the beginning
    835            epSearch = epList;
   \   000004   90....       MOV     DPTR,#epList
   \   000007   E0           MOVX    A,@DPTR
   \   000008   F8           MOV     R0,A
   \   000009   A3           INC     DPTR
   \   00000A   E0           MOVX    A,@DPTR
   \   00000B   F9           MOV     R1,A
   \   00000C   8009         SJMP    ??afGetDescCB_0
    836          
    837            // Look through the list until the end
    838            while ( epSearch )
    839            {
    840              // Is there a match?
    841              if ( epSearch->epDesc == epDesc )
    842              {
    843                return ( epSearch->pfnDescCB );
    844              }
    845              else
    846                epSearch = epSearch->nextDesc;  // Next entry
   \                     ??afGetDescCB_1:
   \   00000E   8882         MOV     DPL,R0
   \   000010   8983         MOV     DPH,R1
   \   000012   E0           MOVX    A,@DPTR
   \   000013   F8           MOV     R0,A
   \   000014   A3           INC     DPTR
   \   000015   E0           MOVX    A,@DPTR
   \   000016   F9           MOV     R1,A
   \                     ??afGetDescCB_0:
   \   000017   E8           MOV     A,R0
   \   000018   49           ORL     A,R1
   \   000019   6022         JZ      ??afGetDescCB_2
   \   00001B   8882         MOV     DPL,R0
   \   00001D   8983         MOV     DPH,R1
   \   00001F   A3           INC     DPTR
   \   000020   A3           INC     DPTR
   \   000021   E0           MOVX    A,@DPTR
   \   000022   FC           MOV     R4,A
   \   000023   A3           INC     DPTR
   \   000024   E0           MOVX    A,@DPTR
   \   000025   FD           MOV     R5,A
   \   000026   EA           MOV     A,R2
   \   000027   6C           XRL     A,R4
   \   000028   7002         JNZ     ??afGetDescCB_3
   \   00002A   EB           MOV     A,R3
   \   00002B   6D           XRL     A,R5
   \                     ??afGetDescCB_3:
   \   00002C   70E0         JNZ     ??afGetDescCB_1
   \   00002E   8882         MOV     DPL,R0
   \   000030   8983         MOV     DPH,R1
   \   000032   A3           INC     DPTR
   \   000033   A3           INC     DPTR
   \   000034   A3           INC     DPTR
   \   000035   A3           INC     DPTR
   \   000036   E0           MOVX    A,@DPTR
   \   000037   FA           MOV     R2,A
   \   000038   A3           INC     DPTR
   \   000039   E0           MOVX    A,@DPTR
   \   00003A   FB           MOV     R3,A
   \   00003B   8004         SJMP    ??afGetDescCB_4
    847            }
    848          
    849            return ( (pDescCB)NULL );
   \                     ??afGetDescCB_2:
   \   00003D   7A00         MOV     R2,#0x0
   \   00003F   7B00         MOV     R3,#0x0
   \                     ??afGetDescCB_4:
   \   000041   D083         POP     DPH
   \   000043   D082         POP     DPL
   \   000045   02....       LJMP    ?BRET
    850          }
    851          
    852          /*********************************************************************
    853           * @fn      afDataReqMTU
    854           *
    855           * @brief   Get the Data Request MTU(Max Transport Unit).
    856           *
    857           * @param   fields - afDataReqMTU_t
    858           *
    859           * @return  uint8(MTU)
    860           */

   \                                 In  segment BANKED_CODE, align 1, keep-with-next
    861          uint8 afDataReqMTU( afDataReqMTU_t* fields )
   \                     afDataReqMTU:
    862          {
   \   000000   74F7         MOV     A,#-0x9
   \   000002   12....       LCALL   ?BANKED_ENTER_XDATA
   \   000005                ; Saved register size: 9
   \   000005                ; Auto size: 0
    863            uint8 len;
    864            uint8 hdr;
    865          
    866            if ( fields->kvp == TRUE )
   \   000005   8A82         MOV     DPL,R2
   \   000007   8B83         MOV     DPH,R3
   \   000009   E0           MOVX    A,@DPTR
   \   00000A   6401         XRL     A,#0x1
   \   00000C   7004         JNZ     ??afDataReqMTU_0
    867            {
    868              hdr = AF_HDR_KVP_MAX_LEN;
   \   00000E   7E08         MOV     R6,#0x8
   \   000010   8002         SJMP    ??afDataReqMTU_1
    869            }
    870            else
    871            {
    872              hdr = AF_HDR_V1_1_MAX_LEN;
   \                     ??afDataReqMTU_0:
   \   000012   7E00         MOV     R6,#0x0
    873            }
    874          
    875            len = (uint8)(APSDE_DataReqMTU(&fields->aps) - hdr);
   \                     ??afDataReqMTU_1:
   \   000014                ; Setup parameters for call to function APSDE_DataReqMTU
   \   000014   8A82         MOV     DPL,R2
   \   000016   8B83         MOV     DPH,R3
   \   000018   A3           INC     DPTR
   \   000019   AA82         MOV     R2,DPL
   \   00001B   AB83         MOV     R3,DPH
   \   00001D   12....       LCALL   ??APSDE_DataReqMTU?relay
   \   000020   E9           MOV     A,R1
   \   000021   C3           CLR     C
   \   000022   9E           SUBB    A,R6
   \   000023   F9           MOV     R1,A
    876          
    877            return len;
   \   000024   7F01         MOV     R7,#0x1
   \   000026   02....       LJMP    ?BANKED_LEAVE_XDATA
    878          }
    879          
    880          /*********************************************************************
    881           * @fn      afGetMatch
    882           *
    883           * @brief   Set the allow response flag.
    884           *
    885           * @param   ep - Application Endpoint to look for
    886           * @param   action - true - allow response, false - no response
    887           *
    888           * @return  TRUE allow responses, FALSE no response
    889           */

   \                                 In  segment BANKED_CODE, align 1, keep-with-next
    890          uint8 afGetMatch( uint8 ep )
   \                     afGetMatch:
    891          {
   \   000000   74F6         MOV     A,#-0xa
   \   000002   12....       LCALL   ?BANKED_ENTER_XDATA
   \   000005                ; Saved register size: 10
   \   000005                ; Auto size: 0
   \   000005   E9           MOV     A,R1
   \   000006   FE           MOV     R6,A
    892            epList_t *epSearch;
    893          
    894            // Look for the endpoint
    895            epSearch = afFindEndPointDescList( ep );
   \   000007                ; Setup parameters for call to function afFindEndPointDescList
   \   000007   F9           MOV     R1,A
   \   000008   12....       LCALL   ??afFindEndPointDescList?relay
   \   00000B   8A..         MOV     ?V0 + 0,R2
   \   00000D   8B..         MOV     ?V0 + 1,R3
   \   00000F   85..82       MOV     DPL,?V0 + 0
   \   000012   85..83       MOV     DPH,?V0 + 1
    896          
    897            if ( epSearch )
   \   000015   E582         MOV     A,DPL
   \   000017   4583         ORL     A,DPH
   \   000019   6015         JZ      ??afGetMatch_0
    898            {
    899              if ( epSearch->flags & eEP_AllowMatch )
   \   00001B   A3           INC     DPTR
   \   00001C   A3           INC     DPTR
   \   00001D   A3           INC     DPTR
   \   00001E   A3           INC     DPTR
   \   00001F   A3           INC     DPTR
   \   000020   A3           INC     DPTR
   \   000021   A3           INC     DPTR
   \   000022   A3           INC     DPTR
   \   000023   E0           MOVX    A,@DPTR
   \   000024   A2E0         MOV     C,0xE0 /* A   */.0
   \   000026   5004         JNC     ??afGetMatch_1
    900                return ( TRUE );
   \   000028   7901         MOV     R1,#0x1
   \   00002A   8006         SJMP    ??afGetMatch_2
    901              else
    902                return ( FALSE );
   \                     ??afGetMatch_1:
   \   00002C   7900         MOV     R1,#0x0
   \   00002E   8002         SJMP    ??afGetMatch_2
    903            }
    904            else
    905              return ( FALSE );
   \                     ??afGetMatch_0:
   \   000030   7900         MOV     R1,#0x0
   \                     ??afGetMatch_2:
   \   000032   7F02         MOV     R7,#0x2
   \   000034   02....       LJMP    ?BANKED_LEAVE_XDATA
    906          }
    907          
    908          /*********************************************************************
    909           * @fn      afSetMatch
    910           *
    911           * @brief   Set the allow response flag.
    912           *
    913           * @param   ep - Application Endpoint to look for
    914           * @param   action - true - allow response, false - no response
    915           *
    916           * @return  TRUE if success, FALSE if endpoint not found
    917           */

   \                                 In  segment BANKED_CODE, align 1, keep-with-next
    918          uint8 afSetMatch( uint8 ep, uint8 action )
   \                     afSetMatch:
    919          {
   \   000000   74F6         MOV     A,#-0xa
   \   000002   12....       LCALL   ?BANKED_ENTER_XDATA
   \   000005                ; Saved register size: 10
   \   000005                ; Auto size: 0
   \   000005   E9           MOV     A,R1
   \   000006   FE           MOV     R6,A
   \   000007   EA           MOV     A,R2
   \   000008   FF           MOV     R7,A
    920            epList_t *epSearch;
    921          
    922            // Look for the endpoint
    923            epSearch = afFindEndPointDescList( ep );
   \   000009                ; Setup parameters for call to function afFindEndPointDescList
   \   000009   EE           MOV     A,R6
   \   00000A   F9           MOV     R1,A
   \   00000B   12....       LCALL   ??afFindEndPointDescList?relay
   \   00000E   8A..         MOV     ?V0 + 0,R2
   \   000010   8B..         MOV     ?V0 + 1,R3
   \   000012   85..82       MOV     DPL,?V0 + 0
   \   000015   85..83       MOV     DPH,?V0 + 1
    924          
    925            if ( epSearch )
   \   000018   E582         MOV     A,DPL
   \   00001A   4583         ORL     A,DPH
   \   00001C   6021         JZ      ??afSetMatch_0
    926            {
    927              if ( action )
   \   00001E   EF           MOV     A,R7
   \   00001F   600E         JZ      ??afSetMatch_1
    928              {
    929                epSearch->flags |= eEP_AllowMatch;
   \   000021   A3           INC     DPTR
   \   000022   A3           INC     DPTR
   \   000023   A3           INC     DPTR
   \   000024   A3           INC     DPTR
   \   000025   A3           INC     DPTR
   \   000026   A3           INC     DPTR
   \   000027   A3           INC     DPTR
   \   000028   A3           INC     DPTR
   \   000029   E0           MOVX    A,@DPTR
   \   00002A   D2E0         SETB    0xE0 /* A   */.0
   \   00002C   F0           MOVX    @DPTR,A
   \   00002D   800C         SJMP    ??afSetMatch_2
    930              }
    931              else
    932              {
    933                epSearch->flags &= (eEP_AllowMatch ^ 0xFFFF);
   \                     ??afSetMatch_1:
   \   00002F   A3           INC     DPTR
   \   000030   A3           INC     DPTR
   \   000031   A3           INC     DPTR
   \   000032   A3           INC     DPTR
   \   000033   A3           INC     DPTR
   \   000034   A3           INC     DPTR
   \   000035   A3           INC     DPTR
   \   000036   A3           INC     DPTR
   \   000037   E0           MOVX    A,@DPTR
   \   000038   C2E0         CLR     0xE0 /* A   */.0
   \   00003A   F0           MOVX    @DPTR,A
    934              }
    935              return ( TRUE );
   \                     ??afSetMatch_2:
   \   00003B   7901         MOV     R1,#0x1
   \   00003D   8002         SJMP    ??afSetMatch_3
    936            }
    937            else
    938              return ( FALSE );
   \                     ??afSetMatch_0:
   \   00003F   7900         MOV     R1,#0x0
   \                     ??afSetMatch_3:
   \   000041   7F02         MOV     R7,#0x2
   \   000043   02....       LJMP    ?BANKED_LEAVE_XDATA
    939          }
    940          
    941          /*********************************************************************
    942           * @fn      afNumEndPoints
    943           *
    944           * @brief   Returns the number of endpoints defined (including 0)
    945           *
    946           * @param   none
    947           *
    948           * @return  number of endpoints
    949           */

   \                                 In  segment BANKED_CODE, align 1, keep-with-next
    950          uint8 afNumEndPoints( void )
   \                     afNumEndPoints:
    951          {
   \   000000   C082         PUSH    DPL
   \   000002   C083         PUSH    DPH
   \   000004                ; Saved register size: 2
   \   000004                ; Auto size: 0
    952            epList_t *epSearch;
    953            uint8 endpoints;
    954          
    955            // Start at the beginning
    956            epSearch = epList;
   \   000004   90....       MOV     DPTR,#epList
   \   000007   E0           MOVX    A,@DPTR
   \   000008   F8           MOV     R0,A
   \   000009   A3           INC     DPTR
   \   00000A   E0           MOVX    A,@DPTR
   \   00000B   F9           MOV     R1,A
   \   00000C   8882         MOV     DPL,R0
   \   00000E   8983         MOV     DPH,R1
    957            endpoints = 0;
   \   000010   7900         MOV     R1,#0x0
   \   000012   800A         SJMP    ??afNumEndPoints_0
    958          
    959            while ( epSearch )
    960            {
    961              endpoints++;
   \                     ??afNumEndPoints_1:
   \   000014   09           INC     R1
    962              epSearch = epSearch->nextDesc;
   \   000015   E0           MOVX    A,@DPTR
   \   000016   FA           MOV     R2,A
   \   000017   A3           INC     DPTR
   \   000018   E0           MOVX    A,@DPTR
   \   000019   FB           MOV     R3,A
   \   00001A   8A82         MOV     DPL,R2
   \   00001C   8B83         MOV     DPH,R3
    963            }
   \                     ??afNumEndPoints_0:
   \   00001E   E582         MOV     A,DPL
   \   000020   4583         ORL     A,DPH
   \   000022   70F0         JNZ     ??afNumEndPoints_1
    964          
    965            return ( endpoints );
   \   000024   D083         POP     DPH
   \   000026   D082         POP     DPL
   \   000028   02....       LJMP    ?BRET
    966          }
    967          
    968          /*********************************************************************
    969           * @fn      afEndPoints
    970           *
    971           * @brief   Fills in the passed in buffer with the endpoint (numbers).
    972           *          Use afNumEndPoints to find out how big a buffer to supply.
    973           *
    974           * @param   epBuf - pointer to mem used
    975           *
    976           * @return  void
    977           */

   \                                 In  segment BANKED_CODE, align 1, keep-with-next
    978          void afEndPoints( uint8 *epBuf, uint8 skipZDO )
   \                     afEndPoints:
    979          {
   \   000000   C082         PUSH    DPL
   \   000002   C083         PUSH    DPH
   \   000004                ; Saved register size: 2
   \   000004                ; Auto size: 0
    980            epList_t *epSearch;
    981            uint8 endPoint;
    982          
    983            // Start at the beginning
    984            epSearch = epList;
   \   000004   90....       MOV     DPTR,#epList
   \   000007   E0           MOVX    A,@DPTR
   \   000008   FC           MOV     R4,A
   \   000009   A3           INC     DPTR
   \   00000A   E0           MOVX    A,@DPTR
   \   00000B   FD           MOV     R5,A
   \   00000C   802E         SJMP    ??afEndPoints_0
    985          
    986            while ( epSearch )
    987            {
    988              endPoint = epSearch->epDesc->endPoint;
   \                     ??afEndPoints_1:
   \   00000E   8C82         MOV     DPL,R4
   \   000010   8D83         MOV     DPH,R5
   \   000012   A3           INC     DPTR
   \   000013   A3           INC     DPTR
   \   000014   E0           MOVX    A,@DPTR
   \   000015   F8           MOV     R0,A
   \   000016   A3           INC     DPTR
   \   000017   E0           MOVX    A,@DPTR
   \   000018   F583         MOV     DPH,A
   \   00001A   8882         MOV     DPL,R0
   \   00001C   E0           MOVX    A,@DPTR
   \   00001D   F8           MOV     R0,A
    989          
    990              if ( !skipZDO || endPoint != 0 )
   \   00001E   E9           MOV     A,R1
   \   00001F   6003         JZ      ??afEndPoints_2
   \   000021   E8           MOV     A,R0
   \   000022   600F         JZ      ??afEndPoints_3
    991                *epBuf++ = endPoint;
   \                     ??afEndPoints_2:
   \   000024   E8           MOV     A,R0
   \   000025   8A82         MOV     DPL,R2
   \   000027   8B83         MOV     DPH,R3
   \   000029   F0           MOVX    @DPTR,A
   \   00002A   8A82         MOV     DPL,R2
   \   00002C   8B83         MOV     DPH,R3
   \   00002E   A3           INC     DPTR
   \   00002F   AA82         MOV     R2,DPL
   \   000031   AB83         MOV     R3,DPH
    992          
    993              epSearch = epSearch->nextDesc;
   \                     ??afEndPoints_3:
   \   000033   8C82         MOV     DPL,R4
   \   000035   8D83         MOV     DPH,R5
   \   000037   E0           MOVX    A,@DPTR
   \   000038   FC           MOV     R4,A
   \   000039   A3           INC     DPTR
   \   00003A   E0           MOVX    A,@DPTR
   \   00003B   FD           MOV     R5,A
    994            }
   \                     ??afEndPoints_0:
   \   00003C   EC           MOV     A,R4
   \   00003D   4D           ORL     A,R5
   \   00003E   70CE         JNZ     ??afEndPoints_1
    995          }
   \   000040   D083         POP     DPH
   \   000042   D082         POP     DPL
   \   000044   02....       LJMP    ?BRET
    996          
    997          /*********************************************************************
    998           * @fn      afCopyAddress
    999           *
   1000           * @brief   Fills in the passed in afAddrType_t parameter with the corresponding information
   1001           *          from the zAddrType_t parameter.
   1002           *
   1003           * @param   epBuf - pointer to mem used
   1004           *
   1005           * @return  void
   1006           */

   \                                 In  segment BANKED_CODE, align 1, keep-with-next
   1007          void afCopyAddress( afAddrType_t *afAddr, zAddrType_t *zAddr )
   \                     afCopyAddress:
   1008          {
   \   000000   74F6         MOV     A,#-0xa
   \   000002   12....       LCALL   ?BANKED_ENTER_XDATA
   \   000005                ; Saved register size: 10
   \   000005                ; Auto size: 0
   \   000005   EA           MOV     A,R2
   \   000006   FE           MOV     R6,A
   \   000007   EB           MOV     A,R3
   \   000008   FF           MOV     R7,A
   1009            afAddr->addrMode = (afAddrMode_t)zAddr->addrMode;
   \   000009   8C82         MOV     DPL,R4
   \   00000B   8D83         MOV     DPH,R5
   \   00000D   A3           INC     DPTR
   \   00000E   A3           INC     DPTR
   \   00000F   A3           INC     DPTR
   \   000010   A3           INC     DPTR
   \   000011   A3           INC     DPTR
   \   000012   A3           INC     DPTR
   \   000013   A3           INC     DPTR
   \   000014   A3           INC     DPTR
   \   000015   E0           MOVX    A,@DPTR
   \   000016   8E82         MOV     DPL,R6
   \   000018   8F83         MOV     DPH,R7
   \   00001A   A3           INC     DPTR
   \   00001B   A3           INC     DPTR
   \   00001C   A3           INC     DPTR
   \   00001D   A3           INC     DPTR
   \   00001E   A3           INC     DPTR
   \   00001F   A3           INC     DPTR
   \   000020   A3           INC     DPTR
   \   000021   A3           INC     DPTR
   \   000022   F0           MOVX    @DPTR,A
   1010            if ( zAddr->addrMode == Addr64Bit )
   \   000023   8C82         MOV     DPL,R4
   \   000025   8D83         MOV     DPH,R5
   \   000027   A3           INC     DPTR
   \   000028   A3           INC     DPTR
   \   000029   A3           INC     DPTR
   \   00002A   A3           INC     DPTR
   \   00002B   A3           INC     DPTR
   \   00002C   A3           INC     DPTR
   \   00002D   A3           INC     DPTR
   \   00002E   A3           INC     DPTR
   \   00002F   E0           MOVX    A,@DPTR
   \   000030   6403         XRL     A,#0x3
   \   000032   7013         JNZ     ??afCopyAddress_0
   1011            {
   1012              (void)osal_cpyExtAddr( afAddr->addr.extAddr, zAddr->addr.extAddr );
   \   000034                ; Setup parameters for call to function sAddrExtCpy
   \   000034   EE           MOV     A,R6
   \   000035   FA           MOV     R2,A
   \   000036   EF           MOV     A,R7
   \   000037   FB           MOV     R3,A
   \   000038   12....       LCALL   ??sAddrExtCpy?relay
   \   00003B   8A..         MOV     ?V0 + 0,R2
   \   00003D   8B..         MOV     ?V0 + 1,R3
   \   00003F   85..82       MOV     DPL,?V0 + 0
   \   000042   85..83       MOV     DPH,?V0 + 1
   \   000045   8012         SJMP    ??afCopyAddress_1
   1013            }
   1014            else
   1015            {
   1016              afAddr->addr.shortAddr = zAddr->addr.shortAddr;
   \                     ??afCopyAddress_0:
   \   000047   8C82         MOV     DPL,R4
   \   000049   8D83         MOV     DPH,R5
   \   00004B   E0           MOVX    A,@DPTR
   \   00004C   F8           MOV     R0,A
   \   00004D   A3           INC     DPTR
   \   00004E   E0           MOVX    A,@DPTR
   \   00004F   F9           MOV     R1,A
   \   000050   8E82         MOV     DPL,R6
   \   000052   8F83         MOV     DPH,R7
   \   000054   E8           MOV     A,R0
   \   000055   F0           MOVX    @DPTR,A
   \   000056   A3           INC     DPTR
   \   000057   E9           MOV     A,R1
   \   000058   F0           MOVX    @DPTR,A
   1017            }
   1018          
   1019            // Since zAddrType_t has no INTER-PAN information, set the panId member to zero.
   1020            afAddr->panId = 0;
   \                     ??afCopyAddress_1:
   \   000059   8E82         MOV     DPL,R6
   \   00005B   8F83         MOV     DPH,R7
   \   00005D   A3           INC     DPTR
   \   00005E   A3           INC     DPTR
   \   00005F   A3           INC     DPTR
   \   000060   A3           INC     DPTR
   \   000061   A3           INC     DPTR
   \   000062   A3           INC     DPTR
   \   000063   A3           INC     DPTR
   \   000064   A3           INC     DPTR
   \   000065   A3           INC     DPTR
   \   000066   A3           INC     DPTR
   \   000067   7400         MOV     A,#0x0
   \   000069   F0           MOVX    @DPTR,A
   \   00006A   A3           INC     DPTR
   \   00006B   7400         MOV     A,#0x0
   \   00006D   F0           MOVX    @DPTR,A
   1021          }
   \   00006E   7F02         MOV     R7,#0x2
   \   000070   02....       LJMP    ?BANKED_LEAVE_XDATA
   1022          
   1023          /**************************************************************************************************
   1024           * @fn          afAPSF_ConfigGet
   1025           *
   1026           * @brief       This function ascertains the fragmentation configuration that corresponds to
   1027           *              the specified EndPoint.
   1028           *
   1029           * input parameters
   1030           *
   1031           * @param       endPoint - The source EP of a Tx or destination EP of a Rx fragmented message.
   1032           *
   1033           * output parameters
   1034           *
   1035           * @param       pCfg - A pointer to an APSF configuration structure to fill with values.
   1036           *
   1037           * @return      None.
   1038           */

   \                                 In  segment BANKED_CODE, align 1, keep-with-next
   1039          void afAPSF_ConfigGet(uint8 endPoint, afAPSF_Config_t *pCfg)
   \                     afAPSF_ConfigGet:
   1040          {
   \   000000   74F4         MOV     A,#-0xc
   \   000002   12....       LCALL   ?BANKED_ENTER_XDATA
   \   000005                ; Saved register size: 12
   \   000005                ; Auto size: 0
   \   000005   89..         MOV     ?V0 + 3,R1
   \   000007   EA           MOV     A,R2
   \   000008   FE           MOV     R6,A
   \   000009   EB           MOV     A,R3
   \   00000A   FF           MOV     R7,A
   1041            epList_t *pList = afFindEndPointDescList(endPoint);
   \   00000B                ; Setup parameters for call to function afFindEndPointDescList
   \   00000B   A9..         MOV     R1,?V0 + 3
   \   00000D   12....       LCALL   ??afFindEndPointDescList?relay
   \   000010   8A..         MOV     ?V0 + 0,R2
   \   000012   8B..         MOV     ?V0 + 1,R3
   \   000014   A8..         MOV     R0,?V0 + 0
   \   000016   A9..         MOV     R1,?V0 + 1
   1042          
   1043            if (pList == NULL)
   \   000018   E8           MOV     A,R0
   \   000019   49           ORL     A,R1
   \   00001A   7011         JNZ     ??afAPSF_ConfigGet_0
   1044            {
   1045              pCfg->frameDelay = APSF_DEFAULT_INTERFRAME_DELAY;
   \   00001C   8E82         MOV     DPL,R6
   \   00001E   8F83         MOV     DPH,R7
   \   000020   7432         MOV     A,#0x32
   \   000022   F0           MOVX    @DPTR,A
   1046              pCfg->windowSize = APSF_DEFAULT_WINDOW_SIZE;
   \   000023   8E82         MOV     DPL,R6
   \   000025   8F83         MOV     DPH,R7
   \   000027   A3           INC     DPTR
   \   000028   7401         MOV     A,#0x1
   \   00002A   F0           MOVX    @DPTR,A
   \   00002B   802C         SJMP    ??afAPSF_ConfigGet_1
   1047            }
   1048            else
   1049            {
   1050              (void)osal_memcpy(pCfg, &pList->apsfCfg, sizeof(afAPSF_Config_t));
   \                     ??afAPSF_ConfigGet_0:
   \   00002D                ; Setup parameters for call to function osal_memcpy
   \   00002D   E8           MOV     A,R0
   \   00002E   2406         ADD     A,#0x6
   \   000030   F5..         MOV     ?V0 + 0,A
   \   000032   E9           MOV     A,R1
   \   000033   3400         ADDC    A,#0x0
   \   000035   F5..         MOV     ?V0 + 1,A
   \   000037   75..00       MOV     ?V0 + 2,#0x0
   \   00003A   78..         MOV     R0,#?V0 + 0
   \   00003C   12....       LCALL   ?PUSH_XSTACK_I_THREE
   \   00003F   7C02         MOV     R4,#0x2
   \   000041   7D00         MOV     R5,#0x0
   \   000043   EE           MOV     A,R6
   \   000044   FA           MOV     R2,A
   \   000045   EF           MOV     A,R7
   \   000046   FB           MOV     R3,A
   \   000047   12....       LCALL   ??osal_memcpy?relay
   \   00004A   7403         MOV     A,#0x3
   \   00004C   12....       LCALL   ?DEALLOC_XSTACK8
   \   00004F   8A..         MOV     ?V0 + 0,R2
   \   000051   8B..         MOV     ?V0 + 1,R3
   \   000053   85..82       MOV     DPL,?V0 + 0
   \   000056   85..83       MOV     DPH,?V0 + 1
   1051            }
   1052          }
   \                     ??afAPSF_ConfigGet_1:
   \   000059   7F04         MOV     R7,#0x4
   \   00005B   02....       LJMP    ?BANKED_LEAVE_XDATA
   1053          
   1054          /**************************************************************************************************
   1055           * @fn          afAPSF_ConfigSet
   1056           *
   1057           * @brief       This function attempts to set the fragmentation configuration that corresponds to
   1058           *              the specified EndPoint.
   1059           *
   1060           * input parameters
   1061           *
   1062           * @param       endPoint - The specific EndPoint for which to set the fragmentation configuration.
   1063           * @param       pCfg - A pointer to an APSF configuration structure to fill with values.
   1064           *
   1065           * output parameters
   1066           *
   1067           * None.
   1068           *
   1069           * @return      afStatus_SUCCESS for success.
   1070           *              afStatus_INVALID_PARAMETER if the specified EndPoint is not registered.
   1071           */

   \                                 In  segment BANKED_CODE, align 1, keep-with-next
   1072          afStatus_t afAPSF_ConfigSet(uint8 endPoint, afAPSF_Config_t *pCfg)
   \                     afAPSF_ConfigSet:
   1073          {
   \   000000   74F4         MOV     A,#-0xc
   \   000002   12....       LCALL   ?BANKED_ENTER_XDATA
   \   000005                ; Saved register size: 12
   \   000005                ; Auto size: 0
   \   000005   89..         MOV     ?V0 + 3,R1
   \   000007   EA           MOV     A,R2
   \   000008   FE           MOV     R6,A
   \   000009   EB           MOV     A,R3
   \   00000A   FF           MOV     R7,A
   1074            epList_t *pList = afFindEndPointDescList(endPoint);
   \   00000B                ; Setup parameters for call to function afFindEndPointDescList
   \   00000B   A9..         MOV     R1,?V0 + 3
   \   00000D   12....       LCALL   ??afFindEndPointDescList?relay
   \   000010   8A..         MOV     ?V0 + 0,R2
   \   000012   8B..         MOV     ?V0 + 1,R3
   \   000014   AA..         MOV     R2,?V0 + 0
   \   000016   AB..         MOV     R3,?V0 + 1
   1075          
   1076            if (pList == NULL)
   \   000018   EA           MOV     A,R2
   \   000019   4B           ORL     A,R3
   \   00001A   7004         JNZ     ??afAPSF_ConfigSet_0
   1077            {
   1078              return afStatus_INVALID_PARAMETER;
   \   00001C   7902         MOV     R1,#0x2
   \   00001E   802C         SJMP    ??afAPSF_ConfigSet_1
   1079            }
   1080          
   1081            (void)osal_memcpy(&pList->apsfCfg, pCfg, sizeof(afAPSF_Config_t));
   \                     ??afAPSF_ConfigSet_0:
   \   000020                ; Setup parameters for call to function osal_memcpy
   \   000020   8E..         MOV     ?V0 + 0,R6
   \   000022   8F..         MOV     ?V0 + 1,R7
   \   000024   75..00       MOV     ?V0 + 2,#0x0
   \   000027   78..         MOV     R0,#?V0 + 0
   \   000029   12....       LCALL   ?PUSH_XSTACK_I_THREE
   \   00002C   7C02         MOV     R4,#0x2
   \   00002E   7D00         MOV     R5,#0x0
   \   000030   EA           MOV     A,R2
   \   000031   2406         ADD     A,#0x6
   \   000033   FA           MOV     R2,A
   \   000034   EB           MOV     A,R3
   \   000035   3400         ADDC    A,#0x0
   \   000037   FB           MOV     R3,A
   \   000038   12....       LCALL   ??osal_memcpy?relay
   \   00003B   7403         MOV     A,#0x3
   \   00003D   12....       LCALL   ?DEALLOC_XSTACK8
   \   000040   8A..         MOV     ?V0 + 0,R2
   \   000042   8B..         MOV     ?V0 + 1,R3
   \   000044   85..82       MOV     DPL,?V0 + 0
   \   000047   85..83       MOV     DPH,?V0 + 1
   1082            return afStatus_SUCCESS;
   \   00004A   7900         MOV     R1,#0x0
   \                     ??afAPSF_ConfigSet_1:
   \   00004C   7F04         MOV     R7,#0x4
   \   00004E   02....       LJMP    ?BANKED_LEAVE_XDATA
   1083          }

   \                                 In  segment XDATA_ID, align 1, keep-with-next
   \                     `?<Initializer for AF_DataRequestDiscoverRoute>`:
   \   000000   01           DB 1

   \                                 In  segment BANK_RELAYS, align 1
   \                     ??afRegisterExtended?relay:
   \   000000   12....       LCALL   ?BDISPATCH
   \   000003   ......       DC24    afRegisterExtended

   \                                 In  segment BANK_RELAYS, align 1
   \                     ??afRegister?relay:
   \   000000   12....       LCALL   ?BDISPATCH
   \   000003   ......       DC24    afRegister

   \                                 In  segment BANK_RELAYS, align 1
   \                     ??afDelete?relay:
   \   000000   12....       LCALL   ?BDISPATCH
   \   000003   ......       DC24    afDelete

   \                                 In  segment BANK_RELAYS, align 1
   \                     ??afDataConfirm?relay:
   \   000000   12....       LCALL   ?BDISPATCH
   \   000003   ......       DC24    afDataConfirm

   \                                 In  segment BANK_RELAYS, align 1
   \                     ??afIncomingData?relay:
   \   000000   12....       LCALL   ?BDISPATCH
   \   000003   ......       DC24    afIncomingData

   \                                 In  segment BANK_RELAYS, align 1
   \                     ??afBuildMSGIncoming?relay:
   \   000000   12....       LCALL   ?BDISPATCH
   \   000003   ......       DC24    afBuildMSGIncoming

   \                                 In  segment BANK_RELAYS, align 1
   \                     ??AF_DataRequest?relay:
   \   000000   12....       LCALL   ?BDISPATCH
   \   000003   ......       DC24    AF_DataRequest

   \                                 In  segment BANK_RELAYS, align 1
   \                     ??AF_DataRequestSrcRtg?relay:
   \   000000   12....       LCALL   ?BDISPATCH
   \   000003   ......       DC24    AF_DataRequestSrcRtg

   \                                 In  segment BANK_RELAYS, align 1
   \                     ??afFindEndPointDescList?relay:
   \   000000   12....       LCALL   ?BDISPATCH
   \   000003   ......       DC24    afFindEndPointDescList

   \                                 In  segment BANK_RELAYS, align 1
   \                     ??afFindEndPointDesc?relay:
   \   000000   12....       LCALL   ?BDISPATCH
   \   000003   ......       DC24    afFindEndPointDesc

   \                                 In  segment BANK_RELAYS, align 1
   \                     ??afFindSimpleDesc?relay:
   \   000000   12....       LCALL   ?BDISPATCH
   \   000003   ......       DC24    afFindSimpleDesc

   \                                 In  segment BANK_RELAYS, align 1
   \                     ??afGetDescCB?relay:
   \   000000   12....       LCALL   ?BDISPATCH
   \   000003   ......       DC24    afGetDescCB

   \                                 In  segment BANK_RELAYS, align 1
   \                     ??afDataReqMTU?relay:
   \   000000   12....       LCALL   ?BDISPATCH
   \   000003   ......       DC24    afDataReqMTU

   \                                 In  segment BANK_RELAYS, align 1
   \                     ??afGetMatch?relay:
   \   000000   12....       LCALL   ?BDISPATCH
   \   000003   ......       DC24    afGetMatch

   \                                 In  segment BANK_RELAYS, align 1
   \                     ??afSetMatch?relay:
   \   000000   12....       LCALL   ?BDISPATCH
   \   000003   ......       DC24    afSetMatch

   \                                 In  segment BANK_RELAYS, align 1
   \                     ??afNumEndPoints?relay:
   \   000000   12....       LCALL   ?BDISPATCH
   \   000003   ......       DC24    afNumEndPoints

   \                                 In  segment BANK_RELAYS, align 1
   \                     ??afEndPoints?relay:
   \   000000   12....       LCALL   ?BDISPATCH
   \   000003   ......       DC24    afEndPoints

   \                                 In  segment BANK_RELAYS, align 1
   \                     ??afCopyAddress?relay:
   \   000000   12....       LCALL   ?BDISPATCH
   \   000003   ......       DC24    afCopyAddress

   \                                 In  segment BANK_RELAYS, align 1
   \                     ??afAPSF_ConfigGet?relay:
   \   000000   12....       LCALL   ?BDISPATCH
   \   000003   ......       DC24    afAPSF_ConfigGet

   \                                 In  segment BANK_RELAYS, align 1
   \                     ??afAPSF_ConfigSet?relay:
   \   000000   12....       LCALL   ?BDISPATCH
   \   000003   ......       DC24    afAPSF_ConfigSet
   1084          
   1085          /**************************************************************************************************
   1086          */

   Maximum stack usage in bytes:

     Function                       ISTACK PSTACK XSTACK
     --------                       ------ ------ ------
     AF_DataRequest                     2      0     81
       -> NLME_GetShortAddr             4      0    104
       -> RTG_CheckRtStatus             0      0    104
       -> NLME_IsAddressBroadcast       0      0    104
       -> sAddrExtCpy                   0      0    104
       -> afGetDescCB                   0      0    104
       -> osal_mem_free                 0      0    104
       -> afDataReqMTU                  0      0    104
       -> APSDE_DataReq                 0      0    104
       -> NLME_GetShortAddr             0      0    104
       -> afDataConfirm                 0      0    104
     AF_DataRequestSrcRtg               0      0     41
       -> RTG_AddSrcRtgEntry_Guaranteed
                                        0      0     40
       -> AF_DataRequest                0      0     58
     afAPSF_ConfigGet                   0      0     15
       -> afFindEndPointDescList        0      0     24
       -> osal_memcpy                   0      0     30
     afAPSF_ConfigSet                   0      0     15
       -> afFindEndPointDescList        0      0     24
       -> osal_memcpy                   0      0     30
     afBuildMSGIncoming                 1      0     65
       -> osal_msg_allocate             0      0     48
       -> afCopyAddress                 0      0     48
       -> osal_memcpy                   0      0     54
       -> osal_msg_send                 0      0     48
     afCopyAddress                      1      0     34
       -> sAddrExtCpy                   0      0     20
     afDataConfirm                      1      0     66
       -> afFindEndPointDesc            0      0     28
       -> osal_msg_allocate             0      0     28
       -> osal_msg_send                 0      0     28
     afDataReqMTU                       0      0     61
       -> APSDE_DataReqMTU              0      0     18
     afDelete                           0      0      9
       -> osal_mem_free                 0      0     18
       -> osal_mem_free                 0      0     18
     afEndPoints                        3      0      0
     afFindEndPointDesc                 0      0     37
       -> afFindEndPointDescList        0      0     20
     afFindEndPointDescList             2      0     27
     afFindSimpleDesc                   0      0     12
       -> afFindEndPointDescList        0      0     24
     afGetDescCB                        2      0     52
     afGetMatch                         0      0     10
       -> afFindEndPointDescList        0      0     20
     afIncomingData                     1      0     47
       -> aps_FindGroupForEndpoint      0      0     54
       -> afFindEndPointDesc            0      0     54
       -> afFindEndPointDescList        0      0     54
       -> afFindEndPointDesc            0      0     54
       -> afFindEndPointDescList        0      0     54
       -> afFindEndPointDescList        0      0     54
       -> osal_mem_free                 0      0     54
       -> afBuildMSGIncoming            0      0     76
       -> aps_FindGroupForEndpoint      0      0     54
       -> afFindEndPointDesc            0      0     54
     afNumEndPoints                     2      0      0
     afRegister                         0      0     10
       -> afFindEndPointDescList        0      0     20
       -> afRegisterExtended            0      0     20
     afRegisterExtended                 0      0     22
       -> osal_mem_alloc                0      0     24
     afSetMatch                         0      0     10
       -> afFindEndPointDescList        0      0     20


   Segment part sizes:

     Function/Label                                 Bytes
     --------------                                 -----
     epList                                            2
     afRegisterExtended                              130
     afRegister                                       64
     afDelete                                        146
     afDataConfirm                                   111
     afIncomingData                                  691
     afBuildMSGIncoming                              627
     AF_DataRequestDiscoverRoute                       1
     AF_DataRequest                                  948
     AF_DataRequestSrcRtg                            172
     afFindEndPointDescList                           52
     afFindEndPointDesc                               45
     afFindSimpleDesc                                132
     afGetDescCB                                      72
     afDataReqMTU                                     41
     afGetMatch                                       55
     afSetMatch                                       70
     afNumEndPoints                                   43
     afEndPoints                                      71
     afCopyAddress                                   115
     afAPSF_ConfigGet                                 94
     afAPSF_ConfigSet                                 81
     ?<Initializer for AF_DataRequestDiscoverRoute>    1
     ??afRegisterExtended?relay                        6
     ??afRegister?relay                                6
     ??afDelete?relay                                  6
     ??afDataConfirm?relay                             6
     ??afIncomingData?relay                            6
     ??afBuildMSGIncoming?relay                        6
     ??AF_DataRequest?relay                            6
     ??AF_DataRequestSrcRtg?relay                      6
     ??afFindEndPointDescList?relay                    6
     ??afFindEndPointDesc?relay                        6
     ??afFindSimpleDesc?relay                          6
     ??afGetDescCB?relay                               6
     ??afDataReqMTU?relay                              6
     ??afGetMatch?relay                                6
     ??afSetMatch?relay                                6
     ??afNumEndPoints?relay                            6
     ??afEndPoints?relay                               6
     ??afCopyAddress?relay                             6
     ??afAPSF_ConfigGet?relay                          6
     ??afAPSF_ConfigSet?relay                          6

 
 3 760 bytes in segment BANKED_CODE
   120 bytes in segment BANK_RELAYS
     1 byte  in segment XDATA_I
     1 byte  in segment XDATA_ID
     2 bytes in segment XDATA_Z
 
 3 881 bytes of CODE  memory
     3 bytes of XDATA memory

Errors: none
Warnings: none
