###############################################################################
#                                                                             #
# IAR C/C++ Compiler V8.10.3.10338/W32 for 8051         25/Aug/2018  23:10:09 #
# Copyright 2004-2011 IAR Systems AB.                                         #
#                                                                             #
#    Core               =  plain                                              #
#    Code model         =  banked                                             #
#    Data model         =  large                                              #
#    Calling convention =  xdata reentrant                                    #
#    Constant location  =  data_rom                                           #
#    Dptr setup         =  1,16                                               #
#    Source file        =  F:\work\iot-hardware\logger\logger\Components\stac #
#                          k\nwk\BindingTable.c                               #
#    Command line       =  -f F:\work\iot-hardware\logger\logger\Projects\zst #
#                          ack\Samples\GenericApp\CC2530DB\..\..\..\Tools\CC2 #
#                          530DB\f8wEndev.cfg (-DCPU32MHZ -DROOT=__near_func  #
#                          -DMAC_CFG_TX_DATA_MAX=3 -DMAC_CFG_TX_MAX=6         #
#                          -DMAC_CFG_RX_MAX=3) -f F:\work\iot-hardware\logger #
#                          \logger\Projects\zstack\Samples\GenericApp\CC2530D #
#                          B\..\..\..\Tools\CC2530DB\f8wConfig.cfg            #
#                          (-DZIGBEEPRO -DSECURE=0 -DZG_SECURE_DYNAMIC=0      #
#                          -DREFLECTOR -DDEFAULT_CHANLIST=0x00000800          #
#                          -DZDAPP_CONFIG_PAN_ID=0xFFFF                       #
#                          -DNWK_START_DELAY=100 -DEXTENDED_JOINING_RANDOM_MA #
#                          SK=0x007F -DBEACON_REQUEST_DELAY=100               #
#                          -DBEACON_REQ_DELAY_MASK=0x00FF                     #
#                          -DLINK_STATUS_JITTER_MASK=0x007F                   #
#                          -DROUTE_EXPIRY_TIME=30 -DAPSC_ACK_WAIT_DURATION_PO #
#                          LLED=3000 -DNWK_INDIRECT_MSG_TIMEOUT=7             #
#                          -DMAX_RREQ_ENTRIES=8 -DAPSC_MAX_FRAME_RETRIES=3    #
#                          -DNWK_MAX_DATA_RETRIES=2                           #
#                          -DMAX_POLL_FAILURE_RETRIES=2 -DMAX_BCAST=9         #
#                          -DAPS_MAX_GROUPS=16 -DMAX_RTG_ENTRIES=40           #
#                          -DNWK_MAX_BINDING_ENTRIES=4                        #
#                          -DMAX_BINDING_CLUSTER_IDS=4 "-DDEFAULT_KEY={0x01,  #
#                          0x03, 0x05, 0x07, 0x09, 0x0B, 0x0D, 0x0F, 0x00,    #
#                          0x02, 0x04, 0x06, 0x08, 0x0A, 0x0C, 0x0D}"         #
#                          -DMAC_MAX_FRAME_SIZE=116                           #
#                          -DZDNWKMGR_MIN_TRANSMISSIONS=20 "-DCONST=const     #
#                          __code" -DGENERIC=__generic                        #
#                          -DRFD_RCVC_ALWAYS_ON=FALSE -DPOLL_RATE=1000        #
#                          -DQUEUED_POLL_RATE=100 -DRESPONSE_POLL_RATE=100)   #
#                          -DREJOIN_POLL_RATE=440 F:\work\iot-hardware\logger #
#                          \logger\Components\stack\nwk\BindingTable.c -D     #
#                          NWK_AUTO_POLL -D ZTOOL_P1 -D MT_TASK -D            #
#                          MT_SYS_FUNC -D MT_ZDO_FUNC -D LCD_SUPPORTED=DEBUG  #
#                          -D xPOWER_SAVING -lC F:\work\iot-hardware\logger\l #
#                          ogger\Projects\zstack\Samples\GenericApp\CC2530DB\ #
#                          EndDeviceEB\List\ -lA F:\work\iot-hardware\logger\ #
#                          logger\Projects\zstack\Samples\GenericApp\CC2530DB #
#                          \EndDeviceEB\List\ --diag_suppress Pe001,Pa010 -o  #
#                          F:\work\iot-hardware\logger\logger\Projects\zstack #
#                          \Samples\GenericApp\CC2530DB\EndDeviceEB\Obj\ -e   #
#                          --no_cse --no_unroll --no_inline --no_code_motion  #
#                          --no_tbaa --debug --core=plain --dptr=16,1         #
#                          --data_model=large --code_model=banked             #
#                          --calling_convention=xdata_reentrant               #
#                          --place_constants=data_rom --nr_virtual_regs 16    #
#                          -I F:\work\iot-hardware\logger\logger\Projects\zst #
#                          ack\Samples\GenericApp\CC2530DB\ -I                #
#                          F:\work\iot-hardware\logger\logger\Projects\zstack #
#                          \Samples\GenericApp\CC2530DB\..\Source\ -I         #
#                          F:\work\iot-hardware\logger\logger\Projects\zstack #
#                          \Samples\GenericApp\CC2530DB\..\..\..\ZMain\TI2530 #
#                          DB\ -I F:\work\iot-hardware\logger\logger\Projects #
#                          \zstack\Samples\GenericApp\CC2530DB\..\..\..\..\.. #
#                          \Components\hal\include\ -I                        #
#                          F:\work\iot-hardware\logger\logger\Projects\zstack #
#                          \Samples\GenericApp\CC2530DB\..\..\..\..\..\Compon #
#                          ents\hal\target\CC2530EB\ -I                       #
#                          F:\work\iot-hardware\logger\logger\Projects\zstack #
#                          \Samples\GenericApp\CC2530DB\..\..\..\..\..\Compon #
#                          ents\mac\include\ -I F:\work\iot-hardware\logger\l #
#                          ogger\Projects\zstack\Samples\GenericApp\CC2530DB\ #
#                          ..\..\..\..\..\Components\mac\high_level\ -I       #
#                          F:\work\iot-hardware\logger\logger\Projects\zstack #
#                          \Samples\GenericApp\CC2530DB\..\..\..\..\..\Compon #
#                          ents\mac\low_level\srf04\ -I                       #
#                          F:\work\iot-hardware\logger\logger\Projects\zstack #
#                          \Samples\GenericApp\CC2530DB\..\..\..\..\..\Compon #
#                          ents\mac\low_level\srf04\single_chip\ -I           #
#                          F:\work\iot-hardware\logger\logger\Projects\zstack #
#                          \Samples\GenericApp\CC2530DB\..\..\..\..\..\Compon #
#                          ents\mt\ -I F:\work\iot-hardware\logger\logger\Pro #
#                          jects\zstack\Samples\GenericApp\CC2530DB\..\..\..\ #
#                          ..\..\Components\osal\include\ -I                  #
#                          F:\work\iot-hardware\logger\logger\Projects\zstack #
#                          \Samples\GenericApp\CC2530DB\..\..\..\..\..\Compon #
#                          ents\services\saddr\ -I F:\work\iot-hardware\logge #
#                          r\logger\Projects\zstack\Samples\GenericApp\CC2530 #
#                          DB\..\..\..\..\..\Components\services\sdata\ -I    #
#                          F:\work\iot-hardware\logger\logger\Projects\zstack #
#                          \Samples\GenericApp\CC2530DB\..\..\..\..\..\Compon #
#                          ents\stack\af\ -I F:\work\iot-hardware\logger\logg #
#                          er\Projects\zstack\Samples\GenericApp\CC2530DB\..\ #
#                          ..\..\..\..\Components\stack\nwk\ -I               #
#                          F:\work\iot-hardware\logger\logger\Projects\zstack #
#                          \Samples\GenericApp\CC2530DB\..\..\..\..\..\Compon #
#                          ents\stack\sapi\ -I F:\work\iot-hardware\logger\lo #
#                          gger\Projects\zstack\Samples\GenericApp\CC2530DB\. #
#                          .\..\..\..\..\Components\stack\sec\ -I             #
#                          F:\work\iot-hardware\logger\logger\Projects\zstack #
#                          \Samples\GenericApp\CC2530DB\..\..\..\..\..\Compon #
#                          ents\stack\sys\ -I F:\work\iot-hardware\logger\log #
#                          ger\Projects\zstack\Samples\GenericApp\CC2530DB\.. #
#                          \..\..\..\..\Components\stack\zdo\ -I              #
#                          F:\work\iot-hardware\logger\logger\Projects\zstack #
#                          \Samples\GenericApp\CC2530DB\..\..\..\..\..\Compon #
#                          ents\zmac\ -I F:\work\iot-hardware\logger\logger\P #
#                          rojects\zstack\Samples\GenericApp\CC2530DB\..\..\. #
#                          .\..\..\Components\zmac\f8w\ -Ol                   #
#                          --require_prototypes                               #
#    List file          =  F:\work\iot-hardware\logger\logger\Projects\zstack #
#                          \Samples\GenericApp\CC2530DB\EndDeviceEB\List\Bind #
#                          ingTable.lst                                       #
#    Object file        =  F:\work\iot-hardware\logger\logger\Projects\zstack #
#                          \Samples\GenericApp\CC2530DB\EndDeviceEB\Obj\Bindi #
#                          ngTable.r51                                        #
#                                                                             #
#                                                                             #
###############################################################################

F:\work\iot-hardware\logger\logger\Components\stack\nwk\BindingTable.c
      1          /**************************************************************************************************
      2            Filename:       BindingTable.c
      3            Revised:        $Date: 2012-03-28 15:40:50 -0700 (Wed, 28 Mar 2012) $
      4            Revision:       $Revision: 29930 $
      5          
      6            Description:    Device binding table functions.
      7          
      8          
      9            Copyright 2004-2012 Texas Instruments Incorporated. All rights reserved.
     10          
     11            IMPORTANT: Your use of this Software is limited to those specific rights
     12            granted under the terms of a software license agreement between the user
     13            who downloaded the software, his/her employer (which must be your employer)
     14            and Texas Instruments Incorporated (the "License"). You may not use this
     15            Software unless you agree to abide by the terms of the License. The License
     16            limits your use, and you acknowledge, that the Software may not be modified,
     17            copied or distributed unless embedded on a Texas Instruments microcontroller
     18            or used solely and exclusively in conjunction with a Texas Instruments radio
     19            frequency transceiver, which is integrated into your product. Other than for
     20            the foregoing purpose, you may not use, reproduce, copy, prepare derivative
     21            works of, modify, distribute, perform, display or sell this Software and/or
     22            its documentation for any purpose.
     23          
     24            YOU FURTHER ACKNOWLEDGE AND AGREE THAT THE SOFTWARE AND DOCUMENTATION ARE
     25            PROVIDED “AS IS” WITHOUT WARRANTY OF ANY KIND, EITHER EXPRESS OR IMPLIED,
     26            INCLUDING WITHOUT LIMITATION, ANY WARRANTY OF MERCHANTABILITY, TITLE,
     27            NON-INFRINGEMENT AND FITNESS FOR A PARTICULAR PURPOSE. IN NO EVENT SHALL
     28            TEXAS INSTRUMENTS OR ITS LICENSORS BE LIABLE OR OBLIGATED UNDER CONTRACT,
     29            NEGLIGENCE, STRICT LIABILITY, CONTRIBUTION, BREACH OF WARRANTY, OR OTHER
     30            LEGAL EQUITABLE THEORY ANY DIRECT OR INDIRECT DAMAGES OR EXPENSES
     31            INCLUDING BUT NOT LIMITED TO ANY INCIDENTAL, SPECIAL, INDIRECT, PUNITIVE
     32            OR CONSEQUENTIAL DAMAGES, LOST PROFITS OR LOST DATA, COST OF PROCUREMENT
     33            OF SUBSTITUTE GOODS, TECHNOLOGY, SERVICES, OR ANY CLAIMS BY THIRD PARTIES
     34            (INCLUDING BUT NOT LIMITED TO ANY DEFENSE THEREOF), OR OTHER SIMILAR COSTS.
     35          
     36            Should you have any questions regarding your right to use this Software,
     37            contact Texas Instruments Incorporated at www.TI.com.
     38          **************************************************************************************************/
     39          
     40          /*********************************************************************
     41           * INCLUDES
     42           */
     43          #include "ZComDef.h"
     44          #include "OSAL.h"
     45          #include "OSAL_Nv.h"
     46          #include "nwk_globals.h"
     47          #include "AddrMgr.h"
     48          #include "BindingTable.h"
     49          
     50          /*********************************************************************
     51           * MACROS
     52           */
     53          
     54          /*********************************************************************
     55           * CONSTANTS
     56           */
     57          #define NV_BIND_EMPTY   0xFF
     58          #define NV_BIND_REC_SIZE (gBIND_REC_SIZE)
     59          #define NV_BIND_ITEM_SIZE  (gBIND_REC_SIZE * gNWK_MAX_BINDING_ENTRIES)
     60          
     61          /*********************************************************************
     62           * TYPEDEFS
     63           */
     64          typedef struct
     65          {
     66            uint8        srcEP;
     67            uint16       srcIndex;
     68            uint16       dstIndex;
     69            uint8        dstEP;
     70            uint8        dstAddrMode;
     71            uint8        clusterIDs;
     72            uint16*      clusterIDList;
     73          } bindFields_t;
     74          
     75          /*********************************************************************
     76           * GLOBAL VARIABLES
     77           */
     78          
     79          /*********************************************************************
     80           * LOCAL FUNCTIONS
     81           */
     82          void BindAddrMgrCB( uint8 update, AddrMgrEntry_t *entryOld,
     83                              AddrMgrEntry_t *entryNew );
     84          BindingEntry_t *bindFindEmpty( void );
     85          uint16 bindingAddrMgsHelperFind( zAddrType_t *addr );
     86          uint8 bindingAddrMgsHelperConvert( uint16 idx, zAddrType_t *addr );
     87          void bindAddrMgrLocalLoad( void );
     88          uint16 bindAddrIndexGet( zAddrType_t* addr );
     89          
     90          /*********************************************************************
     91           * LOCAL VARIABLES
     92           */

   \                                 In  segment XDATA_Z, align 1, keep-with-next
     93          static uint8 bindAddrMgrLocalLoaded = FALSE;
   \                     bindAddrMgrLocalLoaded:
   \   000000                DS 1
   \   000001                REQUIRE __INIT_XDATA_Z
     94          
     95          /*********************************************************************
     96           * Function Pointers
     97           */
     98          

   \                                 In  segment XDATA_Z, align 1, keep-with-next
     99          BindingEntry_t *(*pbindAddEntry)( byte srcEpInt,
   \                     pbindAddEntry:
   \   000000                DS 2
   \   000002                REQUIRE __INIT_XDATA_Z
    100                                            zAddrType_t *dstAddr, byte dstEpInt,
    101                                            byte numClusterIds, uint16 *clusterIds ) = (void*)NULL;

   \                                 In  segment XDATA_Z, align 1, keep-with-next
    102          uint16 (*pbindNumOfEntries)( void ) = (void*)NULL;
   \                     pbindNumOfEntries:
   \   000000                DS 2
   \   000002                REQUIRE __INIT_XDATA_Z

   \                                 In  segment XDATA_Z, align 1, keep-with-next
    103          void (*pbindRemoveDev)( zAddrType_t *Addr ) = (void*)NULL;
   \                     pbindRemoveDev:
   \   000000                DS 2
   \   000002                REQUIRE __INIT_XDATA_Z

   \                                 In  segment XDATA_Z, align 1, keep-with-next
    104          byte (*pBindInitNV)( void ) = (void*)NULL;
   \                     pBindInitNV:
   \   000000                DS 2
   \   000002                REQUIRE __INIT_XDATA_Z

   \                                 In  segment XDATA_Z, align 1, keep-with-next
    105          void (*pBindSetDefaultNV)( void ) = (void*)NULL;
   \                     pBindSetDefaultNV:
   \   000000                DS 2
   \   000002                REQUIRE __INIT_XDATA_Z

   \                                 In  segment XDATA_Z, align 1, keep-with-next
    106          uint16 (*pBindRestoreFromNV)( void ) = (void*)NULL;
   \                     pBindRestoreFromNV:
   \   000000                DS 2
   \   000002                REQUIRE __INIT_XDATA_Z

   \                                 In  segment XDATA_Z, align 1, keep-with-next
    107          void (*pBindWriteNV)( void ) = (void*)NULL;
   \                     pBindWriteNV:
   \   000000                DS 2
   \   000002                REQUIRE __INIT_XDATA_Z
    108          
    109          #if ( ADDRMGR_CALLBACK_ENABLED == 1 )
    110          /*********************************************************************
    111           * @fn      BindAddrMgrCB()
    112           *
    113           * @brief   Address Manager Callback function
    114           *
    115           * @param   update -
    116           * @param   entry -
    117           *
    118           * @return  pointer to
    119           */
    120          void BindAddrMgrCB( uint8 update, AddrMgrEntry_t *entryNew,
    121                              AddrMgrEntry_t *entryOld )
    122          {
    123            // Check for either deleted items or changed Extended (Duplicate) addresses
    124          }
    125          #endif // ( ADDRMGR_CALLBACK_ENABLED == 1 )
    126          
    127          /*********************************************************************
    128           * @fn      InitBindingTable()
    129           *
    130           * @brief
    131           *
    132           *   This function is used to initialise the binding table
    133           *
    134           * @param   none
    135           *
    136           * @return  none
    137           */

   \                                 In  segment BANKED_CODE, align 1, keep-with-next
    138          void InitBindingTable( void )
   \                     InitBindingTable:
    139          {
   \   000000   74F6         MOV     A,#-0xa
   \   000002   12....       LCALL   ?BANKED_ENTER_XDATA
   \   000005                ; Saved register size: 10
   \   000005                ; Auto size: 0
    140            osal_memset( BindingTable, 0xFF, gBIND_REC_SIZE * gNWK_MAX_BINDING_ENTRIES );
   \   000005                ; Setup parameters for call to function osal_memset
   \   000005   90....       MOV     DPTR,#gBIND_REC_SIZE
   \   000008   E4           CLR     A
   \   000009   93           MOVC    A,@A+DPTR
   \   00000A   FC           MOV     R4,A
   \   00000B   7401         MOV     A,#0x1
   \   00000D   93           MOVC    A,@A+DPTR
   \   00000E   FD           MOV     R5,A
   \   00000F   90....       MOV     DPTR,#gNWK_MAX_BINDING_ENTRIES
   \   000012   E4           CLR     A
   \   000013   93           MOVC    A,@A+DPTR
   \   000014   F5..         MOV     ?V0 + 0,A
   \   000016   7401         MOV     A,#0x1
   \   000018   93           MOVC    A,@A+DPTR
   \   000019   F5..         MOV     ?V0 + 1,A
   \   00001B   EC           MOV     A,R4
   \   00001C   85..F0       MOV     B,?V0 + 0
   \   00001F   A4           MUL     AB
   \   000020   CC           XCH     A,R4
   \   000021   A8F0         MOV     R0,B
   \   000023   85..F0       MOV     B,?V0 + 1
   \   000026   A4           MUL     AB
   \   000027   28           ADD     A,R0
   \   000028   F8           MOV     R0,A
   \   000029   85..F0       MOV     B,?V0 + 0
   \   00002C   ED           MOV     A,R5
   \   00002D   A4           MUL     AB
   \   00002E   28           ADD     A,R0
   \   00002F   FD           MOV     R5,A
   \   000030   79FF         MOV     R1,#-0x1
   \   000032   7A..         MOV     R2,#BindingTable & 0xff
   \   000034   7B..         MOV     R3,#(BindingTable >> 8) & 0xff
   \   000036   12....       LCALL   ??osal_memset?relay
    141          
    142            pbindAddEntry = bindAddEntry;
   \   000039   90....       MOV     DPTR,#pbindAddEntry
   \   00003C   74..         MOV     A,#??bindAddEntry?relay & 0xff
   \   00003E   F0           MOVX    @DPTR,A
   \   00003F   A3           INC     DPTR
   \   000040   74..         MOV     A,#(??bindAddEntry?relay >> 8) & 0xff
   \   000042   F0           MOVX    @DPTR,A
    143            pbindNumOfEntries = bindNumOfEntries;
   \   000043   90....       MOV     DPTR,#pbindNumOfEntries
   \   000046   74..         MOV     A,#??bindNumOfEntries?relay & 0xff
   \   000048   F0           MOVX    @DPTR,A
   \   000049   A3           INC     DPTR
   \   00004A   74..         MOV     A,#(??bindNumOfEntries?relay >> 8) & 0xff
   \   00004C   F0           MOVX    @DPTR,A
    144            pbindRemoveDev = bindRemoveDev;
   \   00004D   90....       MOV     DPTR,#pbindRemoveDev
   \   000050   74..         MOV     A,#??bindRemoveDev?relay & 0xff
   \   000052   F0           MOVX    @DPTR,A
   \   000053   A3           INC     DPTR
   \   000054   74..         MOV     A,#(??bindRemoveDev?relay >> 8) & 0xff
   \   000056   F0           MOVX    @DPTR,A
    145            pBindInitNV = BindInitNV;
   \   000057   90....       MOV     DPTR,#pBindInitNV
   \   00005A   74..         MOV     A,#??BindInitNV?relay & 0xff
   \   00005C   F0           MOVX    @DPTR,A
   \   00005D   A3           INC     DPTR
   \   00005E   74..         MOV     A,#(??BindInitNV?relay >> 8) & 0xff
   \   000060   F0           MOVX    @DPTR,A
    146            pBindSetDefaultNV = BindSetDefaultNV;
   \   000061   90....       MOV     DPTR,#pBindSetDefaultNV
   \   000064   74..         MOV     A,#??BindSetDefaultNV?relay & 0xff
   \   000066   F0           MOVX    @DPTR,A
   \   000067   A3           INC     DPTR
   \   000068   74..         MOV     A,#(??BindSetDefaultNV?relay >> 8) & 0xff
   \   00006A   F0           MOVX    @DPTR,A
    147            pBindRestoreFromNV = BindRestoreFromNV;
   \   00006B   90....       MOV     DPTR,#pBindRestoreFromNV
   \   00006E   74..         MOV     A,#??BindRestoreFromNV?relay & 0xff
   \   000070   F0           MOVX    @DPTR,A
   \   000071   A3           INC     DPTR
   \   000072   74..         MOV     A,#(??BindRestoreFromNV?relay >> 8) & 0xff
   \   000074   F0           MOVX    @DPTR,A
    148            pBindWriteNV = BindWriteNV;
   \   000075   90....       MOV     DPTR,#pBindWriteNV
   \   000078   74..         MOV     A,#??BindWriteNV?relay & 0xff
   \   00007A   F0           MOVX    @DPTR,A
   \   00007B   A3           INC     DPTR
   \   00007C   74..         MOV     A,#(??BindWriteNV?relay >> 8) & 0xff
   \   00007E   F0           MOVX    @DPTR,A
    149          
    150            bindAddrMgrLocalLoaded = FALSE;
   \   00007F   90....       MOV     DPTR,#bindAddrMgrLocalLoaded
   \   000082   7400         MOV     A,#0x0
   \   000084   F0           MOVX    @DPTR,A
    151          
    152          #if ( ADDRMGR_CALLBACK_ENABLED == 1 )
    153            // Register with the address manager
    154            AddrMgrRegister( ADDRMGR_REG_BINDING, BindAddrMgrCB );
    155          #endif
    156          }
   \   000085   7F02         MOV     R7,#0x2
   \   000087   02....       LJMP    ?BANKED_LEAVE_XDATA
    157          
    158          /*********************************************************************
    159           * @fn      bindFindEmpty()
    160           *
    161           * @brief   This function returns a pointer to an empty binding slot
    162           *
    163           * @param   none
    164           *
    165           * @return  pointer to binding table entry, NULL if not added
    166           */

   \                                 In  segment BANKED_CODE, align 1, keep-with-next
    167          BindingEntry_t *bindFindEmpty( void )
   \                     bindFindEmpty:
    168          {
   \   000000   C082         PUSH    DPL
   \   000002   C083         PUSH    DPH
   \   000004                ; Saved register size: 2
   \   000004                ; Auto size: 0
    169            uint16 x;
    170          
    171            for ( x = 0; x < gNWK_MAX_BINDING_ENTRIES; x++ )
   \   000004   7800         MOV     R0,#0x0
   \   000006   7900         MOV     R1,#0x0
   \   000008   8008         SJMP    ??bindFindEmpty_0
   \                     ??bindFindEmpty_1:
   \   00000A   E8           MOV     A,R0
   \   00000B   2401         ADD     A,#0x1
   \   00000D   F8           MOV     R0,A
   \   00000E   E9           MOV     A,R1
   \   00000F   3400         ADDC    A,#0x0
   \   000011   F9           MOV     R1,A
   \                     ??bindFindEmpty_0:
   \   000012   90....       MOV     DPTR,#gNWK_MAX_BINDING_ENTRIES
   \   000015   E4           CLR     A
   \   000016   93           MOVC    A,@A+DPTR
   \   000017   FA           MOV     R2,A
   \   000018   7401         MOV     A,#0x1
   \   00001A   93           MOVC    A,@A+DPTR
   \   00001B   FB           MOV     R3,A
   \   00001C   C3           CLR     C
   \   00001D   E8           MOV     A,R0
   \   00001E   9A           SUBB    A,R2
   \   00001F   E9           MOV     A,R1
   \   000020   9B           SUBB    A,R3
   \   000021   5047         JNC     ??bindFindEmpty_2
    172            {
    173              // It's empty if the index is "Not Found"
    174              if ( BindingTable[x].srcEP == NV_BIND_EMPTY )
   \   000023   E8           MOV     A,R0
   \   000024   FA           MOV     R2,A
   \   000025   E9           MOV     A,R1
   \   000026   FB           MOV     R3,A
   \   000027   EA           MOV     A,R2
   \   000028   75F00E       MOV     B,#0xe
   \   00002B   A4           MUL     AB
   \   00002C   CA           XCH     A,R2
   \   00002D   ACF0         MOV     R4,B
   \   00002F   75F000       MOV     B,#0x0
   \   000032   A4           MUL     AB
   \   000033   2C           ADD     A,R4
   \   000034   FC           MOV     R4,A
   \   000035   75F00E       MOV     B,#0xe
   \   000038   EB           MOV     A,R3
   \   000039   A4           MUL     AB
   \   00003A   2C           ADD     A,R4
   \   00003B   FB           MOV     R3,A
   \   00003C   74..         MOV     A,#BindingTable & 0xff
   \   00003E   2A           ADD     A,R2
   \   00003F   F582         MOV     DPL,A
   \   000041   74..         MOV     A,#(BindingTable >> 8) & 0xff
   \   000043   3B           ADDC    A,R3
   \   000044   F583         MOV     DPH,A
   \   000046   E0           MOVX    A,@DPTR
   \   000047   64FF         XRL     A,#0xff
   \   000049   70BF         JNZ     ??bindFindEmpty_1
    175              {
    176                return ( &BindingTable[x] );
   \   00004B   E8           MOV     A,R0
   \   00004C   75F00E       MOV     B,#0xe
   \   00004F   A4           MUL     AB
   \   000050   C8           XCH     A,R0
   \   000051   AAF0         MOV     R2,B
   \   000053   75F000       MOV     B,#0x0
   \   000056   A4           MUL     AB
   \   000057   2A           ADD     A,R2
   \   000058   FA           MOV     R2,A
   \   000059   75F00E       MOV     B,#0xe
   \   00005C   E9           MOV     A,R1
   \   00005D   A4           MUL     AB
   \   00005E   2A           ADD     A,R2
   \   00005F   F9           MOV     R1,A
   \   000060   74..         MOV     A,#BindingTable & 0xff
   \   000062   28           ADD     A,R0
   \   000063   FA           MOV     R2,A
   \   000064   74..         MOV     A,#(BindingTable >> 8) & 0xff
   \   000066   39           ADDC    A,R1
   \   000067   FB           MOV     R3,A
   \   000068   8004         SJMP    ??bindFindEmpty_3
    177              }
    178            }
    179          
    180            return ( (BindingEntry_t *)NULL );
   \                     ??bindFindEmpty_2:
   \   00006A   7A00         MOV     R2,#0x0
   \   00006C   7B00         MOV     R3,#0x0
   \                     ??bindFindEmpty_3:
   \   00006E   D083         POP     DPH
   \   000070   D082         POP     DPL
   \   000072   02....       LJMP    ?BRET
    181          }
    182          
    183          /*********************************************************************
    184           * @fn      bindNumOfEntries()
    185           *
    186           * @brief   This function returns the number of binding table entries.
    187           *          The return for this is the number of clusters in the
    188           *          table NOT the number of entries.
    189           *
    190           * @param   none
    191           *
    192           * @return  number of entries
    193           */

   \                                 In  segment BANKED_CODE, align 1, keep-with-next
    194          uint16 bindNumOfEntries( void )
   \                     bindNumOfEntries:
    195          {
   \   000000   74F7         MOV     A,#-0x9
   \   000002   12....       LCALL   ?BANKED_ENTER_XDATA
   \   000005                ; Saved register size: 9
   \   000005                ; Auto size: 0
    196            uint16 x;
    197            uint16 found;
    198          
    199            for ( found = 0, x = 0; x < gNWK_MAX_BINDING_ENTRIES; x++ )
   \   000005   7A00         MOV     R2,#0x0
   \   000007   7B00         MOV     R3,#0x0
   \   000009   7800         MOV     R0,#0x0
   \   00000B   7900         MOV     R1,#0x0
   \   00000D   805D         SJMP    ??bindNumOfEntries_0
    200            {
    201              // It's empty if the index is "Not Found"
    202              if ( BindingTable[x].srcEP != NV_BIND_EMPTY )
   \                     ??bindNumOfEntries_1:
   \   00000F   E8           MOV     A,R0
   \   000010   FC           MOV     R4,A
   \   000011   E9           MOV     A,R1
   \   000012   FD           MOV     R5,A
   \   000013   EC           MOV     A,R4
   \   000014   75F00E       MOV     B,#0xe
   \   000017   A4           MUL     AB
   \   000018   CC           XCH     A,R4
   \   000019   AEF0         MOV     R6,B
   \   00001B   75F000       MOV     B,#0x0
   \   00001E   A4           MUL     AB
   \   00001F   2E           ADD     A,R6
   \   000020   FE           MOV     R6,A
   \   000021   75F00E       MOV     B,#0xe
   \   000024   ED           MOV     A,R5
   \   000025   A4           MUL     AB
   \   000026   2E           ADD     A,R6
   \   000027   FD           MOV     R5,A
   \   000028   74..         MOV     A,#BindingTable & 0xff
   \   00002A   2C           ADD     A,R4
   \   00002B   F582         MOV     DPL,A
   \   00002D   74..         MOV     A,#(BindingTable >> 8) & 0xff
   \   00002F   3D           ADDC    A,R5
   \   000030   F583         MOV     DPH,A
   \   000032   E0           MOVX    A,@DPTR
   \   000033   64FF         XRL     A,#0xff
   \   000035   602D         JZ      ??bindNumOfEntries_2
    203              {
    204                found += BindingTable[x].numClusterIds;
   \   000037   E8           MOV     A,R0
   \   000038   FC           MOV     R4,A
   \   000039   E9           MOV     A,R1
   \   00003A   FD           MOV     R5,A
   \   00003B   EC           MOV     A,R4
   \   00003C   75F00E       MOV     B,#0xe
   \   00003F   A4           MUL     AB
   \   000040   CC           XCH     A,R4
   \   000041   AEF0         MOV     R6,B
   \   000043   75F000       MOV     B,#0x0
   \   000046   A4           MUL     AB
   \   000047   2E           ADD     A,R6
   \   000048   FE           MOV     R6,A
   \   000049   75F00E       MOV     B,#0xe
   \   00004C   ED           MOV     A,R5
   \   00004D   A4           MUL     AB
   \   00004E   2E           ADD     A,R6
   \   00004F   FD           MOV     R5,A
   \   000050   74..         MOV     A,#(BindingTable + 5) & 0xff
   \   000052   2C           ADD     A,R4
   \   000053   F582         MOV     DPL,A
   \   000055   74..         MOV     A,#((BindingTable + 5) >> 8) & 0xff
   \   000057   3D           ADDC    A,R5
   \   000058   F583         MOV     DPH,A
   \   00005A   E0           MOVX    A,@DPTR
   \   00005B   FC           MOV     R4,A
   \   00005C   7D00         MOV     R5,#0x0
   \   00005E   EA           MOV     A,R2
   \   00005F   2C           ADD     A,R4
   \   000060   FA           MOV     R2,A
   \   000061   EB           MOV     A,R3
   \   000062   3D           ADDC    A,R5
   \   000063   FB           MOV     R3,A
    205              }
    206            }
   \                     ??bindNumOfEntries_2:
   \   000064   E8           MOV     A,R0
   \   000065   2401         ADD     A,#0x1
   \   000067   F8           MOV     R0,A
   \   000068   E9           MOV     A,R1
   \   000069   3400         ADDC    A,#0x0
   \   00006B   F9           MOV     R1,A
   \                     ??bindNumOfEntries_0:
   \   00006C   90....       MOV     DPTR,#gNWK_MAX_BINDING_ENTRIES
   \   00006F   E4           CLR     A
   \   000070   93           MOVC    A,@A+DPTR
   \   000071   FC           MOV     R4,A
   \   000072   7401         MOV     A,#0x1
   \   000074   93           MOVC    A,@A+DPTR
   \   000075   FD           MOV     R5,A
   \   000076   C3           CLR     C
   \   000077   E8           MOV     A,R0
   \   000078   9C           SUBB    A,R4
   \   000079   E9           MOV     A,R1
   \   00007A   9D           SUBB    A,R5
   \   00007B   4092         JC      ??bindNumOfEntries_1
    207          
    208            return ( found );
   \   00007D   7F01         MOV     R7,#0x1
   \   00007F   02....       LJMP    ?BANKED_LEAVE_XDATA
    209          }
    210          
    211          /*********************************************************************
    212           * @fn      bindCapacity()
    213           *
    214           * @brief   This function returns the number of binding entries
    215           *          possible and used.
    216           *
    217           * @param   maxEntries - pointer to a place to put the max entries
    218           * @param   usedEntries - pointer to a place to put the number
    219           *               of used entries
    220           *
    221           * @return  none
    222           */

   \                                 In  segment BANKED_CODE, align 1, keep-with-next
    223          void bindCapacity( uint16 *maxEntries, uint16 *usedEntries  )
   \                     bindCapacity:
    224          {
   \   000000   74F5         MOV     A,#-0xb
   \   000002   12....       LCALL   ?BANKED_ENTER_XDATA
   \   000005                ; Saved register size: 11
   \   000005                ; Auto size: 0
    225            uint16 x;
    226            uint16 used;
    227          
    228            for ( used = 0, x = 0; x < gNWK_MAX_BINDING_ENTRIES; x++ )
   \   000005   75..00       MOV     ?V0 + 0,#0x0
   \   000008   75..00       MOV     ?V0 + 1,#0x0
   \   00000B   7800         MOV     R0,#0x0
   \   00000D   7900         MOV     R1,#0x0
   \   00000F   8040         SJMP    ??bindCapacity_0
    229            {
    230              // It's empty if the index is "Not Found"
    231              if ( BindingTable[x].srcEP != NV_BIND_EMPTY )
   \                     ??bindCapacity_1:
   \   000011   E8           MOV     A,R0
   \   000012   FE           MOV     R6,A
   \   000013   E9           MOV     A,R1
   \   000014   FF           MOV     R7,A
   \   000015   EE           MOV     A,R6
   \   000016   75F00E       MOV     B,#0xe
   \   000019   A4           MUL     AB
   \   00001A   CE           XCH     A,R6
   \   00001B   85F0..       MOV     ?V0 + 2,B
   \   00001E   75F000       MOV     B,#0x0
   \   000021   A4           MUL     AB
   \   000022   25..         ADD     A,?V0 + 2
   \   000024   F5..         MOV     ?V0 + 2,A
   \   000026   75F00E       MOV     B,#0xe
   \   000029   EF           MOV     A,R7
   \   00002A   A4           MUL     AB
   \   00002B   25..         ADD     A,?V0 + 2
   \   00002D   FF           MOV     R7,A
   \   00002E   74..         MOV     A,#BindingTable & 0xff
   \   000030   2E           ADD     A,R6
   \   000031   F582         MOV     DPL,A
   \   000033   74..         MOV     A,#(BindingTable >> 8) & 0xff
   \   000035   3F           ADDC    A,R7
   \   000036   F583         MOV     DPH,A
   \   000038   E0           MOVX    A,@DPTR
   \   000039   64FF         XRL     A,#0xff
   \   00003B   600C         JZ      ??bindCapacity_2
    232              {
    233                used++;
   \   00003D   E5..         MOV     A,?V0 + 0
   \   00003F   2401         ADD     A,#0x1
   \   000041   F5..         MOV     ?V0 + 0,A
   \   000043   E5..         MOV     A,?V0 + 1
   \   000045   3400         ADDC    A,#0x0
   \   000047   F5..         MOV     ?V0 + 1,A
    234              }
    235            }
   \                     ??bindCapacity_2:
   \   000049   E8           MOV     A,R0
   \   00004A   2401         ADD     A,#0x1
   \   00004C   F8           MOV     R0,A
   \   00004D   E9           MOV     A,R1
   \   00004E   3400         ADDC    A,#0x0
   \   000050   F9           MOV     R1,A
   \                     ??bindCapacity_0:
   \   000051   90....       MOV     DPTR,#gNWK_MAX_BINDING_ENTRIES
   \   000054   E4           CLR     A
   \   000055   93           MOVC    A,@A+DPTR
   \   000056   FE           MOV     R6,A
   \   000057   7401         MOV     A,#0x1
   \   000059   93           MOVC    A,@A+DPTR
   \   00005A   FF           MOV     R7,A
   \   00005B   C3           CLR     C
   \   00005C   E8           MOV     A,R0
   \   00005D   9E           SUBB    A,R6
   \   00005E   E9           MOV     A,R1
   \   00005F   9F           SUBB    A,R7
   \   000060   40AF         JC      ??bindCapacity_1
    236          
    237            *maxEntries = gNWK_MAX_BINDING_ENTRIES;
   \   000062   90....       MOV     DPTR,#gNWK_MAX_BINDING_ENTRIES
   \   000065   E4           CLR     A
   \   000066   93           MOVC    A,@A+DPTR
   \   000067   F8           MOV     R0,A
   \   000068   7401         MOV     A,#0x1
   \   00006A   93           MOVC    A,@A+DPTR
   \   00006B   F9           MOV     R1,A
   \   00006C   8A82         MOV     DPL,R2
   \   00006E   8B83         MOV     DPH,R3
   \   000070   E8           MOV     A,R0
   \   000071   F0           MOVX    @DPTR,A
   \   000072   A3           INC     DPTR
   \   000073   E9           MOV     A,R1
   \   000074   F0           MOVX    @DPTR,A
    238            *usedEntries = used;
   \   000075   8C82         MOV     DPL,R4
   \   000077   8D83         MOV     DPH,R5
   \   000079   E5..         MOV     A,?V0 + 0
   \   00007B   F0           MOVX    @DPTR,A
   \   00007C   A3           INC     DPTR
   \   00007D   E5..         MOV     A,?V0 + 1
   \   00007F   F0           MOVX    @DPTR,A
    239          }
   \   000080   7F03         MOV     R7,#0x3
   \   000082   02....       LJMP    ?BANKED_LEAVE_XDATA
    240          
    241          /*********************************************************************
    242           * @fn      bindAddEntry()
    243           *
    244           * @brief   This function is used to Add an entry to the binding table
    245           *
    246           * @param       srcAddr - source Address
    247           * @param       srcEpInt - source endpoint
    248           * @param       dstAddr - destination Address
    249           * @param       dstEpInt - destination endpoint
    250           * @param       numClusterIds - number of cluster Ids in the list
    251           * @param       clusterIds - pointer to the Object ID list
    252           *
    253           * @return  pointer to binding table entry, NULL if not added
    254           */

   \                                 In  segment BANKED_CODE, align 1, keep-with-next
    255          BindingEntry_t *bindAddEntry( byte srcEpInt,
   \                     bindAddEntry:
    256                                        zAddrType_t *dstAddr, byte dstEpInt,
    257                                        byte numClusterIds, uint16 *clusterIds )
    258          {
   \   000000   74EE         MOV     A,#-0x12
   \   000002   12....       LCALL   ?BANKED_ENTER_XDATA
   \   000005                ; Saved register size: 18
   \   000005                ; Auto size: 10
   \   000005   74F6         MOV     A,#-0xa
   \   000007   12....       LCALL   ?ALLOC_XSTACK8
   \   00000A   89..         MOV     ?V0 + 6,R1
   \   00000C   8A..         MOV     ?V0 + 0,R2
   \   00000E   8B..         MOV     ?V0 + 1,R3
   \   000010   8C..         MOV     ?V0 + 5,R4
   \   000012   8D..         MOV     ?V0 + 4,R5
   \   000014   741C         MOV     A,#0x1c
   \   000016   12....       LCALL   ?XSTACK_DISP0_8
   \   000019   E0           MOVX    A,@DPTR
   \   00001A   F5..         MOV     ?V0 + 2,A
   \   00001C   A3           INC     DPTR
   \   00001D   E0           MOVX    A,@DPTR
   \   00001E   F5..         MOV     ?V0 + 3,A
    259            uint8           index;
    260            BindingEntry_t* entry;
    261            bindFields_t    fields;
    262          
    263            // initialize results
    264            entry = NULL;
   \   000020   7E00         MOV     R6,#0x0
   \   000022   7F00         MOV     R7,#0x0
    265          
    266            // make sure local addresses have been loaded
    267            bindAddrMgrLocalLoad();
   \   000024                ; Setup parameters for call to function bindAddrMgrLocalLoad
   \   000024   12....       LCALL   ??bindAddrMgrLocalLoad?relay
    268          
    269            // setup fields
    270            fields.dstIndex = bindAddrIndexGet( dstAddr );
   \   000027                ; Setup parameters for call to function bindAddrIndexGet
   \   000027   AA..         MOV     R2,?V0 + 0
   \   000029   AB..         MOV     R3,?V0 + 1
   \   00002B   12....       LCALL   ??bindAddrIndexGet?relay
   \   00002E   7403         MOV     A,#0x3
   \   000030   12....       LCALL   ?XSTACK_DISP0_8
   \   000033   EA           MOV     A,R2
   \   000034   F0           MOVX    @DPTR,A
   \   000035   A3           INC     DPTR
   \   000036   EB           MOV     A,R3
   \   000037   F0           MOVX    @DPTR,A
    271            fields.srcEP    = srcEpInt;
   \   000038   E5..         MOV     A,?V0 + 6
   \   00003A   85..82       MOV     DPL,?XSP + 0
   \   00003D   85..83       MOV     DPH,?XSP + 1
   \   000040   E5..         MOV     A,?V0 + 6
   \   000042   F0           MOVX    @DPTR,A
    272          
    273            if ( dstAddr->addrMode == AddrGroup )
   \   000043   85..82       MOV     DPL,?V0 + 0
   \   000046   85..83       MOV     DPH,?V0 + 1
   \   000049   A3           INC     DPTR
   \   00004A   A3           INC     DPTR
   \   00004B   A3           INC     DPTR
   \   00004C   A3           INC     DPTR
   \   00004D   A3           INC     DPTR
   \   00004E   A3           INC     DPTR
   \   00004F   A3           INC     DPTR
   \   000050   A3           INC     DPTR
   \   000051   E0           MOVX    A,@DPTR
   \   000052   6401         XRL     A,#0x1
   \   000054   7012         JNZ     ??bindAddEntry_0
    274            {
    275              fields.dstAddrMode = DSTGROUPMODE_GROUP;
   \   000056   7406         MOV     A,#0x6
   \   000058   12....       LCALL   ?XSTACK_DISP0_8
   \   00005B   7401         MOV     A,#0x1
   \   00005D   F0           MOVX    @DPTR,A
    276              fields.dstEP       = 0;
   \   00005E   7405         MOV     A,#0x5
   \   000060   12....       LCALL   ?XSTACK_DISP0_8
   \   000063   7400         MOV     A,#0x0
   \   000065   F0           MOVX    @DPTR,A
   \   000066   8012         SJMP    ??bindAddEntry_1
    277            }
    278            else
    279            {
    280              fields.dstAddrMode = DSTGROUPMODE_ADDR;
   \                     ??bindAddEntry_0:
   \   000068   7406         MOV     A,#0x6
   \   00006A   12....       LCALL   ?XSTACK_DISP0_8
   \   00006D   7400         MOV     A,#0x0
   \   00006F   F0           MOVX    @DPTR,A
    281              fields.dstEP       = dstEpInt;
   \   000070   E5..         MOV     A,?V0 + 5
   \   000072   7405         MOV     A,#0x5
   \   000074   12....       LCALL   ?XSTACK_DISP0_8
   \   000077   E5..         MOV     A,?V0 + 5
   \   000079   F0           MOVX    @DPTR,A
    282            }
    283          
    284            if ( fields.dstIndex != INVALID_NODE_ADDR  )
   \                     ??bindAddEntry_1:
   \   00007A   7403         MOV     A,#0x3
   \   00007C   12....       LCALL   ?XSTACK_DISP0_8
   \   00007F   E0           MOVX    A,@DPTR
   \   000080   64FE         XRL     A,#0xfe
   \   000082   7004         JNZ     ??bindAddEntry_2
   \   000084   A3           INC     DPTR
   \   000085   E0           MOVX    A,@DPTR
   \   000086   64FF         XRL     A,#0xff
   \                     ??bindAddEntry_2:
   \   000088   7003         JNZ     $+5
   \   00008A   02....       LJMP    ??bindAddEntry_3 & 0xFFFF
    285            {
    286              for ( index = 0; index < gNWK_MAX_BINDING_ENTRIES; index++ )
   \   00008D   75..00       MOV     ?V0 + 0,#0x0
   \   000090   8002         SJMP    ??bindAddEntry_4
   \                     ??bindAddEntry_5:
   \   000092   05..         INC     ?V0 + 0
   \                     ??bindAddEntry_4:
   \   000094   85....       MOV     ?V0 + 8,?V0 + 0
   \   000097   75..00       MOV     ?V0 + 9,#0x0
   \   00009A   90....       MOV     DPTR,#gNWK_MAX_BINDING_ENTRIES
   \   00009D   E4           CLR     A
   \   00009E   93           MOVC    A,@A+DPTR
   \   00009F   F8           MOV     R0,A
   \   0000A0   7401         MOV     A,#0x1
   \   0000A2   93           MOVC    A,@A+DPTR
   \   0000A3   F9           MOV     R1,A
   \   0000A4   C3           CLR     C
   \   0000A5   E5..         MOV     A,?V0 + 8
   \   0000A7   98           SUBB    A,R0
   \   0000A8   E5..         MOV     A,?V0 + 9
   \   0000AA   99           SUBB    A,R1
   \   0000AB   4003         JC      $+5
   \   0000AD   02....       LJMP    ??bindAddEntry_6 & 0xFFFF
    287              {
    288                if ( ( fields.srcEP       == BindingTable[index].srcEP        ) &&
    289                     ( fields.dstAddrMode == BindingTable[index].dstGroupMode ) &&
    290                     ( fields.dstIndex    == BindingTable[index].dstIdx       ) &&
    291                     ( fields.dstEP       == BindingTable[index].dstEP        )    )
   \   0000B0   85..82       MOV     DPL,?XSP + 0
   \   0000B3   85..83       MOV     DPH,?XSP + 1
   \   0000B6   E0           MOVX    A,@DPTR
   \   0000B7   FB           MOV     R3,A
   \   0000B8   E5..         MOV     A,?V0 + 0
   \   0000BA   A8..         MOV     R0,?V0 + 0
   \   0000BC   7900         MOV     R1,#0x0
   \   0000BE   E8           MOV     A,R0
   \   0000BF   75F00E       MOV     B,#0xe
   \   0000C2   A4           MUL     AB
   \   0000C3   C8           XCH     A,R0
   \   0000C4   AAF0         MOV     R2,B
   \   0000C6   75F000       MOV     B,#0x0
   \   0000C9   A4           MUL     AB
   \   0000CA   2A           ADD     A,R2
   \   0000CB   FA           MOV     R2,A
   \   0000CC   75F00E       MOV     B,#0xe
   \   0000CF   E9           MOV     A,R1
   \   0000D0   A4           MUL     AB
   \   0000D1   2A           ADD     A,R2
   \   0000D2   F9           MOV     R1,A
   \   0000D3   74..         MOV     A,#BindingTable & 0xff
   \   0000D5   28           ADD     A,R0
   \   0000D6   F582         MOV     DPL,A
   \   0000D8   74..         MOV     A,#(BindingTable >> 8) & 0xff
   \   0000DA   39           ADDC    A,R1
   \   0000DB   F583         MOV     DPH,A
   \   0000DD   E0           MOVX    A,@DPTR
   \   0000DE   6B           XRL     A,R3
   \   0000DF   70B1         JNZ     ??bindAddEntry_5
   \   0000E1   7406         MOV     A,#0x6
   \   0000E3   12....       LCALL   ?XSTACK_DISP0_8
   \   0000E6   E0           MOVX    A,@DPTR
   \   0000E7   FB           MOV     R3,A
   \   0000E8   E5..         MOV     A,?V0 + 0
   \   0000EA   A8..         MOV     R0,?V0 + 0
   \   0000EC   7900         MOV     R1,#0x0
   \   0000EE   E8           MOV     A,R0
   \   0000EF   75F00E       MOV     B,#0xe
   \   0000F2   A4           MUL     AB
   \   0000F3   C8           XCH     A,R0
   \   0000F4   AAF0         MOV     R2,B
   \   0000F6   75F000       MOV     B,#0x0
   \   0000F9   A4           MUL     AB
   \   0000FA   2A           ADD     A,R2
   \   0000FB   FA           MOV     R2,A
   \   0000FC   75F00E       MOV     B,#0xe
   \   0000FF   E9           MOV     A,R1
   \   000100   A4           MUL     AB
   \   000101   2A           ADD     A,R2
   \   000102   F9           MOV     R1,A
   \   000103   74..         MOV     A,#(BindingTable + 1) & 0xff
   \   000105   28           ADD     A,R0
   \   000106   F582         MOV     DPL,A
   \   000108   74..         MOV     A,#((BindingTable + 1) >> 8) & 0xff
   \   00010A   39           ADDC    A,R1
   \   00010B   F583         MOV     DPH,A
   \   00010D   E0           MOVX    A,@DPTR
   \   00010E   6B           XRL     A,R3
   \   00010F   7081         JNZ     ??bindAddEntry_5
   \   000111   7403         MOV     A,#0x3
   \   000113   12....       LCALL   ?XSTACK_DISP0_8
   \   000116   E0           MOVX    A,@DPTR
   \   000117   F8           MOV     R0,A
   \   000118   A3           INC     DPTR
   \   000119   E0           MOVX    A,@DPTR
   \   00011A   F9           MOV     R1,A
   \   00011B   E5..         MOV     A,?V0 + 0
   \   00011D   AA..         MOV     R2,?V0 + 0
   \   00011F   7B00         MOV     R3,#0x0
   \   000121   EA           MOV     A,R2
   \   000122   75F00E       MOV     B,#0xe
   \   000125   A4           MUL     AB
   \   000126   CA           XCH     A,R2
   \   000127   ACF0         MOV     R4,B
   \   000129   75F000       MOV     B,#0x0
   \   00012C   A4           MUL     AB
   \   00012D   2C           ADD     A,R4
   \   00012E   FC           MOV     R4,A
   \   00012F   75F00E       MOV     B,#0xe
   \   000132   EB           MOV     A,R3
   \   000133   A4           MUL     AB
   \   000134   2C           ADD     A,R4
   \   000135   FB           MOV     R3,A
   \   000136   74..         MOV     A,#(BindingTable + 2) & 0xff
   \   000138   2A           ADD     A,R2
   \   000139   F582         MOV     DPL,A
   \   00013B   74..         MOV     A,#((BindingTable + 2) >> 8) & 0xff
   \   00013D   3B           ADDC    A,R3
   \   00013E   F583         MOV     DPH,A
   \   000140   E0           MOVX    A,@DPTR
   \   000141   68           XRL     A,R0
   \   000142   7003         JNZ     ??bindAddEntry_7
   \   000144   A3           INC     DPTR
   \   000145   E0           MOVX    A,@DPTR
   \   000146   69           XRL     A,R1
   \                     ??bindAddEntry_7:
   \   000147   6003         JZ      $+5
   \   000149   02....       LJMP    ??bindAddEntry_5 & 0xFFFF
   \   00014C   7405         MOV     A,#0x5
   \   00014E   12....       LCALL   ?XSTACK_DISP0_8
   \   000151   E0           MOVX    A,@DPTR
   \   000152   FB           MOV     R3,A
   \   000153   E5..         MOV     A,?V0 + 0
   \   000155   A8..         MOV     R0,?V0 + 0
   \   000157   7900         MOV     R1,#0x0
   \   000159   E8           MOV     A,R0
   \   00015A   75F00E       MOV     B,#0xe
   \   00015D   A4           MUL     AB
   \   00015E   C8           XCH     A,R0
   \   00015F   AAF0         MOV     R2,B
   \   000161   75F000       MOV     B,#0x0
   \   000164   A4           MUL     AB
   \   000165   2A           ADD     A,R2
   \   000166   FA           MOV     R2,A
   \   000167   75F00E       MOV     B,#0xe
   \   00016A   E9           MOV     A,R1
   \   00016B   A4           MUL     AB
   \   00016C   2A           ADD     A,R2
   \   00016D   F9           MOV     R1,A
   \   00016E   74..         MOV     A,#(BindingTable + 4) & 0xff
   \   000170   28           ADD     A,R0
   \   000171   F582         MOV     DPL,A
   \   000173   74..         MOV     A,#((BindingTable + 4) >> 8) & 0xff
   \   000175   39           ADDC    A,R1
   \   000176   F583         MOV     DPH,A
   \   000178   E0           MOVX    A,@DPTR
   \   000179   6B           XRL     A,R3
   \   00017A   6003         JZ      $+5
   \   00017C   02....       LJMP    ??bindAddEntry_5 & 0xFFFF
    292                {
    293                  entry = &BindingTable[index];
   \   00017F   E5..         MOV     A,?V0 + 0
   \   000181   A8..         MOV     R0,?V0 + 0
   \   000183   7900         MOV     R1,#0x0
   \   000185   E8           MOV     A,R0
   \   000186   75F00E       MOV     B,#0xe
   \   000189   A4           MUL     AB
   \   00018A   C8           XCH     A,R0
   \   00018B   AAF0         MOV     R2,B
   \   00018D   75F000       MOV     B,#0x0
   \   000190   A4           MUL     AB
   \   000191   2A           ADD     A,R2
   \   000192   FA           MOV     R2,A
   \   000193   75F00E       MOV     B,#0xe
   \   000196   E9           MOV     A,R1
   \   000197   A4           MUL     AB
   \   000198   2A           ADD     A,R2
   \   000199   F9           MOV     R1,A
   \   00019A   74..         MOV     A,#BindingTable & 0xff
   \   00019C   28           ADD     A,R0
   \   00019D   FE           MOV     R6,A
   \   00019E   74..         MOV     A,#(BindingTable >> 8) & 0xff
   \   0001A0   39           ADDC    A,R1
   \   0001A1   FF           MOV     R7,A
    294          
    295                  // break from loop
    296                  break;
    297                }
    298              }
    299          
    300              if ( entry != NULL )
   \                     ??bindAddEntry_6:
   \   0001A2   EE           MOV     A,R6
   \   0001A3   4F           ORL     A,R7
   \   0001A4   607D         JZ      ??bindAddEntry_8
    301              {
    302                // Loop through the cluster IDs
    303                for ( index = 0; index < numClusterIds; index++ )
   \   0001A6   75..00       MOV     ?V0 + 0,#0x0
   \                     ??bindAddEntry_9:
   \   0001A9   E5..         MOV     A,?V0 + 0
   \   0001AB   C3           CLR     C
   \   0001AC   95..         SUBB    A,?V0 + 4
   \   0001AE   4003         JC      $+5
   \   0001B0   02....       LJMP    ??bindAddEntry_3 & 0xFFFF
    304                {
    305                  // Found - is the cluster already defined?
    306                  if ( bindIsClusterIDinList( entry, clusterIds[index] ) == FALSE )
   \   0001B3                ; Setup parameters for call to function bindIsClusterIDinList
   \   0001B3   E5..         MOV     A,?V0 + 0
   \   0001B5   A8..         MOV     R0,?V0 + 0
   \   0001B7   7900         MOV     R1,#0x0
   \   0001B9   E8           MOV     A,R0
   \   0001BA   75F002       MOV     B,#0x2
   \   0001BD   A4           MUL     AB
   \   0001BE   C8           XCH     A,R0
   \   0001BF   AAF0         MOV     R2,B
   \   0001C1   75F000       MOV     B,#0x0
   \   0001C4   A4           MUL     AB
   \   0001C5   2A           ADD     A,R2
   \   0001C6   FA           MOV     R2,A
   \   0001C7   75F002       MOV     B,#0x2
   \   0001CA   E9           MOV     A,R1
   \   0001CB   A4           MUL     AB
   \   0001CC   2A           ADD     A,R2
   \   0001CD   F9           MOV     R1,A
   \   0001CE   E5..         MOV     A,?V0 + 2
   \   0001D0   28           ADD     A,R0
   \   0001D1   F582         MOV     DPL,A
   \   0001D3   E5..         MOV     A,?V0 + 3
   \   0001D5   39           ADDC    A,R1
   \   0001D6   F583         MOV     DPH,A
   \   0001D8   E0           MOVX    A,@DPTR
   \   0001D9   FC           MOV     R4,A
   \   0001DA   A3           INC     DPTR
   \   0001DB   E0           MOVX    A,@DPTR
   \   0001DC   FD           MOV     R5,A
   \   0001DD   EE           MOV     A,R6
   \   0001DE   FA           MOV     R2,A
   \   0001DF   EF           MOV     A,R7
   \   0001E0   FB           MOV     R3,A
   \   0001E1   12....       LCALL   ??bindIsClusterIDinList?relay
   \   0001E4   E9           MOV     A,R1
   \   0001E5   7038         JNZ     ??bindAddEntry_10
    307                  {
    308                    // Nope, add this cluster
    309                    if ( bindAddClusterIdToList( entry, clusterIds[index] ) == FALSE )
   \   0001E7                ; Setup parameters for call to function bindAddClusterIdToList
   \   0001E7   E5..         MOV     A,?V0 + 0
   \   0001E9   A8..         MOV     R0,?V0 + 0
   \   0001EB   7900         MOV     R1,#0x0
   \   0001ED   E8           MOV     A,R0
   \   0001EE   75F002       MOV     B,#0x2
   \   0001F1   A4           MUL     AB
   \   0001F2   C8           XCH     A,R0
   \   0001F3   AAF0         MOV     R2,B
   \   0001F5   75F000       MOV     B,#0x0
   \   0001F8   A4           MUL     AB
   \   0001F9   2A           ADD     A,R2
   \   0001FA   FA           MOV     R2,A
   \   0001FB   75F002       MOV     B,#0x2
   \   0001FE   E9           MOV     A,R1
   \   0001FF   A4           MUL     AB
   \   000200   2A           ADD     A,R2
   \   000201   F9           MOV     R1,A
   \   000202   E5..         MOV     A,?V0 + 2
   \   000204   28           ADD     A,R0
   \   000205   F582         MOV     DPL,A
   \   000207   E5..         MOV     A,?V0 + 3
   \   000209   39           ADDC    A,R1
   \   00020A   F583         MOV     DPH,A
   \   00020C   E0           MOVX    A,@DPTR
   \   00020D   FC           MOV     R4,A
   \   00020E   A3           INC     DPTR
   \   00020F   E0           MOVX    A,@DPTR
   \   000210   FD           MOV     R5,A
   \   000211   EE           MOV     A,R6
   \   000212   FA           MOV     R2,A
   \   000213   EF           MOV     A,R7
   \   000214   FB           MOV     R3,A
   \   000215   12....       LCALL   ??bindAddClusterIdToList?relay
   \   000218   E9           MOV     A,R1
   \   000219   7004         JNZ     ??bindAddEntry_10
    310                    {
    311                      // Indicate error if cluster list was full
    312                      entry = NULL;
   \   00021B   7E00         MOV     R6,#0x0
   \   00021D   7F00         MOV     R7,#0x0
    313                    }
    314                  }
    315                }
   \                     ??bindAddEntry_10:
   \   00021F   05..         INC     ?V0 + 0
   \   000221   8086         SJMP    ??bindAddEntry_9
    316              }
    317              else
    318              {
    319                // Find an empty slot
    320                entry = bindFindEmpty();
   \                     ??bindAddEntry_8:
   \   000223                ; Setup parameters for call to function bindFindEmpty
   \   000223   12....       LCALL   ??bindFindEmpty?relay
   \   000226   8A..         MOV     ?V0 + 0,R2
   \   000228   8B..         MOV     ?V0 + 1,R3
   \   00022A   AE..         MOV     R6,?V0 + 0
   \   00022C   AF..         MOV     R7,?V0 + 1
    321          
    322                // Check against the maximum number allowed
    323                if ( entry != NULL )
   \   00022E   EE           MOV     A,R6
   \   00022F   4F           ORL     A,R7
   \   000230   7003         JNZ     $+5
   \   000232   02....       LJMP    ??bindAddEntry_3 & 0xFFFF
    324                {
    325                  // Add new entry
    326                  entry->srcEP         = fields.srcEP;
   \   000235   85..82       MOV     DPL,?XSP + 0
   \   000238   85..83       MOV     DPH,?XSP + 1
   \   00023B   E0           MOVX    A,@DPTR
   \   00023C   8E82         MOV     DPL,R6
   \   00023E   8F83         MOV     DPH,R7
   \   000240   F0           MOVX    @DPTR,A
    327                  entry->dstGroupMode  = fields.dstAddrMode;
   \   000241   7406         MOV     A,#0x6
   \   000243   12....       LCALL   ?XSTACK_DISP0_8
   \   000246   E0           MOVX    A,@DPTR
   \   000247   8E82         MOV     DPL,R6
   \   000249   8F83         MOV     DPH,R7
   \   00024B   A3           INC     DPTR
   \   00024C   F0           MOVX    @DPTR,A
    328                  entry->dstIdx        = fields.dstIndex;
   \   00024D   7403         MOV     A,#0x3
   \   00024F   12....       LCALL   ?XSTACK_DISP0_8
   \   000252   E0           MOVX    A,@DPTR
   \   000253   F8           MOV     R0,A
   \   000254   A3           INC     DPTR
   \   000255   E0           MOVX    A,@DPTR
   \   000256   F9           MOV     R1,A
   \   000257   8E82         MOV     DPL,R6
   \   000259   8F83         MOV     DPH,R7
   \   00025B   A3           INC     DPTR
   \   00025C   A3           INC     DPTR
   \   00025D   E8           MOV     A,R0
   \   00025E   F0           MOVX    @DPTR,A
   \   00025F   A3           INC     DPTR
   \   000260   E9           MOV     A,R1
   \   000261   F0           MOVX    @DPTR,A
    329                  entry->dstEP         = fields.dstEP;
   \   000262   7405         MOV     A,#0x5
   \   000264   12....       LCALL   ?XSTACK_DISP0_8
   \   000267   E0           MOVX    A,@DPTR
   \   000268   8E82         MOV     DPL,R6
   \   00026A   8F83         MOV     DPH,R7
   \   00026C   A3           INC     DPTR
   \   00026D   A3           INC     DPTR
   \   00026E   A3           INC     DPTR
   \   00026F   A3           INC     DPTR
   \   000270   F0           MOVX    @DPTR,A
    330          
    331                  if ( numClusterIds > gMAX_BINDING_CLUSTER_IDS )
   \   000271   90....       MOV     DPTR,#gMAX_BINDING_CLUSTER_IDS
   \   000274   E4           CLR     A
   \   000275   93           MOVC    A,@A+DPTR
   \   000276   C3           CLR     C
   \   000277   95..         SUBB    A,?V0 + 4
   \   000279   5007         JNC     ??bindAddEntry_11
    332                  {
    333                    numClusterIds = gMAX_BINDING_CLUSTER_IDS;
   \   00027B   90....       MOV     DPTR,#gMAX_BINDING_CLUSTER_IDS
   \   00027E   E4           CLR     A
   \   00027F   93           MOVC    A,@A+DPTR
   \   000280   F5..         MOV     ?V0 + 4,A
    334                  }
    335          
    336                  entry->numClusterIds = numClusterIds;
   \                     ??bindAddEntry_11:
   \   000282   E5..         MOV     A,?V0 + 4
   \   000284   8E82         MOV     DPL,R6
   \   000286   8F83         MOV     DPH,R7
   \   000288   A3           INC     DPTR
   \   000289   A3           INC     DPTR
   \   00028A   A3           INC     DPTR
   \   00028B   A3           INC     DPTR
   \   00028C   A3           INC     DPTR
   \   00028D   E5..         MOV     A,?V0 + 4
   \   00028F   F0           MOVX    @DPTR,A
    337          
    338                  osal_memcpy( entry->clusterIdList,
    339                               clusterIds,
    340                               numClusterIds * sizeof(uint16) );
   \   000290                ; Setup parameters for call to function osal_memcpy
   \   000290   85....       MOV     ?V0 + 0,?V0 + 2
   \   000293   85....       MOV     ?V0 + 1,?V0 + 3
   \   000296   75..00       MOV     ?V0 + 2,#0x0
   \   000299   78..         MOV     R0,#?V0 + 0
   \   00029B   12....       LCALL   ?PUSH_XSTACK_I_THREE
   \   00029E   E5..         MOV     A,?V0 + 4
   \   0002A0   AC..         MOV     R4,?V0 + 4
   \   0002A2   7D00         MOV     R5,#0x0
   \   0002A4   EC           MOV     A,R4
   \   0002A5   75F002       MOV     B,#0x2
   \   0002A8   A4           MUL     AB
   \   0002A9   CC           XCH     A,R4
   \   0002AA   A8F0         MOV     R0,B
   \   0002AC   75F000       MOV     B,#0x0
   \   0002AF   A4           MUL     AB
   \   0002B0   28           ADD     A,R0
   \   0002B1   F8           MOV     R0,A
   \   0002B2   75F002       MOV     B,#0x2
   \   0002B5   ED           MOV     A,R5
   \   0002B6   A4           MUL     AB
   \   0002B7   28           ADD     A,R0
   \   0002B8   FD           MOV     R5,A
   \   0002B9   EE           MOV     A,R6
   \   0002BA   2406         ADD     A,#0x6
   \   0002BC   FA           MOV     R2,A
   \   0002BD   EF           MOV     A,R7
   \   0002BE   3400         ADDC    A,#0x0
   \   0002C0   FB           MOV     R3,A
   \   0002C1   12....       LCALL   ??osal_memcpy?relay
   \   0002C4   7403         MOV     A,#0x3
   \   0002C6   12....       LCALL   ?DEALLOC_XSTACK8
    341                }
    342              }
    343            }
    344          
    345            return entry;
   \                     ??bindAddEntry_3:
   \   0002C9   EE           MOV     A,R6
   \   0002CA   FA           MOV     R2,A
   \   0002CB   EF           MOV     A,R7
   \   0002CC   FB           MOV     R3,A
   \   0002CD   740A         MOV     A,#0xa
   \   0002CF   12....       LCALL   ?DEALLOC_XSTACK8
   \   0002D2   7F0A         MOV     R7,#0xa
   \   0002D4   02....       LJMP    ?BANKED_LEAVE_XDATA
    346          }
    347          
    348          /*********************************************************************
    349           * @fn      bindRemoveEntry
    350           *
    351           * @brief   Removes a binding table entry.
    352           *
    353           * @param   pBind - pointer to binding table entry to delete
    354           *
    355           * @return  TRUE if Removed, FALSE if not
    356           */

   \                                 In  segment BANKED_CODE, align 1, keep-with-next
    357          byte bindRemoveEntry( BindingEntry_t *pBind )
   \                     bindRemoveEntry:
    358          {
   \   000000   C082         PUSH    DPL
   \   000002   C083         PUSH    DPH
   \   000004                ; Saved register size: 2
   \   000004                ; Auto size: 0
    359            osal_memset( pBind, 0xFF, gBIND_REC_SIZE );
   \   000004                ; Setup parameters for call to function osal_memset
   \   000004   90....       MOV     DPTR,#gBIND_REC_SIZE
   \   000007   E4           CLR     A
   \   000008   93           MOVC    A,@A+DPTR
   \   000009   FC           MOV     R4,A
   \   00000A   7401         MOV     A,#0x1
   \   00000C   93           MOVC    A,@A+DPTR
   \   00000D   FD           MOV     R5,A
   \   00000E   79FF         MOV     R1,#-0x1
   \   000010   12....       LCALL   ??osal_memset?relay
    360            return ( TRUE );
   \   000013   7901         MOV     R1,#0x1
   \   000015   D083         POP     DPH
   \   000017   D082         POP     DPL
   \   000019   02....       LJMP    ?BRET
    361          }
    362          
    363          /*********************************************************************
    364           * @fn      bindIsClusterIDinList()
    365           *
    366           * @brief   Is the clusterID in the clusterID list?
    367           *
    368           * @param   enter - binding table entry
    369           * @param   clusterId  - Cluster ID to look for
    370           *
    371           * @return  TRUE if found, FALSE if not found
    372           */

   \                                 In  segment BANKED_CODE, align 1, keep-with-next
    373          byte bindIsClusterIDinList( BindingEntry_t *entry, uint16 clusterId )
   \                     bindIsClusterIDinList:
    374          {
   \   000000   74F7         MOV     A,#-0x9
   \   000002   12....       LCALL   ?BANKED_ENTER_XDATA
   \   000005                ; Saved register size: 9
   \   000005                ; Auto size: 0
    375            uint8 x;
    376          
    377            if ( entry != NULL )
   \   000005   EA           MOV     A,R2
   \   000006   4B           ORL     A,R3
   \   000007   6049         JZ      ??bindIsClusterIDinList_0
    378            {
    379              for ( x = 0; x < entry->numClusterIds; x++ )
   \   000009   7F00         MOV     R7,#0x0
   \   00000B   8001         SJMP    ??bindIsClusterIDinList_1
   \                     ??bindIsClusterIDinList_2:
   \   00000D   0F           INC     R7
   \                     ??bindIsClusterIDinList_1:
   \   00000E   8A82         MOV     DPL,R2
   \   000010   8B83         MOV     DPH,R3
   \   000012   A3           INC     DPTR
   \   000013   A3           INC     DPTR
   \   000014   A3           INC     DPTR
   \   000015   A3           INC     DPTR
   \   000016   A3           INC     DPTR
   \   000017   E0           MOVX    A,@DPTR
   \   000018   F8           MOV     R0,A
   \   000019   EF           MOV     A,R7
   \   00001A   C3           CLR     C
   \   00001B   98           SUBB    A,R0
   \   00001C   5034         JNC     ??bindIsClusterIDinList_0
    380              {
    381                if ( entry->clusterIdList[x] == clusterId )
   \   00001E   EF           MOV     A,R7
   \   00001F   F8           MOV     R0,A
   \   000020   7900         MOV     R1,#0x0
   \   000022   E8           MOV     A,R0
   \   000023   75F002       MOV     B,#0x2
   \   000026   A4           MUL     AB
   \   000027   C8           XCH     A,R0
   \   000028   AEF0         MOV     R6,B
   \   00002A   75F000       MOV     B,#0x0
   \   00002D   A4           MUL     AB
   \   00002E   2E           ADD     A,R6
   \   00002F   FE           MOV     R6,A
   \   000030   75F002       MOV     B,#0x2
   \   000033   E9           MOV     A,R1
   \   000034   A4           MUL     AB
   \   000035   2E           ADD     A,R6
   \   000036   F9           MOV     R1,A
   \   000037   EA           MOV     A,R2
   \   000038   28           ADD     A,R0
   \   000039   F582         MOV     DPL,A
   \   00003B   EB           MOV     A,R3
   \   00003C   39           ADDC    A,R1
   \   00003D   F583         MOV     DPH,A
   \   00003F   A3           INC     DPTR
   \   000040   A3           INC     DPTR
   \   000041   A3           INC     DPTR
   \   000042   A3           INC     DPTR
   \   000043   A3           INC     DPTR
   \   000044   A3           INC     DPTR
   \   000045   E0           MOVX    A,@DPTR
   \   000046   6C           XRL     A,R4
   \   000047   7003         JNZ     ??bindIsClusterIDinList_3
   \   000049   A3           INC     DPTR
   \   00004A   E0           MOVX    A,@DPTR
   \   00004B   6D           XRL     A,R5
   \                     ??bindIsClusterIDinList_3:
   \   00004C   70BF         JNZ     ??bindIsClusterIDinList_2
    382                {
    383                  return ( TRUE );
   \   00004E   7901         MOV     R1,#0x1
   \   000050   8002         SJMP    ??bindIsClusterIDinList_4
    384                }
    385              }
    386            }
    387          
    388            return ( FALSE );
   \                     ??bindIsClusterIDinList_0:
   \   000052   7900         MOV     R1,#0x0
   \                     ??bindIsClusterIDinList_4:
   \   000054   7F01         MOV     R7,#0x1
   \   000056   02....       LJMP    ?BANKED_LEAVE_XDATA
    389          }
    390          
    391          /*********************************************************************
    392           * @fn      bindRemoveClusterIdFromList()
    393           *
    394           * @brief   Removes a ClusterID from a list of ClusterIDs.
    395           *
    396           * @param   enter - binding table entry
    397           * @param   clusterId  - Cluster ID to look for
    398           *
    399           * @return  TRUE if there are at least 1 clusterID left, FALSE if none
    400           */

   \                                 In  segment BANKED_CODE, align 1, keep-with-next
    401          byte bindRemoveClusterIdFromList( BindingEntry_t *entry, uint16 clusterId )
   \                     bindRemoveClusterIdFromList:
    402          {
   \   000000   74F5         MOV     A,#-0xb
   \   000002   12....       LCALL   ?BANKED_ENTER_XDATA
   \   000005                ; Saved register size: 11
   \   000005                ; Auto size: 0
    403            byte x;
    404            uint16 *listPtr;
    405            byte numIds;
    406          
    407            if ( entry )
   \   000005   EA           MOV     A,R2
   \   000006   4B           ORL     A,R3
   \   000007   7003         JNZ     $+5
   \   000009   02....       LJMP    ??bindRemoveClusterIdFromList_0 & 0xFFFF
    408            {
    409              if ( entry->numClusterIds > 0 )
   \   00000C   8A82         MOV     DPL,R2
   \   00000E   8B83         MOV     DPH,R3
   \   000010   A3           INC     DPTR
   \   000011   A3           INC     DPTR
   \   000012   A3           INC     DPTR
   \   000013   A3           INC     DPTR
   \   000014   A3           INC     DPTR
   \   000015   E0           MOVX    A,@DPTR
   \   000016   C3           CLR     C
   \   000017   9401         SUBB    A,#0x1
   \   000019   5003         JNC     $+5
   \   00001B   02....       LJMP    ??bindRemoveClusterIdFromList_0 & 0xFFFF
    410              {
    411                listPtr = entry->clusterIdList;
   \   00001E   EA           MOV     A,R2
   \   00001F   2406         ADD     A,#0x6
   \   000021   F8           MOV     R0,A
   \   000022   EB           MOV     A,R3
   \   000023   3400         ADDC    A,#0x0
   \   000025   F9           MOV     R1,A
    412                numIds = entry->numClusterIds;
   \   000026   8A82         MOV     DPL,R2
   \   000028   8B83         MOV     DPH,R3
   \   00002A   A3           INC     DPTR
   \   00002B   A3           INC     DPTR
   \   00002C   A3           INC     DPTR
   \   00002D   A3           INC     DPTR
   \   00002E   A3           INC     DPTR
   \   00002F   E0           MOVX    A,@DPTR
   \   000030   F5..         MOV     ?V0 + 2,A
    413          
    414                // Copy the new list over
    415                for ( x = 0; x < numIds; x++ )
   \   000032   75..00       MOV     ?V0 + 1,#0x0
   \   000035   8045         SJMP    ??bindRemoveClusterIdFromList_1
    416                {
    417                  if ( entry->clusterIdList[x] != clusterId )
    418                  {
    419                    *listPtr++ = entry->clusterIdList[x];
   \                     ??bindRemoveClusterIdFromList_2:
   \   000037   E5..         MOV     A,?V0 + 1
   \   000039   AE..         MOV     R6,?V0 + 1
   \   00003B   7F00         MOV     R7,#0x0
   \   00003D   EE           MOV     A,R6
   \   00003E   75F002       MOV     B,#0x2
   \   000041   A4           MUL     AB
   \   000042   CE           XCH     A,R6
   \   000043   85F0..       MOV     ?V0 + 0,B
   \   000046   75F000       MOV     B,#0x0
   \   000049   A4           MUL     AB
   \   00004A   25..         ADD     A,?V0 + 0
   \   00004C   F5..         MOV     ?V0 + 0,A
   \   00004E   75F002       MOV     B,#0x2
   \   000051   EF           MOV     A,R7
   \   000052   A4           MUL     AB
   \   000053   25..         ADD     A,?V0 + 0
   \   000055   FF           MOV     R7,A
   \   000056   EA           MOV     A,R2
   \   000057   2E           ADD     A,R6
   \   000058   F582         MOV     DPL,A
   \   00005A   EB           MOV     A,R3
   \   00005B   3F           ADDC    A,R7
   \   00005C   F583         MOV     DPH,A
   \   00005E   A3           INC     DPTR
   \   00005F   A3           INC     DPTR
   \   000060   A3           INC     DPTR
   \   000061   A3           INC     DPTR
   \   000062   A3           INC     DPTR
   \   000063   A3           INC     DPTR
   \   000064   E0           MOVX    A,@DPTR
   \   000065   FE           MOV     R6,A
   \   000066   A3           INC     DPTR
   \   000067   E0           MOVX    A,@DPTR
   \   000068   FF           MOV     R7,A
   \   000069   8882         MOV     DPL,R0
   \   00006B   8983         MOV     DPH,R1
   \   00006D   EE           MOV     A,R6
   \   00006E   F0           MOVX    @DPTR,A
   \   00006F   A3           INC     DPTR
   \   000070   EF           MOV     A,R7
   \   000071   F0           MOVX    @DPTR,A
   \   000072   E8           MOV     A,R0
   \   000073   2402         ADD     A,#0x2
   \   000075   F8           MOV     R0,A
   \   000076   E9           MOV     A,R1
   \   000077   3400         ADDC    A,#0x0
   \   000079   F9           MOV     R1,A
    420                  }
   \                     ??bindRemoveClusterIdFromList_3:
   \   00007A   05..         INC     ?V0 + 1
   \                     ??bindRemoveClusterIdFromList_1:
   \   00007C   E5..         MOV     A,?V0 + 1
   \   00007E   C3           CLR     C
   \   00007F   95..         SUBB    A,?V0 + 2
   \   000081   5052         JNC     ??bindRemoveClusterIdFromList_0
   \   000083   E5..         MOV     A,?V0 + 1
   \   000085   AE..         MOV     R6,?V0 + 1
   \   000087   7F00         MOV     R7,#0x0
   \   000089   EE           MOV     A,R6
   \   00008A   75F002       MOV     B,#0x2
   \   00008D   A4           MUL     AB
   \   00008E   CE           XCH     A,R6
   \   00008F   85F0..       MOV     ?V0 + 0,B
   \   000092   75F000       MOV     B,#0x0
   \   000095   A4           MUL     AB
   \   000096   25..         ADD     A,?V0 + 0
   \   000098   F5..         MOV     ?V0 + 0,A
   \   00009A   75F002       MOV     B,#0x2
   \   00009D   EF           MOV     A,R7
   \   00009E   A4           MUL     AB
   \   00009F   25..         ADD     A,?V0 + 0
   \   0000A1   FF           MOV     R7,A
   \   0000A2   EA           MOV     A,R2
   \   0000A3   2E           ADD     A,R6
   \   0000A4   F582         MOV     DPL,A
   \   0000A6   EB           MOV     A,R3
   \   0000A7   3F           ADDC    A,R7
   \   0000A8   F583         MOV     DPH,A
   \   0000AA   A3           INC     DPTR
   \   0000AB   A3           INC     DPTR
   \   0000AC   A3           INC     DPTR
   \   0000AD   A3           INC     DPTR
   \   0000AE   A3           INC     DPTR
   \   0000AF   A3           INC     DPTR
   \   0000B0   E0           MOVX    A,@DPTR
   \   0000B1   6C           XRL     A,R4
   \   0000B2   7003         JNZ     ??bindRemoveClusterIdFromList_4
   \   0000B4   A3           INC     DPTR
   \   0000B5   E0           MOVX    A,@DPTR
   \   0000B6   6D           XRL     A,R5
   \                     ??bindRemoveClusterIdFromList_4:
   \   0000B7   6003         JZ      $+5
   \   0000B9   02....       LJMP    ??bindRemoveClusterIdFromList_2 & 0xFFFF
    421                  else
    422                  {
    423                    entry->numClusterIds--;
   \   0000BC   8A82         MOV     DPL,R2
   \   0000BE   8B83         MOV     DPH,R3
   \   0000C0   A3           INC     DPTR
   \   0000C1   A3           INC     DPTR
   \   0000C2   A3           INC     DPTR
   \   0000C3   A3           INC     DPTR
   \   0000C4   A3           INC     DPTR
   \   0000C5   E0           MOVX    A,@DPTR
   \   0000C6   24FF         ADD     A,#-0x1
   \   0000C8   F0           MOVX    @DPTR,A
    424                    if ( entry->numClusterIds == 0 )
   \   0000C9   8A82         MOV     DPL,R2
   \   0000CB   8B83         MOV     DPH,R3
   \   0000CD   A3           INC     DPTR
   \   0000CE   A3           INC     DPTR
   \   0000CF   A3           INC     DPTR
   \   0000D0   A3           INC     DPTR
   \   0000D1   A3           INC     DPTR
   \   0000D2   E0           MOVX    A,@DPTR
   \   0000D3   70A5         JNZ     ??bindRemoveClusterIdFromList_3
    425                    {
    426                      break;
    427                    }
    428                  }
    429                }
    430              }
    431            }
    432          
    433            if ( entry && (entry->numClusterIds > 0) )
   \                     ??bindRemoveClusterIdFromList_0:
   \   0000D5   EA           MOV     A,R2
   \   0000D6   4B           ORL     A,R3
   \   0000D7   6013         JZ      ??bindRemoveClusterIdFromList_5
   \   0000D9   8A82         MOV     DPL,R2
   \   0000DB   8B83         MOV     DPH,R3
   \   0000DD   A3           INC     DPTR
   \   0000DE   A3           INC     DPTR
   \   0000DF   A3           INC     DPTR
   \   0000E0   A3           INC     DPTR
   \   0000E1   A3           INC     DPTR
   \   0000E2   E0           MOVX    A,@DPTR
   \   0000E3   C3           CLR     C
   \   0000E4   9401         SUBB    A,#0x1
   \   0000E6   4004         JC      ??bindRemoveClusterIdFromList_5
    434            {
    435              return ( TRUE );
   \   0000E8   7901         MOV     R1,#0x1
   \   0000EA   8002         SJMP    ??bindRemoveClusterIdFromList_6
    436            }
    437            else
    438            {
    439              return ( FALSE );
   \                     ??bindRemoveClusterIdFromList_5:
   \   0000EC   7900         MOV     R1,#0x0
   \                     ??bindRemoveClusterIdFromList_6:
   \   0000EE   7F03         MOV     R7,#0x3
   \   0000F0   02....       LJMP    ?BANKED_LEAVE_XDATA
    440            }
    441          }
    442          
    443          /*********************************************************************
    444           * @fn      bindAddClusterIdToList()
    445           *
    446           * @brief   Adds a ClusterID to a list of ClusterIDs.
    447           *
    448           * @param   enter - binding table entry
    449           * @param   clusterId  - Cluster ID to Add
    450           *
    451           * @return  TRUE if Added, FALSE if not
    452           */

   \                                 In  segment BANKED_CODE, align 1, keep-with-next
    453          byte bindAddClusterIdToList( BindingEntry_t *entry, uint16 clusterId )
   \                     bindAddClusterIdToList:
    454          {
   \   000000   74F7         MOV     A,#-0x9
   \   000002   12....       LCALL   ?BANKED_ENTER_XDATA
   \   000005                ; Saved register size: 9
   \   000005                ; Auto size: 0
    455            if ( entry && entry->numClusterIds < gMAX_BINDING_CLUSTER_IDS )
   \   000005   EA           MOV     A,R2
   \   000006   4B           ORL     A,R3
   \   000007   605A         JZ      ??bindAddClusterIdToList_0
   \   000009   90....       MOV     DPTR,#gMAX_BINDING_CLUSTER_IDS
   \   00000C   E4           CLR     A
   \   00000D   93           MOVC    A,@A+DPTR
   \   00000E   F8           MOV     R0,A
   \   00000F   8A82         MOV     DPL,R2
   \   000011   8B83         MOV     DPH,R3
   \   000013   A3           INC     DPTR
   \   000014   A3           INC     DPTR
   \   000015   A3           INC     DPTR
   \   000016   A3           INC     DPTR
   \   000017   A3           INC     DPTR
   \   000018   E0           MOVX    A,@DPTR
   \   000019   C3           CLR     C
   \   00001A   98           SUBB    A,R0
   \   00001B   5046         JNC     ??bindAddClusterIdToList_0
    456            {
    457              // Add the new one
    458              entry->clusterIdList[entry->numClusterIds] = clusterId;
   \   00001D   8A82         MOV     DPL,R2
   \   00001F   8B83         MOV     DPH,R3
   \   000021   A3           INC     DPTR
   \   000022   A3           INC     DPTR
   \   000023   A3           INC     DPTR
   \   000024   A3           INC     DPTR
   \   000025   A3           INC     DPTR
   \   000026   E0           MOVX    A,@DPTR
   \   000027   F8           MOV     R0,A
   \   000028   7900         MOV     R1,#0x0
   \   00002A   E8           MOV     A,R0
   \   00002B   75F002       MOV     B,#0x2
   \   00002E   A4           MUL     AB
   \   00002F   C8           XCH     A,R0
   \   000030   AEF0         MOV     R6,B
   \   000032   75F000       MOV     B,#0x0
   \   000035   A4           MUL     AB
   \   000036   2E           ADD     A,R6
   \   000037   FE           MOV     R6,A
   \   000038   75F002       MOV     B,#0x2
   \   00003B   E9           MOV     A,R1
   \   00003C   A4           MUL     AB
   \   00003D   2E           ADD     A,R6
   \   00003E   F9           MOV     R1,A
   \   00003F   EA           MOV     A,R2
   \   000040   28           ADD     A,R0
   \   000041   F582         MOV     DPL,A
   \   000043   EB           MOV     A,R3
   \   000044   39           ADDC    A,R1
   \   000045   F583         MOV     DPH,A
   \   000047   A3           INC     DPTR
   \   000048   A3           INC     DPTR
   \   000049   A3           INC     DPTR
   \   00004A   A3           INC     DPTR
   \   00004B   A3           INC     DPTR
   \   00004C   A3           INC     DPTR
   \   00004D   EC           MOV     A,R4
   \   00004E   F0           MOVX    @DPTR,A
   \   00004F   A3           INC     DPTR
   \   000050   ED           MOV     A,R5
   \   000051   F0           MOVX    @DPTR,A
    459              entry->numClusterIds++;
   \   000052   8A82         MOV     DPL,R2
   \   000054   8B83         MOV     DPH,R3
   \   000056   A3           INC     DPTR
   \   000057   A3           INC     DPTR
   \   000058   A3           INC     DPTR
   \   000059   A3           INC     DPTR
   \   00005A   A3           INC     DPTR
   \   00005B   E0           MOVX    A,@DPTR
   \   00005C   2401         ADD     A,#0x1
   \   00005E   F0           MOVX    @DPTR,A
    460              return ( TRUE );
   \   00005F   7901         MOV     R1,#0x1
   \   000061   8002         SJMP    ??bindAddClusterIdToList_1
    461            }
    462            return ( FALSE );
   \                     ??bindAddClusterIdToList_0:
   \   000063   7900         MOV     R1,#0x0
   \                     ??bindAddClusterIdToList_1:
   \   000065   7F01         MOV     R7,#0x1
   \   000067   02....       LJMP    ?BANKED_LEAVE_XDATA
    463          }
    464          
    465          /*********************************************************************
    466           * @fn      bindFindExisting
    467           *
    468           * @brief   Finds an existing src/epint to dst/epint bind record
    469           *
    470           * @param   srcAddr - Source address
    471           * @param   srcEpInt - Source Endpoint/Interface
    472           * @param   dstAddr - Destination address
    473           * @param   dstEpInt - Destination Endpoint/Interface
    474           *
    475           * @return  pointer to existing entry or NULL
    476           */

   \                                 In  segment BANKED_CODE, align 1, keep-with-next
    477          BindingEntry_t *bindFindExisting( byte srcEpInt,
   \                     bindFindExisting:
    478                                            zAddrType_t *dstAddr, byte dstEpInt )
    479          {
   \   000000   74F4         MOV     A,#-0xc
   \   000002   12....       LCALL   ?BANKED_ENTER_XDATA
   \   000005                ; Saved register size: 12
   \   000005                ; Auto size: 0
   \   000005   89..         MOV     ?V0 + 0,R1
   \   000007   EA           MOV     A,R2
   \   000008   FE           MOV     R6,A
   \   000009   EB           MOV     A,R3
   \   00000A   FF           MOV     R7,A
   \   00000B   8C..         MOV     ?V0 + 1,R4
    480            uint16 dstIdx;
    481            uint16 x;
    482          
    483            // Find the records in the assoc list
    484            if ( dstAddr->addrMode == AddrGroup )
   \   00000D   8E82         MOV     DPL,R6
   \   00000F   8F83         MOV     DPH,R7
   \   000011   A3           INC     DPTR
   \   000012   A3           INC     DPTR
   \   000013   A3           INC     DPTR
   \   000014   A3           INC     DPTR
   \   000015   A3           INC     DPTR
   \   000016   A3           INC     DPTR
   \   000017   A3           INC     DPTR
   \   000018   A3           INC     DPTR
   \   000019   E0           MOVX    A,@DPTR
   \   00001A   6401         XRL     A,#0x1
   \   00001C   700B         JNZ     ??bindFindExisting_0
    485            {
    486              dstIdx = dstAddr->addr.shortAddr;
   \   00001E   8E82         MOV     DPL,R6
   \   000020   8F83         MOV     DPH,R7
   \   000022   E0           MOVX    A,@DPTR
   \   000023   FC           MOV     R4,A
   \   000024   A3           INC     DPTR
   \   000025   E0           MOVX    A,@DPTR
   \   000026   FD           MOV     R5,A
   \   000027   800F         SJMP    ??bindFindExisting_1
    487            }
    488            else
    489            {
    490              dstIdx = bindingAddrMgsHelperFind( dstAddr );
   \                     ??bindFindExisting_0:
   \   000029                ; Setup parameters for call to function bindingAddrMgsHelperFind
   \   000029   EE           MOV     A,R6
   \   00002A   FA           MOV     R2,A
   \   00002B   EF           MOV     A,R7
   \   00002C   FB           MOV     R3,A
   \   00002D   12....       LCALL   ??bindingAddrMgsHelperFind?relay
   \   000030   8A..         MOV     ?V0 + 2,R2
   \   000032   8B..         MOV     ?V0 + 3,R3
   \   000034   AC..         MOV     R4,?V0 + 2
   \   000036   AD..         MOV     R5,?V0 + 3
    491            }
    492          
    493            if ( dstIdx == INVALID_NODE_ADDR )
   \                     ??bindFindExisting_1:
   \   000038   74FE         MOV     A,#-0x2
   \   00003A   6C           XRL     A,R4
   \   00003B   7003         JNZ     ??bindFindExisting_2
   \   00003D   74FF         MOV     A,#-0x1
   \   00003F   6D           XRL     A,R5
   \                     ??bindFindExisting_2:
   \   000040   7007         JNZ     ??bindFindExisting_3
    494            {
    495              return ( (BindingEntry_t *)NULL );
   \   000042   7A00         MOV     R2,#0x0
   \   000044   7B00         MOV     R3,#0x0
   \   000046   02....       LJMP    ??bindFindExisting_4 & 0xFFFF
    496            }
    497          
    498            // Start at the beginning
    499            for ( x = 0; x < gNWK_MAX_BINDING_ENTRIES; x++ )
   \                     ??bindFindExisting_3:
   \   000049   7800         MOV     R0,#0x0
   \   00004B   7900         MOV     R1,#0x0
   \   00004D   8008         SJMP    ??bindFindExisting_5
   \                     ??bindFindExisting_6:
   \   00004F   E8           MOV     A,R0
   \   000050   2401         ADD     A,#0x1
   \   000052   F8           MOV     R0,A
   \   000053   E9           MOV     A,R1
   \   000054   3400         ADDC    A,#0x0
   \   000056   F9           MOV     R1,A
   \                     ??bindFindExisting_5:
   \   000057   90....       MOV     DPTR,#gNWK_MAX_BINDING_ENTRIES
   \   00005A   E4           CLR     A
   \   00005B   93           MOVC    A,@A+DPTR
   \   00005C   FA           MOV     R2,A
   \   00005D   7401         MOV     A,#0x1
   \   00005F   93           MOVC    A,@A+DPTR
   \   000060   FB           MOV     R3,A
   \   000061   C3           CLR     C
   \   000062   E8           MOV     A,R0
   \   000063   9A           SUBB    A,R2
   \   000064   E9           MOV     A,R1
   \   000065   9B           SUBB    A,R3
   \   000066   4003         JC      $+5
   \   000068   02....       LJMP    ??bindFindExisting_7 & 0xFFFF
    500            {
    501              if ( (BindingTable[x].srcEP == srcEpInt) )
   \   00006B   E8           MOV     A,R0
   \   00006C   FA           MOV     R2,A
   \   00006D   E9           MOV     A,R1
   \   00006E   FB           MOV     R3,A
   \   00006F   EA           MOV     A,R2
   \   000070   75F00E       MOV     B,#0xe
   \   000073   A4           MUL     AB
   \   000074   CA           XCH     A,R2
   \   000075   85F0..       MOV     ?V0 + 2,B
   \   000078   75F000       MOV     B,#0x0
   \   00007B   A4           MUL     AB
   \   00007C   25..         ADD     A,?V0 + 2
   \   00007E   F5..         MOV     ?V0 + 2,A
   \   000080   75F00E       MOV     B,#0xe
   \   000083   EB           MOV     A,R3
   \   000084   A4           MUL     AB
   \   000085   25..         ADD     A,?V0 + 2
   \   000087   FB           MOV     R3,A
   \   000088   74..         MOV     A,#BindingTable & 0xff
   \   00008A   2A           ADD     A,R2
   \   00008B   F582         MOV     DPL,A
   \   00008D   74..         MOV     A,#(BindingTable >> 8) & 0xff
   \   00008F   3B           ADDC    A,R3
   \   000090   F583         MOV     DPH,A
   \   000092   E0           MOVX    A,@DPTR
   \   000093   65..         XRL     A,?V0 + 0
   \   000095   70B8         JNZ     ??bindFindExisting_6
    502              {
    503                if ( ((dstAddr->addrMode == AddrGroup)
    504                        && (BindingTable[x].dstGroupMode == DSTGROUPMODE_GROUP)
    505                        && (dstIdx == BindingTable[x].dstIdx))
    506                   || ((dstAddr->addrMode != AddrGroup)
    507                       && (BindingTable[x].dstGroupMode == DSTGROUPMODE_ADDR)
    508                       && (dstIdx == BindingTable[x].dstIdx) && (BindingTable[x].dstEP == dstEpInt)) )
   \   000097   8E82         MOV     DPL,R6
   \   000099   8F83         MOV     DPH,R7
   \   00009B   A3           INC     DPTR
   \   00009C   A3           INC     DPTR
   \   00009D   A3           INC     DPTR
   \   00009E   A3           INC     DPTR
   \   00009F   A3           INC     DPTR
   \   0000A0   A3           INC     DPTR
   \   0000A1   A3           INC     DPTR
   \   0000A2   A3           INC     DPTR
   \   0000A3   E0           MOVX    A,@DPTR
   \   0000A4   6401         XRL     A,#0x1
   \   0000A6   705F         JNZ     ??bindFindExisting_8
   \   0000A8   E8           MOV     A,R0
   \   0000A9   FA           MOV     R2,A
   \   0000AA   E9           MOV     A,R1
   \   0000AB   FB           MOV     R3,A
   \   0000AC   EA           MOV     A,R2
   \   0000AD   75F00E       MOV     B,#0xe
   \   0000B0   A4           MUL     AB
   \   0000B1   CA           XCH     A,R2
   \   0000B2   85F0..       MOV     ?V0 + 2,B
   \   0000B5   75F000       MOV     B,#0x0
   \   0000B8   A4           MUL     AB
   \   0000B9   25..         ADD     A,?V0 + 2
   \   0000BB   F5..         MOV     ?V0 + 2,A
   \   0000BD   75F00E       MOV     B,#0xe
   \   0000C0   EB           MOV     A,R3
   \   0000C1   A4           MUL     AB
   \   0000C2   25..         ADD     A,?V0 + 2
   \   0000C4   FB           MOV     R3,A
   \   0000C5   74..         MOV     A,#(BindingTable + 1) & 0xff
   \   0000C7   2A           ADD     A,R2
   \   0000C8   F582         MOV     DPL,A
   \   0000CA   74..         MOV     A,#((BindingTable + 1) >> 8) & 0xff
   \   0000CC   3B           ADDC    A,R3
   \   0000CD   F583         MOV     DPH,A
   \   0000CF   E0           MOVX    A,@DPTR
   \   0000D0   6401         XRL     A,#0x1
   \   0000D2   7033         JNZ     ??bindFindExisting_8
   \   0000D4   E8           MOV     A,R0
   \   0000D5   FA           MOV     R2,A
   \   0000D6   E9           MOV     A,R1
   \   0000D7   FB           MOV     R3,A
   \   0000D8   EA           MOV     A,R2
   \   0000D9   75F00E       MOV     B,#0xe
   \   0000DC   A4           MUL     AB
   \   0000DD   CA           XCH     A,R2
   \   0000DE   85F0..       MOV     ?V0 + 2,B
   \   0000E1   75F000       MOV     B,#0x0
   \   0000E4   A4           MUL     AB
   \   0000E5   25..         ADD     A,?V0 + 2
   \   0000E7   F5..         MOV     ?V0 + 2,A
   \   0000E9   75F00E       MOV     B,#0xe
   \   0000EC   EB           MOV     A,R3
   \   0000ED   A4           MUL     AB
   \   0000EE   25..         ADD     A,?V0 + 2
   \   0000F0   FB           MOV     R3,A
   \   0000F1   74..         MOV     A,#(BindingTable + 2) & 0xff
   \   0000F3   2A           ADD     A,R2
   \   0000F4   F582         MOV     DPL,A
   \   0000F6   74..         MOV     A,#((BindingTable + 2) >> 8) & 0xff
   \   0000F8   3B           ADDC    A,R3
   \   0000F9   F583         MOV     DPH,A
   \   0000FB   E0           MOVX    A,@DPTR
   \   0000FC   6C           XRL     A,R4
   \   0000FD   7003         JNZ     ??bindFindExisting_9
   \   0000FF   A3           INC     DPTR
   \   000100   E0           MOVX    A,@DPTR
   \   000101   6D           XRL     A,R5
   \                     ??bindFindExisting_9:
   \   000102   7003         JNZ     $+5
   \   000104   02....       LJMP    ??bindFindExisting_10 & 0xFFFF
   \                     ??bindFindExisting_8:
   \   000107   8E82         MOV     DPL,R6
   \   000109   8F83         MOV     DPH,R7
   \   00010B   A3           INC     DPTR
   \   00010C   A3           INC     DPTR
   \   00010D   A3           INC     DPTR
   \   00010E   A3           INC     DPTR
   \   00010F   A3           INC     DPTR
   \   000110   A3           INC     DPTR
   \   000111   A3           INC     DPTR
   \   000112   A3           INC     DPTR
   \   000113   E0           MOVX    A,@DPTR
   \   000114   6401         XRL     A,#0x1
   \   000116   7003         JNZ     $+5
   \   000118   02....       LJMP    ??bindFindExisting_6 & 0xFFFF
   \   00011B   E8           MOV     A,R0
   \   00011C   FA           MOV     R2,A
   \   00011D   E9           MOV     A,R1
   \   00011E   FB           MOV     R3,A
   \   00011F   EA           MOV     A,R2
   \   000120   75F00E       MOV     B,#0xe
   \   000123   A4           MUL     AB
   \   000124   CA           XCH     A,R2
   \   000125   85F0..       MOV     ?V0 + 2,B
   \   000128   75F000       MOV     B,#0x0
   \   00012B   A4           MUL     AB
   \   00012C   25..         ADD     A,?V0 + 2
   \   00012E   F5..         MOV     ?V0 + 2,A
   \   000130   75F00E       MOV     B,#0xe
   \   000133   EB           MOV     A,R3
   \   000134   A4           MUL     AB
   \   000135   25..         ADD     A,?V0 + 2
   \   000137   FB           MOV     R3,A
   \   000138   74..         MOV     A,#(BindingTable + 1) & 0xff
   \   00013A   2A           ADD     A,R2
   \   00013B   F582         MOV     DPL,A
   \   00013D   74..         MOV     A,#((BindingTable + 1) >> 8) & 0xff
   \   00013F   3B           ADDC    A,R3
   \   000140   F583         MOV     DPH,A
   \   000142   E0           MOVX    A,@DPTR
   \   000143   6003         JZ      $+5
   \   000145   02....       LJMP    ??bindFindExisting_6 & 0xFFFF
   \   000148   E8           MOV     A,R0
   \   000149   FA           MOV     R2,A
   \   00014A   E9           MOV     A,R1
   \   00014B   FB           MOV     R3,A
   \   00014C   EA           MOV     A,R2
   \   00014D   75F00E       MOV     B,#0xe
   \   000150   A4           MUL     AB
   \   000151   CA           XCH     A,R2
   \   000152   85F0..       MOV     ?V0 + 2,B
   \   000155   75F000       MOV     B,#0x0
   \   000158   A4           MUL     AB
   \   000159   25..         ADD     A,?V0 + 2
   \   00015B   F5..         MOV     ?V0 + 2,A
   \   00015D   75F00E       MOV     B,#0xe
   \   000160   EB           MOV     A,R3
   \   000161   A4           MUL     AB
   \   000162   25..         ADD     A,?V0 + 2
   \   000164   FB           MOV     R3,A
   \   000165   74..         MOV     A,#(BindingTable + 2) & 0xff
   \   000167   2A           ADD     A,R2
   \   000168   F582         MOV     DPL,A
   \   00016A   74..         MOV     A,#((BindingTable + 2) >> 8) & 0xff
   \   00016C   3B           ADDC    A,R3
   \   00016D   F583         MOV     DPH,A
   \   00016F   E0           MOVX    A,@DPTR
   \   000170   6C           XRL     A,R4
   \   000171   7003         JNZ     ??bindFindExisting_11
   \   000173   A3           INC     DPTR
   \   000174   E0           MOVX    A,@DPTR
   \   000175   6D           XRL     A,R5
   \                     ??bindFindExisting_11:
   \   000176   6003         JZ      $+5
   \   000178   02....       LJMP    ??bindFindExisting_6 & 0xFFFF
   \   00017B   E8           MOV     A,R0
   \   00017C   FA           MOV     R2,A
   \   00017D   E9           MOV     A,R1
   \   00017E   FB           MOV     R3,A
   \   00017F   EA           MOV     A,R2
   \   000180   75F00E       MOV     B,#0xe
   \   000183   A4           MUL     AB
   \   000184   CA           XCH     A,R2
   \   000185   85F0..       MOV     ?V0 + 2,B
   \   000188   75F000       MOV     B,#0x0
   \   00018B   A4           MUL     AB
   \   00018C   25..         ADD     A,?V0 + 2
   \   00018E   F5..         MOV     ?V0 + 2,A
   \   000190   75F00E       MOV     B,#0xe
   \   000193   EB           MOV     A,R3
   \   000194   A4           MUL     AB
   \   000195   25..         ADD     A,?V0 + 2
   \   000197   FB           MOV     R3,A
   \   000198   74..         MOV     A,#(BindingTable + 4) & 0xff
   \   00019A   2A           ADD     A,R2
   \   00019B   F582         MOV     DPL,A
   \   00019D   74..         MOV     A,#((BindingTable + 4) >> 8) & 0xff
   \   00019F   3B           ADDC    A,R3
   \   0001A0   F583         MOV     DPH,A
   \   0001A2   E0           MOVX    A,@DPTR
   \   0001A3   65..         XRL     A,?V0 + 1
   \   0001A5   6003         JZ      $+5
   \   0001A7   02....       LJMP    ??bindFindExisting_6 & 0xFFFF
    509                {
    510                  return ( &BindingTable[x] );
   \                     ??bindFindExisting_10:
   \   0001AA   E8           MOV     A,R0
   \   0001AB   75F00E       MOV     B,#0xe
   \   0001AE   A4           MUL     AB
   \   0001AF   C8           XCH     A,R0
   \   0001B0   AAF0         MOV     R2,B
   \   0001B2   75F000       MOV     B,#0x0
   \   0001B5   A4           MUL     AB
   \   0001B6   2A           ADD     A,R2
   \   0001B7   FA           MOV     R2,A
   \   0001B8   75F00E       MOV     B,#0xe
   \   0001BB   E9           MOV     A,R1
   \   0001BC   A4           MUL     AB
   \   0001BD   2A           ADD     A,R2
   \   0001BE   F9           MOV     R1,A
   \   0001BF   74..         MOV     A,#BindingTable & 0xff
   \   0001C1   28           ADD     A,R0
   \   0001C2   FA           MOV     R2,A
   \   0001C3   74..         MOV     A,#(BindingTable >> 8) & 0xff
   \   0001C5   39           ADDC    A,R1
   \   0001C6   FB           MOV     R3,A
   \   0001C7   8004         SJMP    ??bindFindExisting_4
    511                }
    512              }
    513            }
    514          
    515            return ( (BindingEntry_t *)NULL );
   \                     ??bindFindExisting_7:
   \   0001C9   7A00         MOV     R2,#0x0
   \   0001CB   7B00         MOV     R3,#0x0
   \                     ??bindFindExisting_4:
   \   0001CD   7F04         MOV     R7,#0x4
   \   0001CF   02....       LJMP    ?BANKED_LEAVE_XDATA
    516          }
    517          
    518          /*********************************************************************
    519           * @fn       bindRemoveDev()
    520           *
    521           * @brief
    522           *
    523           *   Remove all bind(s) entries associated to a device address (destination).
    524           *   Updates binding table.
    525           *
    526           * @param   Addr - address of device to be removed from Binding Table
    527           *
    528           * @return  none
    529           */

   \                                 In  segment BANKED_CODE, align 1, keep-with-next
    530          void bindRemoveDev( zAddrType_t *Addr )
   \                     bindRemoveDev:
    531          {
   \   000000   74F2         MOV     A,#-0xe
   \   000002   12....       LCALL   ?BANKED_ENTER_XDATA
   \   000005                ; Saved register size: 14
   \   000005                ; Auto size: 0
   \   000005   8A..         MOV     ?V0 + 0,R2
   \   000007   8B..         MOV     ?V0 + 1,R3
    532            uint16 idx;
    533            uint16 x;
    534          
    535            if ( Addr->addrMode == AddrGroup )
   \   000009   85..82       MOV     DPL,?V0 + 0
   \   00000C   85..83       MOV     DPH,?V0 + 1
   \   00000F   A3           INC     DPTR
   \   000010   A3           INC     DPTR
   \   000011   A3           INC     DPTR
   \   000012   A3           INC     DPTR
   \   000013   A3           INC     DPTR
   \   000014   A3           INC     DPTR
   \   000015   A3           INC     DPTR
   \   000016   A3           INC     DPTR
   \   000017   E0           MOVX    A,@DPTR
   \   000018   6401         XRL     A,#0x1
   \   00001A   700F         JNZ     ??bindRemoveDev_0
    536            {
    537              idx = Addr->addr.shortAddr;
   \   00001C   85..82       MOV     DPL,?V0 + 0
   \   00001F   85..83       MOV     DPH,?V0 + 1
   \   000022   E0           MOVX    A,@DPTR
   \   000023   F5..         MOV     ?V0 + 2,A
   \   000025   A3           INC     DPTR
   \   000026   E0           MOVX    A,@DPTR
   \   000027   F5..         MOV     ?V0 + 3,A
   \   000029   8011         SJMP    ??bindRemoveDev_1
    538            }
    539            else
    540            {
    541              idx = bindingAddrMgsHelperFind( Addr );
   \                     ??bindRemoveDev_0:
   \   00002B                ; Setup parameters for call to function bindingAddrMgsHelperFind
   \   00002B   AA..         MOV     R2,?V0 + 0
   \   00002D   AB..         MOV     R3,?V0 + 1
   \   00002F   12....       LCALL   ??bindingAddrMgsHelperFind?relay
   \   000032   8A..         MOV     ?V0 + 4,R2
   \   000034   8B..         MOV     ?V0 + 5,R3
   \   000036   85....       MOV     ?V0 + 2,?V0 + 4
   \   000039   85....       MOV     ?V0 + 3,?V0 + 5
    542            }
    543          
    544            if ( idx == INVALID_NODE_ADDR )
   \                     ??bindRemoveDev_1:
   \   00003C   74FE         MOV     A,#-0x2
   \   00003E   65..         XRL     A,?V0 + 2
   \   000040   7004         JNZ     ??bindRemoveDev_2
   \   000042   74FF         MOV     A,#-0x1
   \   000044   65..         XRL     A,?V0 + 3
   \                     ??bindRemoveDev_2:
   \   000046   7003         JNZ     $+5
   \   000048   02....       LJMP    ??bindRemoveDev_3 & 0xFFFF
    545            {
    546              return;
    547            }
    548          
    549            // Removes all the entries that match the destination Address/Index
    550            for ( x = 0; x < gNWK_MAX_BINDING_ENTRIES; x++ )
   \   00004B   7E00         MOV     R6,#0x0
   \   00004D   7F00         MOV     R7,#0x0
   \   00004F   02....       LJMP    ??bindRemoveDev_4 & 0xFFFF
    551            {
    552              if ( ( (Addr->addrMode == AddrGroup) && (BindingTable[x].dstGroupMode == DSTGROUPMODE_GROUP)
    553                                                   && (BindingTable[x].dstIdx == idx) ) ||
    554                   ( (Addr->addrMode != AddrGroup) && (BindingTable[x].dstGroupMode == DSTGROUPMODE_ADDR)
    555                                                   && (BindingTable[x].dstIdx == idx) ) )
   \                     ??bindRemoveDev_5:
   \   000052   85..82       MOV     DPL,?V0 + 0
   \   000055   85..83       MOV     DPH,?V0 + 1
   \   000058   A3           INC     DPTR
   \   000059   A3           INC     DPTR
   \   00005A   A3           INC     DPTR
   \   00005B   A3           INC     DPTR
   \   00005C   A3           INC     DPTR
   \   00005D   A3           INC     DPTR
   \   00005E   A3           INC     DPTR
   \   00005F   A3           INC     DPTR
   \   000060   E0           MOVX    A,@DPTR
   \   000061   6401         XRL     A,#0x1
   \   000063   7056         JNZ     ??bindRemoveDev_6
   \   000065   EE           MOV     A,R6
   \   000066   F8           MOV     R0,A
   \   000067   EF           MOV     A,R7
   \   000068   F9           MOV     R1,A
   \   000069   E8           MOV     A,R0
   \   00006A   75F00E       MOV     B,#0xe
   \   00006D   A4           MUL     AB
   \   00006E   C8           XCH     A,R0
   \   00006F   AAF0         MOV     R2,B
   \   000071   75F000       MOV     B,#0x0
   \   000074   A4           MUL     AB
   \   000075   2A           ADD     A,R2
   \   000076   FA           MOV     R2,A
   \   000077   75F00E       MOV     B,#0xe
   \   00007A   E9           MOV     A,R1
   \   00007B   A4           MUL     AB
   \   00007C   2A           ADD     A,R2
   \   00007D   F9           MOV     R1,A
   \   00007E   74..         MOV     A,#(BindingTable + 1) & 0xff
   \   000080   28           ADD     A,R0
   \   000081   F582         MOV     DPL,A
   \   000083   74..         MOV     A,#((BindingTable + 1) >> 8) & 0xff
   \   000085   39           ADDC    A,R1
   \   000086   F583         MOV     DPH,A
   \   000088   E0           MOVX    A,@DPTR
   \   000089   6401         XRL     A,#0x1
   \   00008B   702E         JNZ     ??bindRemoveDev_6
   \   00008D   EE           MOV     A,R6
   \   00008E   F8           MOV     R0,A
   \   00008F   EF           MOV     A,R7
   \   000090   F9           MOV     R1,A
   \   000091   E8           MOV     A,R0
   \   000092   75F00E       MOV     B,#0xe
   \   000095   A4           MUL     AB
   \   000096   C8           XCH     A,R0
   \   000097   AAF0         MOV     R2,B
   \   000099   75F000       MOV     B,#0x0
   \   00009C   A4           MUL     AB
   \   00009D   2A           ADD     A,R2
   \   00009E   FA           MOV     R2,A
   \   00009F   75F00E       MOV     B,#0xe
   \   0000A2   E9           MOV     A,R1
   \   0000A3   A4           MUL     AB
   \   0000A4   2A           ADD     A,R2
   \   0000A5   F9           MOV     R1,A
   \   0000A6   74..         MOV     A,#(BindingTable + 2) & 0xff
   \   0000A8   28           ADD     A,R0
   \   0000A9   F582         MOV     DPL,A
   \   0000AB   74..         MOV     A,#((BindingTable + 2) >> 8) & 0xff
   \   0000AD   39           ADDC    A,R1
   \   0000AE   F583         MOV     DPH,A
   \   0000B0   E0           MOVX    A,@DPTR
   \   0000B1   65..         XRL     A,?V0 + 2
   \   0000B3   7004         JNZ     ??bindRemoveDev_7
   \   0000B5   A3           INC     DPTR
   \   0000B6   E0           MOVX    A,@DPTR
   \   0000B7   65..         XRL     A,?V0 + 3
   \                     ??bindRemoveDev_7:
   \   0000B9   6067         JZ      ??bindRemoveDev_8
   \                     ??bindRemoveDev_6:
   \   0000BB   85..82       MOV     DPL,?V0 + 0
   \   0000BE   85..83       MOV     DPH,?V0 + 1
   \   0000C1   A3           INC     DPTR
   \   0000C2   A3           INC     DPTR
   \   0000C3   A3           INC     DPTR
   \   0000C4   A3           INC     DPTR
   \   0000C5   A3           INC     DPTR
   \   0000C6   A3           INC     DPTR
   \   0000C7   A3           INC     DPTR
   \   0000C8   A3           INC     DPTR
   \   0000C9   E0           MOVX    A,@DPTR
   \   0000CA   6401         XRL     A,#0x1
   \   0000CC   6079         JZ      ??bindRemoveDev_9
   \   0000CE   EE           MOV     A,R6
   \   0000CF   F8           MOV     R0,A
   \   0000D0   EF           MOV     A,R7
   \   0000D1   F9           MOV     R1,A
   \   0000D2   E8           MOV     A,R0
   \   0000D3   75F00E       MOV     B,#0xe
   \   0000D6   A4           MUL     AB
   \   0000D7   C8           XCH     A,R0
   \   0000D8   AAF0         MOV     R2,B
   \   0000DA   75F000       MOV     B,#0x0
   \   0000DD   A4           MUL     AB
   \   0000DE   2A           ADD     A,R2
   \   0000DF   FA           MOV     R2,A
   \   0000E0   75F00E       MOV     B,#0xe
   \   0000E3   E9           MOV     A,R1
   \   0000E4   A4           MUL     AB
   \   0000E5   2A           ADD     A,R2
   \   0000E6   F9           MOV     R1,A
   \   0000E7   74..         MOV     A,#(BindingTable + 1) & 0xff
   \   0000E9   28           ADD     A,R0
   \   0000EA   F582         MOV     DPL,A
   \   0000EC   74..         MOV     A,#((BindingTable + 1) >> 8) & 0xff
   \   0000EE   39           ADDC    A,R1
   \   0000EF   F583         MOV     DPH,A
   \   0000F1   E0           MOVX    A,@DPTR
   \   0000F2   7053         JNZ     ??bindRemoveDev_9
   \   0000F4   EE           MOV     A,R6
   \   0000F5   F8           MOV     R0,A
   \   0000F6   EF           MOV     A,R7
   \   0000F7   F9           MOV     R1,A
   \   0000F8   E8           MOV     A,R0
   \   0000F9   75F00E       MOV     B,#0xe
   \   0000FC   A4           MUL     AB
   \   0000FD   C8           XCH     A,R0
   \   0000FE   AAF0         MOV     R2,B
   \   000100   75F000       MOV     B,#0x0
   \   000103   A4           MUL     AB
   \   000104   2A           ADD     A,R2
   \   000105   FA           MOV     R2,A
   \   000106   75F00E       MOV     B,#0xe
   \   000109   E9           MOV     A,R1
   \   00010A   A4           MUL     AB
   \   00010B   2A           ADD     A,R2
   \   00010C   F9           MOV     R1,A
   \   00010D   74..         MOV     A,#(BindingTable + 2) & 0xff
   \   00010F   28           ADD     A,R0
   \   000110   F582         MOV     DPL,A
   \   000112   74..         MOV     A,#((BindingTable + 2) >> 8) & 0xff
   \   000114   39           ADDC    A,R1
   \   000115   F583         MOV     DPH,A
   \   000117   E0           MOVX    A,@DPTR
   \   000118   65..         XRL     A,?V0 + 2
   \   00011A   7004         JNZ     ??bindRemoveDev_10
   \   00011C   A3           INC     DPTR
   \   00011D   E0           MOVX    A,@DPTR
   \   00011E   65..         XRL     A,?V0 + 3
   \                     ??bindRemoveDev_10:
   \   000120   7025         JNZ     ??bindRemoveDev_9
    556              {
    557                bindRemoveEntry( &BindingTable[x] );
   \                     ??bindRemoveDev_8:
   \   000122                ; Setup parameters for call to function bindRemoveEntry
   \   000122   EE           MOV     A,R6
   \   000123   F8           MOV     R0,A
   \   000124   EF           MOV     A,R7
   \   000125   F9           MOV     R1,A
   \   000126   E8           MOV     A,R0
   \   000127   75F00E       MOV     B,#0xe
   \   00012A   A4           MUL     AB
   \   00012B   C8           XCH     A,R0
   \   00012C   AAF0         MOV     R2,B
   \   00012E   75F000       MOV     B,#0x0
   \   000131   A4           MUL     AB
   \   000132   2A           ADD     A,R2
   \   000133   FA           MOV     R2,A
   \   000134   75F00E       MOV     B,#0xe
   \   000137   E9           MOV     A,R1
   \   000138   A4           MUL     AB
   \   000139   2A           ADD     A,R2
   \   00013A   F9           MOV     R1,A
   \   00013B   74..         MOV     A,#BindingTable & 0xff
   \   00013D   28           ADD     A,R0
   \   00013E   FA           MOV     R2,A
   \   00013F   74..         MOV     A,#(BindingTable >> 8) & 0xff
   \   000141   39           ADDC    A,R1
   \   000142   FB           MOV     R3,A
   \   000143   12....       LCALL   ??bindRemoveEntry?relay
   \   000146   E9           MOV     A,R1
    558              }
    559            }
   \                     ??bindRemoveDev_9:
   \   000147   EE           MOV     A,R6
   \   000148   2401         ADD     A,#0x1
   \   00014A   FE           MOV     R6,A
   \   00014B   EF           MOV     A,R7
   \   00014C   3400         ADDC    A,#0x0
   \   00014E   FF           MOV     R7,A
   \                     ??bindRemoveDev_4:
   \   00014F   90....       MOV     DPTR,#gNWK_MAX_BINDING_ENTRIES
   \   000152   E4           CLR     A
   \   000153   93           MOVC    A,@A+DPTR
   \   000154   F8           MOV     R0,A
   \   000155   7401         MOV     A,#0x1
   \   000157   93           MOVC    A,@A+DPTR
   \   000158   F9           MOV     R1,A
   \   000159   C3           CLR     C
   \   00015A   EE           MOV     A,R6
   \   00015B   98           SUBB    A,R0
   \   00015C   EF           MOV     A,R7
   \   00015D   99           SUBB    A,R1
   \   00015E   5003         JNC     $+5
   \   000160   02....       LJMP    ??bindRemoveDev_5 & 0xFFFF
    560          }
   \                     ??bindRemoveDev_3:
   \   000163   7F06         MOV     R7,#0x6
   \   000165   02....       LJMP    ?BANKED_LEAVE_XDATA
    561          
    562          /*********************************************************************
    563           * @fn       bindRemoveSrcDev()
    564           *
    565           * @brief
    566           *
    567           *   Remove binds(s) associated to device address (source).
    568           *   Updates binding table.
    569           *
    570           * @param   srcAddr - address of device
    571           * @param   ep - endpoint to remove, 0xFF is all endpoints
    572           *
    573           * @return  none
    574           */

   \                                 In  segment BANKED_CODE, align 1, keep-with-next
    575          void bindRemoveSrcDev( uint8 ep )
   \                     bindRemoveSrcDev:
    576          {
   \   000000   74F7         MOV     A,#-0x9
   \   000002   12....       LCALL   ?BANKED_ENTER_XDATA
   \   000005                ; Saved register size: 9
   \   000005                ; Auto size: 0
   \   000005   89..         MOV     ?V0 + 0,R1
    577            uint16 x;
    578          
    579            for ( x = 0; x < gNWK_MAX_BINDING_ENTRIES; x++ )
   \   000007   7E00         MOV     R6,#0x0
   \   000009   7F00         MOV     R7,#0x0
   \   00000B   805B         SJMP    ??bindRemoveSrcDev_0
    580            {
    581              if ( (ep == 0xFF) || (ep == BindingTable[x].srcEP) )
   \                     ??bindRemoveSrcDev_1:
   \   00000D   74FF         MOV     A,#-0x1
   \   00000F   65..         XRL     A,?V0 + 0
   \   000011   6028         JZ      ??bindRemoveSrcDev_2
   \   000013   EE           MOV     A,R6
   \   000014   F8           MOV     R0,A
   \   000015   EF           MOV     A,R7
   \   000016   F9           MOV     R1,A
   \   000017   E8           MOV     A,R0
   \   000018   75F00E       MOV     B,#0xe
   \   00001B   A4           MUL     AB
   \   00001C   C8           XCH     A,R0
   \   00001D   AAF0         MOV     R2,B
   \   00001F   75F000       MOV     B,#0x0
   \   000022   A4           MUL     AB
   \   000023   2A           ADD     A,R2
   \   000024   FA           MOV     R2,A
   \   000025   75F00E       MOV     B,#0xe
   \   000028   E9           MOV     A,R1
   \   000029   A4           MUL     AB
   \   00002A   2A           ADD     A,R2
   \   00002B   F9           MOV     R1,A
   \   00002C   74..         MOV     A,#BindingTable & 0xff
   \   00002E   28           ADD     A,R0
   \   00002F   F582         MOV     DPL,A
   \   000031   74..         MOV     A,#(BindingTable >> 8) & 0xff
   \   000033   39           ADDC    A,R1
   \   000034   F583         MOV     DPH,A
   \   000036   E0           MOVX    A,@DPTR
   \   000037   65..         XRL     A,?V0 + 0
   \   000039   7025         JNZ     ??bindRemoveSrcDev_3
    582              {
    583                bindRemoveEntry( &BindingTable[x] );
   \                     ??bindRemoveSrcDev_2:
   \   00003B                ; Setup parameters for call to function bindRemoveEntry
   \   00003B   EE           MOV     A,R6
   \   00003C   F8           MOV     R0,A
   \   00003D   EF           MOV     A,R7
   \   00003E   F9           MOV     R1,A
   \   00003F   E8           MOV     A,R0
   \   000040   75F00E       MOV     B,#0xe
   \   000043   A4           MUL     AB
   \   000044   C8           XCH     A,R0
   \   000045   AAF0         MOV     R2,B
   \   000047   75F000       MOV     B,#0x0
   \   00004A   A4           MUL     AB
   \   00004B   2A           ADD     A,R2
   \   00004C   FA           MOV     R2,A
   \   00004D   75F00E       MOV     B,#0xe
   \   000050   E9           MOV     A,R1
   \   000051   A4           MUL     AB
   \   000052   2A           ADD     A,R2
   \   000053   F9           MOV     R1,A
   \   000054   74..         MOV     A,#BindingTable & 0xff
   \   000056   28           ADD     A,R0
   \   000057   FA           MOV     R2,A
   \   000058   74..         MOV     A,#(BindingTable >> 8) & 0xff
   \   00005A   39           ADDC    A,R1
   \   00005B   FB           MOV     R3,A
   \   00005C   12....       LCALL   ??bindRemoveEntry?relay
   \   00005F   E9           MOV     A,R1
    584              }
    585            }
   \                     ??bindRemoveSrcDev_3:
   \   000060   EE           MOV     A,R6
   \   000061   2401         ADD     A,#0x1
   \   000063   FE           MOV     R6,A
   \   000064   EF           MOV     A,R7
   \   000065   3400         ADDC    A,#0x0
   \   000067   FF           MOV     R7,A
   \                     ??bindRemoveSrcDev_0:
   \   000068   90....       MOV     DPTR,#gNWK_MAX_BINDING_ENTRIES
   \   00006B   E4           CLR     A
   \   00006C   93           MOVC    A,@A+DPTR
   \   00006D   F8           MOV     R0,A
   \   00006E   7401         MOV     A,#0x1
   \   000070   93           MOVC    A,@A+DPTR
   \   000071   F9           MOV     R1,A
   \   000072   C3           CLR     C
   \   000073   EE           MOV     A,R6
   \   000074   98           SUBB    A,R0
   \   000075   EF           MOV     A,R7
   \   000076   99           SUBB    A,R1
   \   000077   4094         JC      ??bindRemoveSrcDev_1
    586          }
   \   000079   7F01         MOV     R7,#0x1
   \   00007B   02....       LJMP    ?BANKED_LEAVE_XDATA
    587          
    588          /*********************************************************************
    589           * @fn          bindNumBoundTo
    590           *
    591           * @brief       Calculate the number items this device is bound to.
    592           *              When srcMode is set to TRUE, discard what value devAddr
    593           *              has, it returns number count bound to the local dev.
    594           *
    595           * @param       devAddr - device Address
    596           * @param       devEP - endpoint
    597           * @param       srcMode - TRUE - assume devHandle is a source address
    598           *                        FALSE - destination address
    599           *
    600           * @return      status
    601           */

   \                                 In  segment BANKED_CODE, align 1, keep-with-next
    602          byte bindNumBoundTo( zAddrType_t *devAddr, byte devEpInt, byte srcMode )
   \                     bindNumBoundTo:
    603          {
   \   000000   74F2         MOV     A,#-0xe
   \   000002   12....       LCALL   ?BANKED_ENTER_XDATA
   \   000005                ; Saved register size: 14
   \   000005                ; Auto size: 0
   \   000005   EA           MOV     A,R2
   \   000006   FE           MOV     R6,A
   \   000007   EB           MOV     A,R3
   \   000008   FF           MOV     R7,A
   \   000009   89..         MOV     ?V0 + 1,R1
   \   00000B   8C..         MOV     ?V0 + 2,R4
    604            BindingEntry_t *pBind;
    605            uint16 idx;
    606            byte   num;
    607            uint16 x;
    608          
    609            // Init
    610            num = 0;
   \   00000D   75..00       MOV     ?V0 + 0,#0x0
    611          
    612            if ( devAddr->addrMode == AddrGroup )
   \   000010   8E82         MOV     DPL,R6
   \   000012   8F83         MOV     DPH,R7
   \   000014   A3           INC     DPTR
   \   000015   A3           INC     DPTR
   \   000016   A3           INC     DPTR
   \   000017   A3           INC     DPTR
   \   000018   A3           INC     DPTR
   \   000019   A3           INC     DPTR
   \   00001A   A3           INC     DPTR
   \   00001B   A3           INC     DPTR
   \   00001C   E0           MOVX    A,@DPTR
   \   00001D   6401         XRL     A,#0x1
   \   00001F   700B         JNZ     ??bindNumBoundTo_0
    613            {
    614              idx = devAddr->addr.shortAddr;
   \   000021   8E82         MOV     DPL,R6
   \   000023   8F83         MOV     DPH,R7
   \   000025   E0           MOVX    A,@DPTR
   \   000026   FC           MOV     R4,A
   \   000027   A3           INC     DPTR
   \   000028   E0           MOVX    A,@DPTR
   \   000029   FD           MOV     R5,A
   \   00002A   800F         SJMP    ??bindNumBoundTo_1
    615            }
    616            else
    617            {
    618              idx = bindingAddrMgsHelperFind( devAddr );
   \                     ??bindNumBoundTo_0:
   \   00002C                ; Setup parameters for call to function bindingAddrMgsHelperFind
   \   00002C   EE           MOV     A,R6
   \   00002D   FA           MOV     R2,A
   \   00002E   EF           MOV     A,R7
   \   00002F   FB           MOV     R3,A
   \   000030   12....       LCALL   ??bindingAddrMgsHelperFind?relay
   \   000033   8A..         MOV     ?V0 + 4,R2
   \   000035   8B..         MOV     ?V0 + 5,R3
   \   000037   AC..         MOV     R4,?V0 + 4
   \   000039   AD..         MOV     R5,?V0 + 5
    619            }
    620          
    621            for ( x = 0; x < gNWK_MAX_BINDING_ENTRIES; x++ )
   \                     ??bindNumBoundTo_1:
   \   00003B   7800         MOV     R0,#0x0
   \   00003D   7900         MOV     R1,#0x0
   \   00003F   8069         SJMP    ??bindNumBoundTo_2
    622            {
    623              pBind = &BindingTable[x];
    624              if ( srcMode )
    625              {
    626                if ( pBind->srcEP == devEpInt )
    627                {
    628                  num++;
    629                }
    630              }
    631              else
    632              {
    633                if ( ((devAddr->addrMode == AddrGroup)
    634                        && (pBind->dstGroupMode == DSTGROUPMODE_GROUP) && (pBind->dstIdx == idx))
    635                    || ((devAddr->addrMode != AddrGroup) && (pBind->dstGroupMode == DSTGROUPMODE_ADDR)
    636                                          && (pBind->dstIdx == idx) && (pBind->dstEP == devEpInt)) )
   \                     ??bindNumBoundTo_3:
   \   000041   8E82         MOV     DPL,R6
   \   000043   8F83         MOV     DPH,R7
   \   000045   A3           INC     DPTR
   \   000046   A3           INC     DPTR
   \   000047   A3           INC     DPTR
   \   000048   A3           INC     DPTR
   \   000049   A3           INC     DPTR
   \   00004A   A3           INC     DPTR
   \   00004B   A3           INC     DPTR
   \   00004C   A3           INC     DPTR
   \   00004D   E0           MOVX    A,@DPTR
   \   00004E   6401         XRL     A,#0x1
   \   000050   7019         JNZ     ??bindNumBoundTo_4
   \   000052   8A82         MOV     DPL,R2
   \   000054   8B83         MOV     DPH,R3
   \   000056   A3           INC     DPTR
   \   000057   E0           MOVX    A,@DPTR
   \   000058   6401         XRL     A,#0x1
   \   00005A   700F         JNZ     ??bindNumBoundTo_4
   \   00005C   8A82         MOV     DPL,R2
   \   00005E   8B83         MOV     DPH,R3
   \   000060   A3           INC     DPTR
   \   000061   A3           INC     DPTR
   \   000062   E0           MOVX    A,@DPTR
   \   000063   6C           XRL     A,R4
   \   000064   7003         JNZ     ??bindNumBoundTo_5
   \   000066   A3           INC     DPTR
   \   000067   E0           MOVX    A,@DPTR
   \   000068   6D           XRL     A,R5
   \                     ??bindNumBoundTo_5:
   \   000069   6035         JZ      ??bindNumBoundTo_6
   \                     ??bindNumBoundTo_4:
   \   00006B   8E82         MOV     DPL,R6
   \   00006D   8F83         MOV     DPH,R7
   \   00006F   A3           INC     DPTR
   \   000070   A3           INC     DPTR
   \   000071   A3           INC     DPTR
   \   000072   A3           INC     DPTR
   \   000073   A3           INC     DPTR
   \   000074   A3           INC     DPTR
   \   000075   A3           INC     DPTR
   \   000076   A3           INC     DPTR
   \   000077   E0           MOVX    A,@DPTR
   \   000078   6401         XRL     A,#0x1
   \   00007A   6026         JZ      ??bindNumBoundTo_7
   \   00007C   8A82         MOV     DPL,R2
   \   00007E   8B83         MOV     DPH,R3
   \   000080   A3           INC     DPTR
   \   000081   E0           MOVX    A,@DPTR
   \   000082   701E         JNZ     ??bindNumBoundTo_7
   \   000084   8A82         MOV     DPL,R2
   \   000086   8B83         MOV     DPH,R3
   \   000088   A3           INC     DPTR
   \   000089   A3           INC     DPTR
   \   00008A   E0           MOVX    A,@DPTR
   \   00008B   6C           XRL     A,R4
   \   00008C   7003         JNZ     ??bindNumBoundTo_8
   \   00008E   A3           INC     DPTR
   \   00008F   E0           MOVX    A,@DPTR
   \   000090   6D           XRL     A,R5
   \                     ??bindNumBoundTo_8:
   \   000091   700F         JNZ     ??bindNumBoundTo_7
   \   000093   8A82         MOV     DPL,R2
   \   000095   8B83         MOV     DPH,R3
   \   000097   A3           INC     DPTR
   \   000098   A3           INC     DPTR
   \   000099   A3           INC     DPTR
   \   00009A   A3           INC     DPTR
   \   00009B   E0           MOVX    A,@DPTR
   \   00009C   65..         XRL     A,?V0 + 1
   \   00009E   7002         JNZ     ??bindNumBoundTo_7
    637                {
    638                  num++;
   \                     ??bindNumBoundTo_6:
   \   0000A0   05..         INC     ?V0 + 0
    639                }
    640              }
   \                     ??bindNumBoundTo_7:
   \   0000A2   E8           MOV     A,R0
   \   0000A3   2401         ADD     A,#0x1
   \   0000A5   F8           MOV     R0,A
   \   0000A6   E9           MOV     A,R1
   \   0000A7   3400         ADDC    A,#0x0
   \   0000A9   F9           MOV     R1,A
   \                     ??bindNumBoundTo_2:
   \   0000AA   90....       MOV     DPTR,#gNWK_MAX_BINDING_ENTRIES
   \   0000AD   E4           CLR     A
   \   0000AE   93           MOVC    A,@A+DPTR
   \   0000AF   FA           MOV     R2,A
   \   0000B0   7401         MOV     A,#0x1
   \   0000B2   93           MOVC    A,@A+DPTR
   \   0000B3   FB           MOV     R3,A
   \   0000B4   C3           CLR     C
   \   0000B5   E8           MOV     A,R0
   \   0000B6   9A           SUBB    A,R2
   \   0000B7   E9           MOV     A,R1
   \   0000B8   9B           SUBB    A,R3
   \   0000B9   5039         JNC     ??bindNumBoundTo_9
   \   0000BB   E8           MOV     A,R0
   \   0000BC   FA           MOV     R2,A
   \   0000BD   E9           MOV     A,R1
   \   0000BE   FB           MOV     R3,A
   \   0000BF   EA           MOV     A,R2
   \   0000C0   75F00E       MOV     B,#0xe
   \   0000C3   A4           MUL     AB
   \   0000C4   CA           XCH     A,R2
   \   0000C5   85F0..       MOV     ?V0 + 3,B
   \   0000C8   75F000       MOV     B,#0x0
   \   0000CB   A4           MUL     AB
   \   0000CC   25..         ADD     A,?V0 + 3
   \   0000CE   F5..         MOV     ?V0 + 3,A
   \   0000D0   75F00E       MOV     B,#0xe
   \   0000D3   EB           MOV     A,R3
   \   0000D4   A4           MUL     AB
   \   0000D5   25..         ADD     A,?V0 + 3
   \   0000D7   FB           MOV     R3,A
   \   0000D8   74..         MOV     A,#BindingTable & 0xff
   \   0000DA   2A           ADD     A,R2
   \   0000DB   FA           MOV     R2,A
   \   0000DC   74..         MOV     A,#(BindingTable >> 8) & 0xff
   \   0000DE   3B           ADDC    A,R3
   \   0000DF   FB           MOV     R3,A
   \   0000E0   E5..         MOV     A,?V0 + 2
   \   0000E2   7003         JNZ     $+5
   \   0000E4   02....       LJMP    ??bindNumBoundTo_3 & 0xFFFF
   \   0000E7   8A82         MOV     DPL,R2
   \   0000E9   8B83         MOV     DPH,R3
   \   0000EB   E0           MOVX    A,@DPTR
   \   0000EC   65..         XRL     A,?V0 + 1
   \   0000EE   70B2         JNZ     ??bindNumBoundTo_7
   \   0000F0   05..         INC     ?V0 + 0
   \   0000F2   80AE         SJMP    ??bindNumBoundTo_7
    641            }
    642          
    643            return num;
   \                     ??bindNumBoundTo_9:
   \   0000F4   A9..         MOV     R1,?V0 + 0
   \   0000F6   7F06         MOV     R7,#0x6
   \   0000F8   02....       LJMP    ?BANKED_LEAVE_XDATA
    644          }
    645          
    646          /*********************************************************************
    647           * @fn          bindNumReflections
    648           *
    649           * @brief       Counts the number of reflections needed for a
    650           *              endpoint and cluster ID combo.
    651           *
    652           * @param       ep - source endpoint
    653           * @param       clusterID - matching clusterID
    654           *
    655           * @return      number of reflections needed.
    656           */

   \                                 In  segment BANKED_CODE, align 1, keep-with-next
    657          uint16 bindNumReflections( uint8 ep, uint16 clusterID )
   \                     bindNumReflections:
    658          {
   \   000000   74F3         MOV     A,#-0xd
   \   000002   12....       LCALL   ?BANKED_ENTER_XDATA
   \   000005                ; Saved register size: 13
   \   000005                ; Auto size: 0
   \   000005   89..         MOV     ?V0 + 4,R1
   \   000007   8A..         MOV     ?V0 + 2,R2
   \   000009   8B..         MOV     ?V0 + 3,R3
    659            uint16 x;
    660            BindingEntry_t *pBind;
    661            uint16 cnt = 0;
   \   00000B   75..00       MOV     ?V0 + 0,#0x0
   \   00000E   75..00       MOV     ?V0 + 1,#0x0
    662            uint8 bindEP;
    663          
    664            for ( x = 0; x < gNWK_MAX_BINDING_ENTRIES; x++ )
   \   000011   7E00         MOV     R6,#0x0
   \   000013   7F00         MOV     R7,#0x0
   \   000015   804C         SJMP    ??bindNumReflections_0
    665            {
    666              pBind = &BindingTable[x];
   \                     ??bindNumReflections_1:
   \   000017   EE           MOV     A,R6
   \   000018   F8           MOV     R0,A
   \   000019   EF           MOV     A,R7
   \   00001A   F9           MOV     R1,A
   \   00001B   E8           MOV     A,R0
   \   00001C   75F00E       MOV     B,#0xe
   \   00001F   A4           MUL     AB
   \   000020   C8           XCH     A,R0
   \   000021   AAF0         MOV     R2,B
   \   000023   75F000       MOV     B,#0x0
   \   000026   A4           MUL     AB
   \   000027   2A           ADD     A,R2
   \   000028   FA           MOV     R2,A
   \   000029   75F00E       MOV     B,#0xe
   \   00002C   E9           MOV     A,R1
   \   00002D   A4           MUL     AB
   \   00002E   2A           ADD     A,R2
   \   00002F   F9           MOV     R1,A
   \   000030   74..         MOV     A,#BindingTable & 0xff
   \   000032   28           ADD     A,R0
   \   000033   F582         MOV     DPL,A
   \   000035   74..         MOV     A,#(BindingTable >> 8) & 0xff
   \   000037   39           ADDC    A,R1
   \   000038   F583         MOV     DPH,A
    667              bindEP = pBind->srcEP;
   \   00003A   E0           MOVX    A,@DPTR
   \   00003B   F8           MOV     R0,A
    668          
    669              if ( (bindEP == ep) && (bindIsClusterIDinList( pBind, clusterID )) )
   \   00003C   E5..         MOV     A,?V0 + 4
   \   00003E   68           XRL     A,R0
   \   00003F   701A         JNZ     ??bindNumReflections_2
   \   000041                ; Setup parameters for call to function bindIsClusterIDinList
   \   000041   AC..         MOV     R4,?V0 + 2
   \   000043   AD..         MOV     R5,?V0 + 3
   \   000045   AA82         MOV     R2,DPL
   \   000047   AB83         MOV     R3,DPH
   \   000049   12....       LCALL   ??bindIsClusterIDinList?relay
   \   00004C   E9           MOV     A,R1
   \   00004D   600C         JZ      ??bindNumReflections_2
    670              {
    671                cnt++;
   \   00004F   E5..         MOV     A,?V0 + 0
   \   000051   2401         ADD     A,#0x1
   \   000053   F5..         MOV     ?V0 + 0,A
   \   000055   E5..         MOV     A,?V0 + 1
   \   000057   3400         ADDC    A,#0x0
   \   000059   F5..         MOV     ?V0 + 1,A
    672              }
    673            }
   \                     ??bindNumReflections_2:
   \   00005B   EE           MOV     A,R6
   \   00005C   2401         ADD     A,#0x1
   \   00005E   FE           MOV     R6,A
   \   00005F   EF           MOV     A,R7
   \   000060   3400         ADDC    A,#0x0
   \   000062   FF           MOV     R7,A
   \                     ??bindNumReflections_0:
   \   000063   90....       MOV     DPTR,#gNWK_MAX_BINDING_ENTRIES
   \   000066   E4           CLR     A
   \   000067   93           MOVC    A,@A+DPTR
   \   000068   F8           MOV     R0,A
   \   000069   7401         MOV     A,#0x1
   \   00006B   93           MOVC    A,@A+DPTR
   \   00006C   F9           MOV     R1,A
   \   00006D   C3           CLR     C
   \   00006E   EE           MOV     A,R6
   \   00006F   98           SUBB    A,R0
   \   000070   EF           MOV     A,R7
   \   000071   99           SUBB    A,R1
   \   000072   40A3         JC      ??bindNumReflections_1
    674          
    675            return ( cnt );
   \   000074   AA..         MOV     R2,?V0 + 0
   \   000076   AB..         MOV     R3,?V0 + 1
   \   000078   7F05         MOV     R7,#0x5
   \   00007A   02....       LJMP    ?BANKED_LEAVE_XDATA
    676          }
    677          
    678          /*********************************************************************
    679           * @fn          bindFind
    680           *
    681           * @brief       Finds the binding entry for the source address, endpoint
    682           *              and cluster ID passed in as a parameter.
    683           *
    684           * @param       ep - source endpoint
    685           * @param       clusterID - matching clusterID
    686           * @param       skip - number of matches to skip before returning
    687           *
    688           * @return      pointer to the binding table entry, NULL if not found
    689           */

   \                                 In  segment BANKED_CODE, align 1, keep-with-next
    690          BindingEntry_t *bindFind( uint8 ep, uint16 clusterID, uint8 skipping )
   \                     bindFind:
    691          {
   \   000000   74F1         MOV     A,#-0xf
   \   000002   12....       LCALL   ?BANKED_ENTER_XDATA
   \   000005                ; Saved register size: 15
   \   000005                ; Auto size: 0
   \   000005   89..         MOV     ?V0 + 5,R1
   \   000007   8A..         MOV     ?V0 + 2,R2
   \   000009   8B..         MOV     ?V0 + 3,R3
   \   00000B   8C..         MOV     ?V0 + 6,R4
    692            BindingEntry_t *pBind;
    693            byte skipped = 0;
   \   00000D   75..00       MOV     ?V0 + 4,#0x0
    694            uint16 x;
    695          
    696            for ( x = 0; x < gNWK_MAX_BINDING_ENTRIES; x++ )
   \   000010   75..00       MOV     ?V0 + 0,#0x0
   \   000013   75..00       MOV     ?V0 + 1,#0x0
   \   000016   800E         SJMP    ??bindFind_0
    697            {
    698              pBind = &BindingTable[x];
    699          
    700              if ( ( pBind->srcEP == ep) && bindIsClusterIDinList( pBind, clusterID ))
    701              {
    702                if ( skipped < skipping )
    703                {
    704                  skipped++;
   \                     ??bindFind_1:
   \   000018   05..         INC     ?V0 + 4
    705                }
   \                     ??bindFind_2:
   \   00001A   E5..         MOV     A,?V0 + 0
   \   00001C   2401         ADD     A,#0x1
   \   00001E   F5..         MOV     ?V0 + 0,A
   \   000020   E5..         MOV     A,?V0 + 1
   \   000022   3400         ADDC    A,#0x0
   \   000024   F5..         MOV     ?V0 + 1,A
   \                     ??bindFind_0:
   \   000026   90....       MOV     DPTR,#gNWK_MAX_BINDING_ENTRIES
   \   000029   E4           CLR     A
   \   00002A   93           MOVC    A,@A+DPTR
   \   00002B   F8           MOV     R0,A
   \   00002C   7401         MOV     A,#0x1
   \   00002E   93           MOVC    A,@A+DPTR
   \   00002F   F9           MOV     R1,A
   \   000030   C3           CLR     C
   \   000031   E5..         MOV     A,?V0 + 0
   \   000033   98           SUBB    A,R0
   \   000034   E5..         MOV     A,?V0 + 1
   \   000036   99           SUBB    A,R1
   \   000037   5046         JNC     ??bindFind_3
   \   000039   A8..         MOV     R0,?V0 + 0
   \   00003B   A9..         MOV     R1,?V0 + 1
   \   00003D   E8           MOV     A,R0
   \   00003E   75F00E       MOV     B,#0xe
   \   000041   A4           MUL     AB
   \   000042   C8           XCH     A,R0
   \   000043   AAF0         MOV     R2,B
   \   000045   75F000       MOV     B,#0x0
   \   000048   A4           MUL     AB
   \   000049   2A           ADD     A,R2
   \   00004A   FA           MOV     R2,A
   \   00004B   75F00E       MOV     B,#0xe
   \   00004E   E5..         MOV     A,?V0 + 1
   \   000050   A4           MUL     AB
   \   000051   2A           ADD     A,R2
   \   000052   F9           MOV     R1,A
   \   000053   74..         MOV     A,#BindingTable & 0xff
   \   000055   28           ADD     A,R0
   \   000056   FE           MOV     R6,A
   \   000057   74..         MOV     A,#(BindingTable >> 8) & 0xff
   \   000059   39           ADDC    A,R1
   \   00005A   FF           MOV     R7,A
   \   00005B   8E82         MOV     DPL,R6
   \   00005D   8F83         MOV     DPH,R7
   \   00005F   E0           MOVX    A,@DPTR
   \   000060   65..         XRL     A,?V0 + 5
   \   000062   70B6         JNZ     ??bindFind_2
   \   000064                ; Setup parameters for call to function bindIsClusterIDinList
   \   000064   AC..         MOV     R4,?V0 + 2
   \   000066   AD..         MOV     R5,?V0 + 3
   \   000068   EE           MOV     A,R6
   \   000069   FA           MOV     R2,A
   \   00006A   EF           MOV     A,R7
   \   00006B   FB           MOV     R3,A
   \   00006C   12....       LCALL   ??bindIsClusterIDinList?relay
   \   00006F   E9           MOV     A,R1
   \   000070   60A8         JZ      ??bindFind_2
   \   000072   E5..         MOV     A,?V0 + 4
   \   000074   C3           CLR     C
   \   000075   95..         SUBB    A,?V0 + 6
   \   000077   409F         JC      ??bindFind_1
    706                else
    707                {
    708                  return ( pBind );
   \   000079   EE           MOV     A,R6
   \   00007A   FA           MOV     R2,A
   \   00007B   EF           MOV     A,R7
   \   00007C   FB           MOV     R3,A
   \   00007D   8004         SJMP    ??bindFind_4
    709                }
    710              }
    711            }
    712          
    713            return ( (BindingEntry_t *)NULL );
   \                     ??bindFind_3:
   \   00007F   7A00         MOV     R2,#0x0
   \   000081   7B00         MOV     R3,#0x0
   \                     ??bindFind_4:
   \   000083   7F07         MOV     R7,#0x7
   \   000085   02....       LJMP    ?BANKED_LEAVE_XDATA
    714          }
    715          
    716          /*********************************************************************
    717           * @fn          BindInitNV
    718           *
    719           * @brief       Initialize the Binding NV Item
    720           *
    721           * @param       none
    722           *
    723           * @return      ZSUCCESS if successful, NV_ITEM_UNINIT if item did not
    724           *              exist in NV, NV_OPER_FAILED if failure.
    725           */

   \                                 In  segment BANKED_CODE, align 1, keep-with-next
    726          byte BindInitNV( void )
   \                     BindInitNV:
    727          {
   \   000000   74F6         MOV     A,#-0xa
   \   000002   12....       LCALL   ?BANKED_ENTER_XDATA
   \   000005                ; Saved register size: 10
   \   000005                ; Auto size: 0
    728            byte ret;
    729          
    730            // Initialize the device list
    731            ret = osal_nv_item_init( ZCD_NV_BINDING_TABLE,
    732                            (uint16)(gBIND_REC_SIZE + NV_BIND_ITEM_SIZE), NULL );
   \   000005                ; Setup parameters for call to function osal_nv_item_init
   \   000005   E4           CLR     A
   \   000006   F5..         MOV     ?V0 + 0,A
   \   000008   F5..         MOV     ?V0 + 1,A
   \   00000A   78..         MOV     R0,#?V0 + 0
   \   00000C   12....       LCALL   ?PUSH_XSTACK_I_TWO
   \   00000F   90....       MOV     DPTR,#gBIND_REC_SIZE
   \   000012   C082         PUSH    DPL
   \   000014   C083         PUSH    DPH
   \   000016   90....       MOV     DPTR,#gBIND_REC_SIZE
   \   000019   E4           CLR     A
   \   00001A   93           MOVC    A,@A+DPTR
   \   00001B   F8           MOV     R0,A
   \   00001C   7401         MOV     A,#0x1
   \   00001E   93           MOVC    A,@A+DPTR
   \   00001F   F9           MOV     R1,A
   \   000020   90....       MOV     DPTR,#gNWK_MAX_BINDING_ENTRIES
   \   000023   E4           CLR     A
   \   000024   93           MOVC    A,@A+DPTR
   \   000025   F5..         MOV     ?V0 + 0,A
   \   000027   7401         MOV     A,#0x1
   \   000029   93           MOVC    A,@A+DPTR
   \   00002A   F5..         MOV     ?V0 + 1,A
   \   00002C   E8           MOV     A,R0
   \   00002D   85..F0       MOV     B,?V0 + 0
   \   000030   A4           MUL     AB
   \   000031   C8           XCH     A,R0
   \   000032   AAF0         MOV     R2,B
   \   000034   85..F0       MOV     B,?V0 + 1
   \   000037   A4           MUL     AB
   \   000038   2A           ADD     A,R2
   \   000039   FA           MOV     R2,A
   \   00003A   85..F0       MOV     B,?V0 + 0
   \   00003D   E9           MOV     A,R1
   \   00003E   A4           MUL     AB
   \   00003F   2A           ADD     A,R2
   \   000040   F9           MOV     R1,A
   \   000041   D083         POP     DPH
   \   000043   D082         POP     DPL
   \   000045   E4           CLR     A
   \   000046   93           MOVC    A,@A+DPTR
   \   000047   28           ADD     A,R0
   \   000048   FC           MOV     R4,A
   \   000049   A3           INC     DPTR
   \   00004A   E4           CLR     A
   \   00004B   93           MOVC    A,@A+DPTR
   \   00004C   39           ADDC    A,R1
   \   00004D   FD           MOV     R5,A
   \   00004E   7A41         MOV     R2,#0x41
   \   000050   7B00         MOV     R3,#0x0
   \   000052   12....       LCALL   ??osal_nv_item_init?relay
   \   000055   7402         MOV     A,#0x2
   \   000057   12....       LCALL   ?DEALLOC_XSTACK8
   \   00005A   E9           MOV     A,R1
   \   00005B   FE           MOV     R6,A
    733          
    734            if ( ret != ZSUCCESS )
   \   00005C   EE           MOV     A,R6
   \   00005D   6003         JZ      ??BindInitNV_0
    735            {
    736              BindSetDefaultNV();
   \   00005F                ; Setup parameters for call to function BindSetDefaultNV
   \   00005F   12....       LCALL   ??BindSetDefaultNV?relay
    737            }
    738          
    739            return ( ret );
   \                     ??BindInitNV_0:
   \   000062   EE           MOV     A,R6
   \   000063   F9           MOV     R1,A
   \   000064   7F02         MOV     R7,#0x2
   \   000066   02....       LJMP    ?BANKED_LEAVE_XDATA
    740          }
    741          
    742          /*********************************************************************
    743           * @fn          BindSetDefaultNV
    744           *
    745           * @brief       Write the defaults to NV
    746           *
    747           * @param       none
    748           *
    749           * @return      none
    750           */

   \                                 In  segment BANKED_CODE, align 1, keep-with-next
    751          void BindSetDefaultNV( void )
   \                     BindSetDefaultNV:
    752          {
   \   000000   74F6         MOV     A,#-0xa
   \   000002   12....       LCALL   ?BANKED_ENTER_XDATA
   \   000005                ; Saved register size: 10
   \   000005                ; Auto size: 2
   \   000005   74FE         MOV     A,#-0x2
   \   000007   12....       LCALL   ?ALLOC_XSTACK8
    753            nvBindingHdr_t hdr;
    754          
    755            // Initialize the header
    756            hdr.numRecs = 0;
   \   00000A   85..82       MOV     DPL,?XSP + 0
   \   00000D   85..83       MOV     DPH,?XSP + 1
   \   000010   7400         MOV     A,#0x0
   \   000012   F0           MOVX    @DPTR,A
   \   000013   A3           INC     DPTR
   \   000014   7400         MOV     A,#0x0
   \   000016   F0           MOVX    @DPTR,A
    757          
    758            // Save off the header
    759            osal_nv_write( ZCD_NV_BINDING_TABLE, 0, sizeof( nvBindingHdr_t ), &hdr );
   \   000017                ; Setup parameters for call to function osal_nv_write
   \   000017   85..82       MOV     DPL,?XSP + 0
   \   00001A   85..83       MOV     DPH,?XSP + 1
   \   00001D   8582..       MOV     ?V0 + 0,DPL
   \   000020   8583..       MOV     ?V0 + 1,DPH
   \   000023   78..         MOV     R0,#?V0 + 0
   \   000025   12....       LCALL   ?PUSH_XSTACK_I_TWO
   \   000028   75..02       MOV     ?V0 + 0,#0x2
   \   00002B   75..00       MOV     ?V0 + 1,#0x0
   \   00002E   78..         MOV     R0,#?V0 + 0
   \   000030   12....       LCALL   ?PUSH_XSTACK_I_TWO
   \   000033   7C00         MOV     R4,#0x0
   \   000035   7D00         MOV     R5,#0x0
   \   000037   7A41         MOV     R2,#0x41
   \   000039   7B00         MOV     R3,#0x0
   \   00003B   12....       LCALL   ??osal_nv_write?relay
   \   00003E   7404         MOV     A,#0x4
   \   000040   12....       LCALL   ?DEALLOC_XSTACK8
   \   000043   E9           MOV     A,R1
    760          }
   \   000044   7402         MOV     A,#0x2
   \   000046   12....       LCALL   ?DEALLOC_XSTACK8
   \   000049   7F02         MOV     R7,#0x2
   \   00004B   02....       LJMP    ?BANKED_LEAVE_XDATA
    761          
    762          /*********************************************************************
    763           * @fn          BindRestoreFromNV
    764           *
    765           * @brief       Restore the binding table from NV
    766           *
    767           * @param       none
    768           *
    769           * @return      Number of entries restored
    770           */

   \                                 In  segment BANKED_CODE, align 1, keep-with-next
    771          uint16 BindRestoreFromNV( void )
   \                     BindRestoreFromNV:
    772          {
   \   000000   74F4         MOV     A,#-0xc
   \   000002   12....       LCALL   ?BANKED_ENTER_XDATA
   \   000005                ; Saved register size: 12
   \   000005                ; Auto size: 2
   \   000005   74FE         MOV     A,#-0x2
   \   000007   12....       LCALL   ?ALLOC_XSTACK8
    773            nvBindingHdr_t hdr;
    774            uint16 numAdded = 0;
   \   00000A   7E00         MOV     R6,#0x0
   \   00000C   7F00         MOV     R7,#0x0
    775          
    776            if ( osal_nv_read( ZCD_NV_BINDING_TABLE, 0, sizeof(nvBindingHdr_t), &hdr ) == ZSuccess )
   \   00000E                ; Setup parameters for call to function osal_nv_read
   \   00000E   85..82       MOV     DPL,?XSP + 0
   \   000011   85..83       MOV     DPH,?XSP + 1
   \   000014   8582..       MOV     ?V0 + 0,DPL
   \   000017   8583..       MOV     ?V0 + 1,DPH
   \   00001A   78..         MOV     R0,#?V0 + 0
   \   00001C   12....       LCALL   ?PUSH_XSTACK_I_TWO
   \   00001F   75..02       MOV     ?V0 + 0,#0x2
   \   000022   75..00       MOV     ?V0 + 1,#0x0
   \   000025   78..         MOV     R0,#?V0 + 0
   \   000027   12....       LCALL   ?PUSH_XSTACK_I_TWO
   \   00002A   7C00         MOV     R4,#0x0
   \   00002C   7D00         MOV     R5,#0x0
   \   00002E   7A41         MOV     R2,#0x41
   \   000030   7B00         MOV     R3,#0x0
   \   000032   12....       LCALL   ??osal_nv_read?relay
   \   000035   7404         MOV     A,#0x4
   \   000037   12....       LCALL   ?DEALLOC_XSTACK8
   \   00003A   E9           MOV     A,R1
   \   00003B   7075         JNZ     ??BindRestoreFromNV_0
    777            {
    778              if (hdr.numRecs > 0)
   \   00003D   85..82       MOV     DPL,?XSP + 0
   \   000040   85..83       MOV     DPH,?XSP + 1
   \   000043   E0           MOVX    A,@DPTR
   \   000044   F8           MOV     R0,A
   \   000045   A3           INC     DPTR
   \   000046   E0           MOVX    A,@DPTR
   \   000047   F9           MOV     R1,A
   \   000048   E8           MOV     A,R0
   \   000049   49           ORL     A,R1
   \   00004A   6066         JZ      ??BindRestoreFromNV_0
    779              {
    780                // Read the whole table at once
    781                if ( osal_nv_read( ZCD_NV_BINDING_TABLE,
    782                                   (uint16)(sizeof(nvBindingHdr_t)),
    783                                   (NV_BIND_REC_SIZE * gNWK_MAX_BINDING_ENTRIES), BindingTable ) == ZSUCCESS )
   \   00004C                ; Setup parameters for call to function osal_nv_read
   \   00004C   75....       MOV     ?V0 + 0,#BindingTable & 0xff
   \   00004F   75....       MOV     ?V0 + 1,#(BindingTable >> 8) & 0xff
   \   000052   78..         MOV     R0,#?V0 + 0
   \   000054   12....       LCALL   ?PUSH_XSTACK_I_TWO
   \   000057   90....       MOV     DPTR,#gBIND_REC_SIZE
   \   00005A   E4           CLR     A
   \   00005B   93           MOVC    A,@A+DPTR
   \   00005C   F5..         MOV     ?V0 + 2,A
   \   00005E   7401         MOV     A,#0x1
   \   000060   93           MOVC    A,@A+DPTR
   \   000061   F5..         MOV     ?V0 + 3,A
   \   000063   90....       MOV     DPTR,#gNWK_MAX_BINDING_ENTRIES
   \   000066   E4           CLR     A
   \   000067   93           MOVC    A,@A+DPTR
   \   000068   F5..         MOV     ?V0 + 0,A
   \   00006A   7401         MOV     A,#0x1
   \   00006C   93           MOVC    A,@A+DPTR
   \   00006D   F5..         MOV     ?V0 + 1,A
   \   00006F   E5..         MOV     A,?V0 + 2
   \   000071   85..F0       MOV     B,?V0 + 0
   \   000074   A4           MUL     AB
   \   000075   C5..         XCH     A,?V0 + 2
   \   000077   A8F0         MOV     R0,B
   \   000079   85..F0       MOV     B,?V0 + 1
   \   00007C   A4           MUL     AB
   \   00007D   28           ADD     A,R0
   \   00007E   F8           MOV     R0,A
   \   00007F   85..F0       MOV     B,?V0 + 0
   \   000082   E5..         MOV     A,?V0 + 3
   \   000084   A4           MUL     AB
   \   000085   28           ADD     A,R0
   \   000086   F5..         MOV     ?V0 + 3,A
   \   000088   78..         MOV     R0,#?V0 + 2
   \   00008A   12....       LCALL   ?PUSH_XSTACK_I_TWO
   \   00008D   7C02         MOV     R4,#0x2
   \   00008F   7D00         MOV     R5,#0x0
   \   000091   7A41         MOV     R2,#0x41
   \   000093   7B00         MOV     R3,#0x0
   \   000095   12....       LCALL   ??osal_nv_read?relay
   \   000098   7404         MOV     A,#0x4
   \   00009A   12....       LCALL   ?DEALLOC_XSTACK8
   \   00009D   E9           MOV     A,R1
   \   00009E   7012         JNZ     ??BindRestoreFromNV_0
    784                {
    785                  numAdded = gNWK_MAX_BINDING_ENTRIES;
   \   0000A0   90....       MOV     DPTR,#gNWK_MAX_BINDING_ENTRIES
   \   0000A3   E4           CLR     A
   \   0000A4   93           MOVC    A,@A+DPTR
   \   0000A5   C0E0         PUSH    A
   \   0000A7   7401         MOV     A,#0x1
   \   0000A9   93           MOVC    A,@A+DPTR
   \   0000AA   F583         MOV     DPH,A
   \   0000AC   D082         POP     DPL
   \   0000AE   AE82         MOV     R6,DPL
   \   0000B0   AF83         MOV     R7,DPH
    786                }
    787              }
    788            }
    789            return ( numAdded );
   \                     ??BindRestoreFromNV_0:
   \   0000B2   EE           MOV     A,R6
   \   0000B3   FA           MOV     R2,A
   \   0000B4   EF           MOV     A,R7
   \   0000B5   FB           MOV     R3,A
   \   0000B6   7402         MOV     A,#0x2
   \   0000B8   12....       LCALL   ?DEALLOC_XSTACK8
   \   0000BB   7F04         MOV     R7,#0x4
   \   0000BD   02....       LJMP    ?BANKED_LEAVE_XDATA
    790          }
    791          
    792          /*********************************************************************
    793           * @fn          BindWriteNV
    794           *
    795           * @brief       Save the Binding Table in NV
    796           *
    797           * @param       none
    798           *
    799           * @return      none
    800           */

   \                                 In  segment BANKED_CODE, align 1, keep-with-next
    801          void BindWriteNV( void )
   \                     BindWriteNV:
    802          {
   \   000000   74F1         MOV     A,#-0xf
   \   000002   12....       LCALL   ?BANKED_ENTER_XDATA
   \   000005                ; Saved register size: 15
   \   000005                ; Auto size: 16
   \   000005   74F0         MOV     A,#-0x10
   \   000007   12....       LCALL   ?ALLOC_XSTACK8
    803            BindingEntry_t *pBind;
    804            BindingEntry_t bind;
    805            nvBindingHdr_t hdr;
    806            uint16 x;
    807          
    808            hdr.numRecs = 0;
   \   00000A   85..82       MOV     DPL,?XSP + 0
   \   00000D   85..83       MOV     DPH,?XSP + 1
   \   000010   7400         MOV     A,#0x0
   \   000012   F0           MOVX    @DPTR,A
   \   000013   A3           INC     DPTR
   \   000014   7400         MOV     A,#0x0
   \   000016   F0           MOVX    @DPTR,A
    809          
    810            for ( x = 0; x < gNWK_MAX_BINDING_ENTRIES; x++ )
   \   000017   7E00         MOV     R6,#0x0
   \   000019   7F00         MOV     R7,#0x0
   \   00001B   02....       LJMP    ??BindWriteNV_0 & 0xFFFF
    811            {
    812              pBind = &BindingTable[x];
   \                     ??BindWriteNV_1:
   \   00001E   EE           MOV     A,R6
   \   00001F   F8           MOV     R0,A
   \   000020   EF           MOV     A,R7
   \   000021   F9           MOV     R1,A
   \   000022   E8           MOV     A,R0
   \   000023   75F00E       MOV     B,#0xe
   \   000026   A4           MUL     AB
   \   000027   C8           XCH     A,R0
   \   000028   AAF0         MOV     R2,B
   \   00002A   75F000       MOV     B,#0x0
   \   00002D   A4           MUL     AB
   \   00002E   2A           ADD     A,R2
   \   00002F   FA           MOV     R2,A
   \   000030   75F00E       MOV     B,#0xe
   \   000033   E9           MOV     A,R1
   \   000034   A4           MUL     AB
   \   000035   2A           ADD     A,R2
   \   000036   F9           MOV     R1,A
   \   000037   74..         MOV     A,#BindingTable & 0xff
   \   000039   28           ADD     A,R0
   \   00003A   F5..         MOV     ?V0 + 0,A
   \   00003C   74..         MOV     A,#(BindingTable >> 8) & 0xff
   \   00003E   39           ADDC    A,R1
   \   00003F   F5..         MOV     ?V0 + 1,A
    813          
    814              osal_memcpy( &bind, pBind, gBIND_REC_SIZE );
   \   000041                ; Setup parameters for call to function osal_memcpy
   \   000041   85....       MOV     ?V0 + 4,?V0 + 0
   \   000044   85....       MOV     ?V0 + 5,?V0 + 1
   \   000047   75..00       MOV     ?V0 + 6,#0x0
   \   00004A   78..         MOV     R0,#?V0 + 4
   \   00004C   12....       LCALL   ?PUSH_XSTACK_I_THREE
   \   00004F   90....       MOV     DPTR,#gBIND_REC_SIZE
   \   000052   E4           CLR     A
   \   000053   93           MOVC    A,@A+DPTR
   \   000054   FC           MOV     R4,A
   \   000055   7401         MOV     A,#0x1
   \   000057   93           MOVC    A,@A+DPTR
   \   000058   FD           MOV     R5,A
   \   000059   7405         MOV     A,#0x5
   \   00005B   12....       LCALL   ?XSTACK_DISP0_8
   \   00005E   AA82         MOV     R2,DPL
   \   000060   AB83         MOV     R3,DPH
   \   000062   12....       LCALL   ??osal_memcpy?relay
   \   000065   7403         MOV     A,#0x3
   \   000067   12....       LCALL   ?DEALLOC_XSTACK8
    815          
    816              // Save the record to NV
    817              osal_nv_write( ZCD_NV_BINDING_TABLE,
    818                             (uint16)((sizeof(nvBindingHdr_t)) + (x * NV_BIND_REC_SIZE)),
    819                             NV_BIND_REC_SIZE, &bind );
   \   00006A                ; Setup parameters for call to function osal_nv_write
   \   00006A   7402         MOV     A,#0x2
   \   00006C   12....       LCALL   ?XSTACK_DISP0_8
   \   00006F   8582..       MOV     ?V0 + 2,DPL
   \   000072   8583..       MOV     ?V0 + 3,DPH
   \   000075   78..         MOV     R0,#?V0 + 2
   \   000077   12....       LCALL   ?PUSH_XSTACK_I_TWO
   \   00007A   90....       MOV     DPTR,#gBIND_REC_SIZE
   \   00007D   12....       LCALL   ?PUSH_XSTACK8_C_TWO
   \   000080   EE           MOV     A,R6
   \   000081   F8           MOV     R0,A
   \   000082   EF           MOV     A,R7
   \   000083   F9           MOV     R1,A
   \   000084   90....       MOV     DPTR,#gBIND_REC_SIZE
   \   000087   E4           CLR     A
   \   000088   93           MOVC    A,@A+DPTR
   \   000089   F5..         MOV     ?V0 + 2,A
   \   00008B   7401         MOV     A,#0x1
   \   00008D   93           MOVC    A,@A+DPTR
   \   00008E   F5..         MOV     ?V0 + 3,A
   \   000090   E8           MOV     A,R0
   \   000091   85..F0       MOV     B,?V0 + 2
   \   000094   A4           MUL     AB
   \   000095   C8           XCH     A,R0
   \   000096   AAF0         MOV     R2,B
   \   000098   85..F0       MOV     B,?V0 + 3
   \   00009B   A4           MUL     AB
   \   00009C   2A           ADD     A,R2
   \   00009D   FA           MOV     R2,A
   \   00009E   85..F0       MOV     B,?V0 + 2
   \   0000A1   E9           MOV     A,R1
   \   0000A2   A4           MUL     AB
   \   0000A3   2A           ADD     A,R2
   \   0000A4   F9           MOV     R1,A
   \   0000A5   E8           MOV     A,R0
   \   0000A6   2402         ADD     A,#0x2
   \   0000A8   FC           MOV     R4,A
   \   0000A9   E9           MOV     A,R1
   \   0000AA   3400         ADDC    A,#0x0
   \   0000AC   FD           MOV     R5,A
   \   0000AD   7A41         MOV     R2,#0x41
   \   0000AF   7B00         MOV     R3,#0x0
   \   0000B1   12....       LCALL   ??osal_nv_write?relay
   \   0000B4   7404         MOV     A,#0x4
   \   0000B6   12....       LCALL   ?DEALLOC_XSTACK8
   \   0000B9   E9           MOV     A,R1
    820          
    821              if ( pBind->srcEP != NV_BIND_EMPTY )
   \   0000BA   85..82       MOV     DPL,?V0 + 0
   \   0000BD   85..83       MOV     DPH,?V0 + 1
   \   0000C0   E0           MOVX    A,@DPTR
   \   0000C1   64FF         XRL     A,#0xff
   \   0000C3   600F         JZ      ??BindWriteNV_2
    822              {
    823                hdr.numRecs++;
   \   0000C5   85..82       MOV     DPL,?XSP + 0
   \   0000C8   85..83       MOV     DPH,?XSP + 1
   \   0000CB   E0           MOVX    A,@DPTR
   \   0000CC   2401         ADD     A,#0x1
   \   0000CE   F0           MOVX    @DPTR,A
   \   0000CF   A3           INC     DPTR
   \   0000D0   E0           MOVX    A,@DPTR
   \   0000D1   3400         ADDC    A,#0x0
   \   0000D3   F0           MOVX    @DPTR,A
    824              }
    825            }
   \                     ??BindWriteNV_2:
   \   0000D4   EE           MOV     A,R6
   \   0000D5   2401         ADD     A,#0x1
   \   0000D7   FE           MOV     R6,A
   \   0000D8   EF           MOV     A,R7
   \   0000D9   3400         ADDC    A,#0x0
   \   0000DB   FF           MOV     R7,A
   \                     ??BindWriteNV_0:
   \   0000DC   90....       MOV     DPTR,#gNWK_MAX_BINDING_ENTRIES
   \   0000DF   E4           CLR     A
   \   0000E0   93           MOVC    A,@A+DPTR
   \   0000E1   F8           MOV     R0,A
   \   0000E2   7401         MOV     A,#0x1
   \   0000E4   93           MOVC    A,@A+DPTR
   \   0000E5   F9           MOV     R1,A
   \   0000E6   C3           CLR     C
   \   0000E7   EE           MOV     A,R6
   \   0000E8   98           SUBB    A,R0
   \   0000E9   EF           MOV     A,R7
   \   0000EA   99           SUBB    A,R1
   \   0000EB   5003         JNC     $+5
   \   0000ED   02....       LJMP    ??BindWriteNV_1 & 0xFFFF
    826          
    827            // Save off the header
    828            osal_nv_write( ZCD_NV_BINDING_TABLE, 0, sizeof(nvBindingHdr_t), &hdr );
   \   0000F0                ; Setup parameters for call to function osal_nv_write
   \   0000F0   85..82       MOV     DPL,?XSP + 0
   \   0000F3   85..83       MOV     DPH,?XSP + 1
   \   0000F6   8582..       MOV     ?V0 + 0,DPL
   \   0000F9   8583..       MOV     ?V0 + 1,DPH
   \   0000FC   78..         MOV     R0,#?V0 + 0
   \   0000FE   12....       LCALL   ?PUSH_XSTACK_I_TWO
   \   000101   75..02       MOV     ?V0 + 0,#0x2
   \   000104   75..00       MOV     ?V0 + 1,#0x0
   \   000107   78..         MOV     R0,#?V0 + 0
   \   000109   12....       LCALL   ?PUSH_XSTACK_I_TWO
   \   00010C   7C00         MOV     R4,#0x0
   \   00010E   7D00         MOV     R5,#0x0
   \   000110   7A41         MOV     R2,#0x41
   \   000112   7B00         MOV     R3,#0x0
   \   000114   12....       LCALL   ??osal_nv_write?relay
   \   000117   7404         MOV     A,#0x4
   \   000119   12....       LCALL   ?DEALLOC_XSTACK8
   \   00011C   E9           MOV     A,R1
    829          }
   \   00011D   7410         MOV     A,#0x10
   \   00011F   12....       LCALL   ?DEALLOC_XSTACK8
   \   000122   7F07         MOV     R7,#0x7
   \   000124   02....       LJMP    ?BANKED_LEAVE_XDATA
    830          
    831          /*********************************************************************
    832           * @fn          bindUpdateAddr
    833           *
    834           * @brief       Update the network address in the binding table.
    835           *
    836           * @param       oldAddr - old network address
    837           * @param       newAddr - new network address
    838           *
    839           * @return      none
    840           */

   \                                 In  segment BANKED_CODE, align 1, keep-with-next
    841          void bindUpdateAddr( uint16 oldAddr, uint16 newAddr )
   \                     bindUpdateAddr:
    842          {
   \   000000   74F4         MOV     A,#-0xc
   \   000002   12....       LCALL   ?BANKED_ENTER_XDATA
   \   000005                ; Saved register size: 12
   \   000005                ; Auto size: 9
   \   000005   74F7         MOV     A,#-0x9
   \   000007   12....       LCALL   ?ALLOC_XSTACK8
   \   00000A   EC           MOV     A,R4
   \   00000B   FE           MOV     R6,A
   \   00000C   ED           MOV     A,R5
   \   00000D   FF           MOV     R7,A
    843            uint16 oldIdx;
    844            uint16 newIdx;
    845            zAddrType_t addr;
    846            uint16 x;
    847            BindingEntry_t *pBind;
    848          
    849            addr.addrMode = Addr16Bit;
   \   00000E   7408         MOV     A,#0x8
   \   000010   12....       LCALL   ?XSTACK_DISP0_8
   \   000013   7402         MOV     A,#0x2
   \   000015   F0           MOVX    @DPTR,A
    850            addr.addr.shortAddr = oldAddr;
   \   000016   85..82       MOV     DPL,?XSP + 0
   \   000019   85..83       MOV     DPH,?XSP + 1
   \   00001C   EA           MOV     A,R2
   \   00001D   F0           MOVX    @DPTR,A
   \   00001E   A3           INC     DPTR
   \   00001F   EB           MOV     A,R3
   \   000020   F0           MOVX    @DPTR,A
    851            oldIdx = bindingAddrMgsHelperFind( &addr );
   \   000021                ; Setup parameters for call to function bindingAddrMgsHelperFind
   \   000021   85..82       MOV     DPL,?XSP + 0
   \   000024   85..83       MOV     DPH,?XSP + 1
   \   000027   AA82         MOV     R2,DPL
   \   000029   AB83         MOV     R3,DPH
   \   00002B   12....       LCALL   ??bindingAddrMgsHelperFind?relay
   \   00002E   8A..         MOV     ?V0 + 2,R2
   \   000030   8B..         MOV     ?V0 + 3,R3
   \   000032   85....       MOV     ?V0 + 0,?V0 + 2
   \   000035   85....       MOV     ?V0 + 1,?V0 + 3
    852            addr.addr.shortAddr = newAddr;
   \   000038   85..82       MOV     DPL,?XSP + 0
   \   00003B   85..83       MOV     DPH,?XSP + 1
   \   00003E   EE           MOV     A,R6
   \   00003F   F0           MOVX    @DPTR,A
   \   000040   A3           INC     DPTR
   \   000041   EF           MOV     A,R7
   \   000042   F0           MOVX    @DPTR,A
    853            newIdx = bindingAddrMgsHelperFind( &addr );
   \   000043                ; Setup parameters for call to function bindingAddrMgsHelperFind
   \   000043   85..82       MOV     DPL,?XSP + 0
   \   000046   85..83       MOV     DPH,?XSP + 1
   \   000049   AA82         MOV     R2,DPL
   \   00004B   AB83         MOV     R3,DPH
   \   00004D   12....       LCALL   ??bindingAddrMgsHelperFind?relay
   \   000050   8A..         MOV     ?V0 + 2,R2
   \   000052   8B..         MOV     ?V0 + 3,R3
   \   000054   AE..         MOV     R6,?V0 + 2
   \   000056   AF..         MOV     R7,?V0 + 3
    854          
    855            for ( x = 0; x < gNWK_MAX_BINDING_ENTRIES; x++ )
   \   000058   7800         MOV     R0,#0x0
   \   00005A   7900         MOV     R1,#0x0
   \   00005C   8047         SJMP    ??bindUpdateAddr_0
    856            {
    857              pBind = &BindingTable[x];
   \                     ??bindUpdateAddr_1:
   \   00005E   E8           MOV     A,R0
   \   00005F   FA           MOV     R2,A
   \   000060   E9           MOV     A,R1
   \   000061   FB           MOV     R3,A
   \   000062   EA           MOV     A,R2
   \   000063   75F00E       MOV     B,#0xe
   \   000066   A4           MUL     AB
   \   000067   CA           XCH     A,R2
   \   000068   ACF0         MOV     R4,B
   \   00006A   75F000       MOV     B,#0x0
   \   00006D   A4           MUL     AB
   \   00006E   2C           ADD     A,R4
   \   00006F   FC           MOV     R4,A
   \   000070   75F00E       MOV     B,#0xe
   \   000073   EB           MOV     A,R3
   \   000074   A4           MUL     AB
   \   000075   2C           ADD     A,R4
   \   000076   FB           MOV     R3,A
   \   000077   74..         MOV     A,#BindingTable & 0xff
   \   000079   2A           ADD     A,R2
   \   00007A   FA           MOV     R2,A
   \   00007B   74..         MOV     A,#(BindingTable >> 8) & 0xff
   \   00007D   3B           ADDC    A,R3
   \   00007E   FB           MOV     R3,A
    858          
    859              if ( pBind->dstIdx == oldIdx )
   \   00007F   8A82         MOV     DPL,R2
   \   000081   8B83         MOV     DPH,R3
   \   000083   A3           INC     DPTR
   \   000084   A3           INC     DPTR
   \   000085   E0           MOVX    A,@DPTR
   \   000086   65..         XRL     A,?V0 + 0
   \   000088   7004         JNZ     ??bindUpdateAddr_2
   \   00008A   A3           INC     DPTR
   \   00008B   E0           MOVX    A,@DPTR
   \   00008C   65..         XRL     A,?V0 + 1
   \                     ??bindUpdateAddr_2:
   \   00008E   700D         JNZ     ??bindUpdateAddr_3
    860              {
    861                pBind->dstIdx = newIdx;
   \   000090   8A82         MOV     DPL,R2
   \   000092   8B83         MOV     DPH,R3
   \   000094   A3           INC     DPTR
   \   000095   A3           INC     DPTR
   \   000096   E5..         MOV     A,?V0 + 2
   \   000098   F0           MOVX    @DPTR,A
   \   000099   A3           INC     DPTR
   \   00009A   E5..         MOV     A,?V0 + 3
   \   00009C   F0           MOVX    @DPTR,A
    862              }
    863            }
   \                     ??bindUpdateAddr_3:
   \   00009D   E8           MOV     A,R0
   \   00009E   2401         ADD     A,#0x1
   \   0000A0   F8           MOV     R0,A
   \   0000A1   E9           MOV     A,R1
   \   0000A2   3400         ADDC    A,#0x0
   \   0000A4   F9           MOV     R1,A
   \                     ??bindUpdateAddr_0:
   \   0000A5   90....       MOV     DPTR,#gNWK_MAX_BINDING_ENTRIES
   \   0000A8   E4           CLR     A
   \   0000A9   93           MOVC    A,@A+DPTR
   \   0000AA   FA           MOV     R2,A
   \   0000AB   7401         MOV     A,#0x1
   \   0000AD   93           MOVC    A,@A+DPTR
   \   0000AE   FB           MOV     R3,A
   \   0000AF   C3           CLR     C
   \   0000B0   E8           MOV     A,R0
   \   0000B1   9A           SUBB    A,R2
   \   0000B2   E9           MOV     A,R1
   \   0000B3   9B           SUBB    A,R3
   \   0000B4   40A8         JC      ??bindUpdateAddr_1
    864          }
   \   0000B6   7409         MOV     A,#0x9
   \   0000B8   12....       LCALL   ?DEALLOC_XSTACK8
   \   0000BB   7F04         MOV     R7,#0x4
   \   0000BD   02....       LJMP    ?BANKED_LEAVE_XDATA
    865          
    866          /*********************************************************************
    867           * @fn      bindingAddrMgsHelperFind
    868           *
    869           * @brief   Turns an zAddrType_t to an Addr Manager index
    870           *
    871           * @param   addr - zAddrType_t
    872           *
    873           * @return  INVALID_NODE_ADDR if not found, otherwise an index
    874           */

   \                                 In  segment BANKED_CODE, align 1, keep-with-next
    875          uint16 bindingAddrMgsHelperFind( zAddrType_t *addr )
   \                     bindingAddrMgsHelperFind:
    876          {
   \   000000   C082         PUSH    DPL
   \   000002   C083         PUSH    DPH
   \   000004                ; Saved register size: 2
   \   000004                ; Auto size: 13
   \   000004   74F3         MOV     A,#-0xd
   \   000006   12....       LCALL   ?ALLOC_XSTACK8
    877            AddrMgrEntry_t entry;
    878          
    879            // Resolve addresses with the address manager
    880            entry.user = ADDRMGR_USER_BINDING;
   \   000009   85..82       MOV     DPL,?XSP + 0
   \   00000C   85..83       MOV     DPH,?XSP + 1
   \   00000F   7404         MOV     A,#0x4
   \   000011   F0           MOVX    @DPTR,A
    881            if ( addr->addrMode == Addr16Bit )
   \   000012   8A82         MOV     DPL,R2
   \   000014   8B83         MOV     DPH,R3
   \   000016   A3           INC     DPTR
   \   000017   A3           INC     DPTR
   \   000018   A3           INC     DPTR
   \   000019   A3           INC     DPTR
   \   00001A   A3           INC     DPTR
   \   00001B   A3           INC     DPTR
   \   00001C   A3           INC     DPTR
   \   00001D   A3           INC     DPTR
   \   00001E   E0           MOVX    A,@DPTR
   \   00001F   6402         XRL     A,#0x2
   \   000021   7023         JNZ     ??bindingAddrMgsHelperFind_0
    882            {
    883              entry.nwkAddr = addr->addr.shortAddr;
   \   000023   8A82         MOV     DPL,R2
   \   000025   8B83         MOV     DPH,R3
   \   000027   E0           MOVX    A,@DPTR
   \   000028   F8           MOV     R0,A
   \   000029   A3           INC     DPTR
   \   00002A   E0           MOVX    A,@DPTR
   \   00002B   F9           MOV     R1,A
   \   00002C   7401         MOV     A,#0x1
   \   00002E   12....       LCALL   ?XSTACK_DISP0_8
   \   000031   E8           MOV     A,R0
   \   000032   F0           MOVX    @DPTR,A
   \   000033   A3           INC     DPTR
   \   000034   E9           MOV     A,R1
   \   000035   F0           MOVX    @DPTR,A
    884              AddrMgrEntryLookupNwk( &entry );
   \   000036                ; Setup parameters for call to function AddrMgrEntryLookupNwk
   \   000036   85..82       MOV     DPL,?XSP + 0
   \   000039   85..83       MOV     DPH,?XSP + 1
   \   00003C   AA82         MOV     R2,DPL
   \   00003E   AB83         MOV     R3,DPH
   \   000040   12....       LCALL   ??AddrMgrEntryLookupNwk?relay
   \   000043   E9           MOV     A,R1
   \   000044   801E         SJMP    ??bindingAddrMgsHelperFind_1
    885            }
    886            else
    887            {
    888              AddrMgrExtAddrSet( entry.extAddr, addr->addr.extAddr );
   \                     ??bindingAddrMgsHelperFind_0:
   \   000046                ; Setup parameters for call to function AddrMgrExtAddrSet
   \   000046   EA           MOV     A,R2
   \   000047   FC           MOV     R4,A
   \   000048   EB           MOV     A,R3
   \   000049   FD           MOV     R5,A
   \   00004A   7403         MOV     A,#0x3
   \   00004C   12....       LCALL   ?XSTACK_DISP0_8
   \   00004F   AA82         MOV     R2,DPL
   \   000051   AB83         MOV     R3,DPH
   \   000053   12....       LCALL   ??AddrMgrExtAddrSet?relay
    889              AddrMgrEntryLookupExt( &entry );
   \   000056                ; Setup parameters for call to function AddrMgrEntryLookupExt
   \   000056   85..82       MOV     DPL,?XSP + 0
   \   000059   85..83       MOV     DPH,?XSP + 1
   \   00005C   AA82         MOV     R2,DPL
   \   00005E   AB83         MOV     R3,DPH
   \   000060   12....       LCALL   ??AddrMgrEntryLookupExt?relay
   \   000063   E9           MOV     A,R1
    890            }
    891          
    892            return ( entry.index );
   \                     ??bindingAddrMgsHelperFind_1:
   \   000064   740B         MOV     A,#0xb
   \   000066   12....       LCALL   ?XSTACK_DISP0_8
   \   000069   E0           MOVX    A,@DPTR
   \   00006A   FA           MOV     R2,A
   \   00006B   A3           INC     DPTR
   \   00006C   E0           MOVX    A,@DPTR
   \   00006D   FB           MOV     R3,A
   \   00006E   740D         MOV     A,#0xd
   \   000070   12....       LCALL   ?DEALLOC_XSTACK8
   \   000073   D083         POP     DPH
   \   000075   D082         POP     DPL
   \   000077   02....       LJMP    ?BRET
    893          }
    894          
    895          /*********************************************************************
    896           * @fn      bindingAddrMgsHelperConvert
    897           *
    898           * @brief   Convert an index into an zAddrType_t
    899           *
    900           * @param   idx -
    901           * @param   addr - zAddrType_t
    902           *
    903           * @return  TRUE if found, FALSE if not
    904           */

   \                                 In  segment BANKED_CODE, align 1, keep-with-next
    905          uint8 bindingAddrMgsHelperConvert( uint16 idx, zAddrType_t *addr )
   \                     bindingAddrMgsHelperConvert:
    906          {
   \   000000   74F7         MOV     A,#-0x9
   \   000002   12....       LCALL   ?BANKED_ENTER_XDATA
   \   000005                ; Saved register size: 9
   \   000005                ; Auto size: 13
   \   000005   74F3         MOV     A,#-0xd
   \   000007   12....       LCALL   ?ALLOC_XSTACK8
   \   00000A   EC           MOV     A,R4
   \   00000B   FE           MOV     R6,A
   \   00000C   ED           MOV     A,R5
   \   00000D   FF           MOV     R7,A
    907            AddrMgrEntry_t entry;
    908            uint8 stat;
    909          
    910            // Resolve addresses with the address manager
    911            entry.user = ADDRMGR_USER_BINDING;
   \   00000E   85..82       MOV     DPL,?XSP + 0
   \   000011   85..83       MOV     DPH,?XSP + 1
   \   000014   7404         MOV     A,#0x4
   \   000016   F0           MOVX    @DPTR,A
    912            entry.index = idx;
   \   000017   740B         MOV     A,#0xb
   \   000019   12....       LCALL   ?XSTACK_DISP0_8
   \   00001C   EA           MOV     A,R2
   \   00001D   F0           MOVX    @DPTR,A
   \   00001E   A3           INC     DPTR
   \   00001F   EB           MOV     A,R3
   \   000020   F0           MOVX    @DPTR,A
    913            stat = AddrMgrEntryGet( &entry );
   \   000021                ; Setup parameters for call to function AddrMgrEntryGet
   \   000021   85..82       MOV     DPL,?XSP + 0
   \   000024   85..83       MOV     DPH,?XSP + 1
   \   000027   AA82         MOV     R2,DPL
   \   000029   AB83         MOV     R3,DPH
   \   00002B   12....       LCALL   ??AddrMgrEntryGet?relay
   \   00002E   E9           MOV     A,R1
   \   00002F   F5..         MOV     ?V0 + 0,A
    914            if ( stat )
   \   000031   E5..         MOV     A,?V0 + 0
   \   000033   601F         JZ      ??bindingAddrMgsHelperConvert_0
    915            {
    916              addr->addrMode = Addr64Bit;
   \   000035   8E82         MOV     DPL,R6
   \   000037   8F83         MOV     DPH,R7
   \   000039   A3           INC     DPTR
   \   00003A   A3           INC     DPTR
   \   00003B   A3           INC     DPTR
   \   00003C   A3           INC     DPTR
   \   00003D   A3           INC     DPTR
   \   00003E   A3           INC     DPTR
   \   00003F   A3           INC     DPTR
   \   000040   A3           INC     DPTR
   \   000041   7403         MOV     A,#0x3
   \   000043   F0           MOVX    @DPTR,A
    917              osal_cpyExtAddr( addr->addr.extAddr, entry.extAddr );
   \   000044                ; Setup parameters for call to function sAddrExtCpy
   \   000044   7403         MOV     A,#0x3
   \   000046   12....       LCALL   ?XSTACK_DISP0_8
   \   000049   AC82         MOV     R4,DPL
   \   00004B   AD83         MOV     R5,DPH
   \   00004D   EE           MOV     A,R6
   \   00004E   FA           MOV     R2,A
   \   00004F   EF           MOV     A,R7
   \   000050   FB           MOV     R3,A
   \   000051   12....       LCALL   ??sAddrExtCpy?relay
    918            }
    919          
    920            return ( stat );
   \                     ??bindingAddrMgsHelperConvert_0:
   \   000054   A9..         MOV     R1,?V0 + 0
   \   000056   740D         MOV     A,#0xd
   \   000058   12....       LCALL   ?DEALLOC_XSTACK8
   \   00005B   7F01         MOV     R7,#0x1
   \   00005D   02....       LJMP    ?BANKED_LEAVE_XDATA
    921          }
    922          
    923          /*********************************************************************
    924           * @fn      bindingAddrMgsHelperConvertShort
    925           *
    926           * @brief   Convert an index into a short address
    927           *
    928           * @param   idx -
    929           *
    930           * @return  INVALID_NODE_ADDR if not available, otherwise the short address
    931           */

   \                                 In  segment BANKED_CODE, align 1, keep-with-next
    932          uint16 bindingAddrMgsHelperConvertShort( uint16 idx )
   \                     bindingAddrMgsHelperConvertShort:
    933          {
   \   000000   C082         PUSH    DPL
   \   000002   C083         PUSH    DPH
   \   000004                ; Saved register size: 2
   \   000004                ; Auto size: 13
   \   000004   74F3         MOV     A,#-0xd
   \   000006   12....       LCALL   ?ALLOC_XSTACK8
    934            AddrMgrEntry_t entry;
    935          
    936            // Resolve addresses with the address manager
    937            entry.user = ADDRMGR_USER_BINDING;
   \   000009   85..82       MOV     DPL,?XSP + 0
   \   00000C   85..83       MOV     DPH,?XSP + 1
   \   00000F   7404         MOV     A,#0x4
   \   000011   F0           MOVX    @DPTR,A
    938            entry.index = idx;
   \   000012   740B         MOV     A,#0xb
   \   000014   12....       LCALL   ?XSTACK_DISP0_8
   \   000017   EA           MOV     A,R2
   \   000018   F0           MOVX    @DPTR,A
   \   000019   A3           INC     DPTR
   \   00001A   EB           MOV     A,R3
   \   00001B   F0           MOVX    @DPTR,A
    939            AddrMgrEntryGet( &entry );
   \   00001C                ; Setup parameters for call to function AddrMgrEntryGet
   \   00001C   85..82       MOV     DPL,?XSP + 0
   \   00001F   85..83       MOV     DPH,?XSP + 1
   \   000022   AA82         MOV     R2,DPL
   \   000024   AB83         MOV     R3,DPH
   \   000026   12....       LCALL   ??AddrMgrEntryGet?relay
   \   000029   E9           MOV     A,R1
    940          
    941            return ( entry.nwkAddr );
   \   00002A   7401         MOV     A,#0x1
   \   00002C   12....       LCALL   ?XSTACK_DISP0_8
   \   00002F   E0           MOVX    A,@DPTR
   \   000030   FA           MOV     R2,A
   \   000031   A3           INC     DPTR
   \   000032   E0           MOVX    A,@DPTR
   \   000033   FB           MOV     R3,A
   \   000034   740D         MOV     A,#0xd
   \   000036   12....       LCALL   ?DEALLOC_XSTACK8
   \   000039   D083         POP     DPH
   \   00003B   D082         POP     DPL
   \   00003D   02....       LJMP    ?BRET
    942          }
    943          
    944          /*********************************************************************
    945           * @fn      bindAddrMgrLocalLoad
    946           *
    947           * @brief   Load local(self and parent) address information into
    948           *          Address Manager
    949           *
    950           * @param   none
    951           *
    952           * @return  none
    953           */

   \                                 In  segment BANKED_CODE, align 1, keep-with-next
    954          void bindAddrMgrLocalLoad( void )
   \                     bindAddrMgrLocalLoad:
    955          {
   \   000000   74F6         MOV     A,#-0xa
   \   000002   12....       LCALL   ?BANKED_ENTER_XDATA
   \   000005                ; Saved register size: 10
   \   000005                ; Auto size: 13
   \   000005   74F3         MOV     A,#-0xd
   \   000007   12....       LCALL   ?ALLOC_XSTACK8
    956            AddrMgrEntry_t entry;
    957            uint16         parent;
    958          
    959            // add "local"(self and parent) address informtion into the Address
    960            // Manager
    961            if ( bindAddrMgrLocalLoaded == FALSE )
   \   00000A   90....       MOV     DPTR,#bindAddrMgrLocalLoaded
   \   00000D   E0           MOVX    A,@DPTR
   \   00000E   6003         JZ      $+5
   \   000010   02....       LJMP    ??bindAddrMgrLocalLoad_0 & 0xFFFF
    962            {
    963              // add the device's address information
    964              entry.user    = ADDRMGR_USER_BINDING;
   \   000013   85..82       MOV     DPL,?XSP + 0
   \   000016   85..83       MOV     DPH,?XSP + 1
   \   000019   7404         MOV     A,#0x4
   \   00001B   F0           MOVX    @DPTR,A
    965              entry.nwkAddr = _NIB.nwkDevAddress;
   \   00001C   90....       MOV     DPTR,#_NIB + 20
   \   00001F   E0           MOVX    A,@DPTR
   \   000020   F8           MOV     R0,A
   \   000021   A3           INC     DPTR
   \   000022   E0           MOVX    A,@DPTR
   \   000023   F9           MOV     R1,A
   \   000024   7401         MOV     A,#0x1
   \   000026   12....       LCALL   ?XSTACK_DISP0_8
   \   000029   E8           MOV     A,R0
   \   00002A   F0           MOVX    @DPTR,A
   \   00002B   A3           INC     DPTR
   \   00002C   E9           MOV     A,R1
   \   00002D   F0           MOVX    @DPTR,A
    966              AddrMgrExtAddrSet( entry.extAddr, NLME_GetExtAddr() );
   \   00002E                ; Setup parameters for call to function AddrMgrExtAddrSet
   \   00002E                ; Setup parameters for call to function NLME_GetExtAddr
   \   00002E   12....       LCALL   ??NLME_GetExtAddr?relay
   \   000031   EA           MOV     A,R2
   \   000032   FC           MOV     R4,A
   \   000033   EB           MOV     A,R3
   \   000034   FD           MOV     R5,A
   \   000035   7403         MOV     A,#0x3
   \   000037   12....       LCALL   ?XSTACK_DISP0_8
   \   00003A   AA82         MOV     R2,DPL
   \   00003C   AB83         MOV     R3,DPH
   \   00003E   12....       LCALL   ??AddrMgrExtAddrSet?relay
    967              AddrMgrEntryUpdate( &entry );
   \   000041                ; Setup parameters for call to function AddrMgrEntryUpdate
   \   000041   85..82       MOV     DPL,?XSP + 0
   \   000044   85..83       MOV     DPH,?XSP + 1
   \   000047   AA82         MOV     R2,DPL
   \   000049   AB83         MOV     R3,DPH
   \   00004B   12....       LCALL   ??AddrMgrEntryUpdate?relay
   \   00004E   E9           MOV     A,R1
    968          
    969              // make sure parent address is valid
    970              parent = NLME_GetCoordShortAddr();
   \   00004F                ; Setup parameters for call to function NLME_GetCoordShortAddr
   \   00004F   12....       LCALL   ??NLME_GetCoordShortAddr?relay
   \   000052   8A..         MOV     ?V0 + 0,R2
   \   000054   8B..         MOV     ?V0 + 1,R3
   \   000056   A8..         MOV     R0,?V0 + 0
   \   000058   A9..         MOV     R1,?V0 + 1
    971              if ( ( parent != entry.nwkAddr     ) &&
    972                   ( parent != INVALID_NODE_ADDR )    )
   \   00005A   7401         MOV     A,#0x1
   \   00005C   12....       LCALL   ?XSTACK_DISP0_8
   \   00005F   E0           MOVX    A,@DPTR
   \   000060   68           XRL     A,R0
   \   000061   7003         JNZ     ??bindAddrMgrLocalLoad_1
   \   000063   A3           INC     DPTR
   \   000064   E0           MOVX    A,@DPTR
   \   000065   69           XRL     A,R1
   \                     ??bindAddrMgrLocalLoad_1:
   \   000066   602E         JZ      ??bindAddrMgrLocalLoad_2
   \   000068   74FE         MOV     A,#-0x2
   \   00006A   68           XRL     A,R0
   \   00006B   7003         JNZ     ??bindAddrMgrLocalLoad_3
   \   00006D   74FF         MOV     A,#-0x1
   \   00006F   69           XRL     A,R1
   \                     ??bindAddrMgrLocalLoad_3:
   \   000070   6024         JZ      ??bindAddrMgrLocalLoad_2
    973              {
    974                // add the parent's address information
    975                entry.nwkAddr = parent;
   \   000072   7401         MOV     A,#0x1
   \   000074   12....       LCALL   ?XSTACK_DISP0_8
   \   000077   E8           MOV     A,R0
   \   000078   F0           MOVX    @DPTR,A
   \   000079   A3           INC     DPTR
   \   00007A   E9           MOV     A,R1
   \   00007B   F0           MOVX    @DPTR,A
    976                NLME_GetCoordExtAddr( entry.extAddr );
   \   00007C                ; Setup parameters for call to function NLME_GetCoordExtAddr
   \   00007C   7403         MOV     A,#0x3
   \   00007E   12....       LCALL   ?XSTACK_DISP0_8
   \   000081   AA82         MOV     R2,DPL
   \   000083   AB83         MOV     R3,DPH
   \   000085   12....       LCALL   ??NLME_GetCoordExtAddr?relay
    977                AddrMgrEntryUpdate( &entry );
   \   000088                ; Setup parameters for call to function AddrMgrEntryUpdate
   \   000088   85..82       MOV     DPL,?XSP + 0
   \   00008B   85..83       MOV     DPH,?XSP + 1
   \   00008E   AA82         MOV     R2,DPL
   \   000090   AB83         MOV     R3,DPH
   \   000092   12....       LCALL   ??AddrMgrEntryUpdate?relay
   \   000095   E9           MOV     A,R1
    978              }
    979          
    980              bindAddrMgrLocalLoaded = TRUE;
   \                     ??bindAddrMgrLocalLoad_2:
   \   000096   90....       MOV     DPTR,#bindAddrMgrLocalLoaded
   \   000099   7401         MOV     A,#0x1
   \   00009B   F0           MOVX    @DPTR,A
    981            }
    982          }
   \                     ??bindAddrMgrLocalLoad_0:
   \   00009C   740D         MOV     A,#0xd
   \   00009E   12....       LCALL   ?DEALLOC_XSTACK8
   \   0000A1   7F02         MOV     R7,#0x2
   \   0000A3   02....       LJMP    ?BANKED_LEAVE_XDATA
    983          
    984          /*********************************************************************
    985           * @fn      bindAddrIndexGet
    986           *
    987           * @brief   Get bind address index.
    988           *
    989           * @param   addr - <zAddrType_t>
    990           *
    991           * @return  (uint16) address index
    992           */

   \                                 In  segment BANKED_CODE, align 1, keep-with-next
    993          uint16 bindAddrIndexGet( zAddrType_t* addr )
   \                     bindAddrIndexGet:
    994          {
   \   000000   74F7         MOV     A,#-0x9
   \   000002   12....       LCALL   ?BANKED_ENTER_XDATA
   \   000005                ; Saved register size: 9
   \   000005                ; Auto size: 13
   \   000005   74F3         MOV     A,#-0xd
   \   000007   12....       LCALL   ?ALLOC_XSTACK8
    995            AddrMgrEntry_t entry;
    996            uint8          update;
    997          
    998            update = FALSE;
   \   00000A   7E00         MOV     R6,#0x0
    999          
   1000            // sync binding addresses with the address manager
   1001            entry.user = ADDRMGR_USER_BINDING;
   \   00000C   85..82       MOV     DPL,?XSP + 0
   \   00000F   85..83       MOV     DPH,?XSP + 1
   \   000012   7404         MOV     A,#0x4
   \   000014   F0           MOVX    @DPTR,A
   1002          
   1003            if ( addr->addrMode == Addr16Bit )
   \   000015   8A82         MOV     DPL,R2
   \   000017   8B83         MOV     DPH,R3
   \   000019   A3           INC     DPTR
   \   00001A   A3           INC     DPTR
   \   00001B   A3           INC     DPTR
   \   00001C   A3           INC     DPTR
   \   00001D   A3           INC     DPTR
   \   00001E   A3           INC     DPTR
   \   00001F   A3           INC     DPTR
   \   000020   A3           INC     DPTR
   \   000021   E0           MOVX    A,@DPTR
   \   000022   6402         XRL     A,#0x2
   \   000024   7027         JNZ     ??bindAddrIndexGet_0
   1004            {
   1005              entry.nwkAddr = addr->addr.shortAddr;
   \   000026   8A82         MOV     DPL,R2
   \   000028   8B83         MOV     DPH,R3
   \   00002A   E0           MOVX    A,@DPTR
   \   00002B   F8           MOV     R0,A
   \   00002C   A3           INC     DPTR
   \   00002D   E0           MOVX    A,@DPTR
   \   00002E   F9           MOV     R1,A
   \   00002F   7401         MOV     A,#0x1
   \   000031   12....       LCALL   ?XSTACK_DISP0_8
   \   000034   E8           MOV     A,R0
   \   000035   F0           MOVX    @DPTR,A
   \   000036   A3           INC     DPTR
   \   000037   E9           MOV     A,R1
   \   000038   F0           MOVX    @DPTR,A
   1006          
   1007              if ( AddrMgrEntryLookupNwk( &entry ) == FALSE )
   \   000039                ; Setup parameters for call to function AddrMgrEntryLookupNwk
   \   000039   85..82       MOV     DPL,?XSP + 0
   \   00003C   85..83       MOV     DPH,?XSP + 1
   \   00003F   AA82         MOV     R2,DPL
   \   000041   AB83         MOV     R3,DPH
   \   000043   12....       LCALL   ??AddrMgrEntryLookupNwk?relay
   \   000046   E9           MOV     A,R1
   \   000047   706B         JNZ     ??bindAddrIndexGet_1
   1008              {
   1009                update = TRUE;
   \   000049   7E01         MOV     R6,#0x1
   \   00004B   8067         SJMP    ??bindAddrIndexGet_1
   1010              }
   1011            }
   1012            else if ( addr->addrMode == Addr64Bit )
   \                     ??bindAddrIndexGet_0:
   \   00004D   8A82         MOV     DPL,R2
   \   00004F   8B83         MOV     DPH,R3
   \   000051   A3           INC     DPTR
   \   000052   A3           INC     DPTR
   \   000053   A3           INC     DPTR
   \   000054   A3           INC     DPTR
   \   000055   A3           INC     DPTR
   \   000056   A3           INC     DPTR
   \   000057   A3           INC     DPTR
   \   000058   A3           INC     DPTR
   \   000059   E0           MOVX    A,@DPTR
   \   00005A   6403         XRL     A,#0x3
   \   00005C   7024         JNZ     ??bindAddrIndexGet_2
   1013            {
   1014              AddrMgrExtAddrSet( entry.extAddr, addr->addr.extAddr );
   \   00005E                ; Setup parameters for call to function AddrMgrExtAddrSet
   \   00005E   EA           MOV     A,R2
   \   00005F   FC           MOV     R4,A
   \   000060   EB           MOV     A,R3
   \   000061   FD           MOV     R5,A
   \   000062   7403         MOV     A,#0x3
   \   000064   12....       LCALL   ?XSTACK_DISP0_8
   \   000067   AA82         MOV     R2,DPL
   \   000069   AB83         MOV     R3,DPH
   \   00006B   12....       LCALL   ??AddrMgrExtAddrSet?relay
   1015          
   1016              if ( AddrMgrEntryLookupExt( &entry ) == FALSE )
   \   00006E                ; Setup parameters for call to function AddrMgrEntryLookupExt
   \   00006E   85..82       MOV     DPL,?XSP + 0
   \   000071   85..83       MOV     DPH,?XSP + 1
   \   000074   AA82         MOV     R2,DPL
   \   000076   AB83         MOV     R3,DPH
   \   000078   12....       LCALL   ??AddrMgrEntryLookupExt?relay
   \   00007B   E9           MOV     A,R1
   \   00007C   7036         JNZ     ??bindAddrIndexGet_1
   1017              {
   1018                update = TRUE;
   \   00007E   7E01         MOV     R6,#0x1
   \   000080   8032         SJMP    ??bindAddrIndexGet_1
   1019              }
   1020            }
   1021            else if ( addr->addrMode == AddrGroup )
   \                     ??bindAddrIndexGet_2:
   \   000082   8A82         MOV     DPL,R2
   \   000084   8B83         MOV     DPH,R3
   \   000086   A3           INC     DPTR
   \   000087   A3           INC     DPTR
   \   000088   A3           INC     DPTR
   \   000089   A3           INC     DPTR
   \   00008A   A3           INC     DPTR
   \   00008B   A3           INC     DPTR
   \   00008C   A3           INC     DPTR
   \   00008D   A3           INC     DPTR
   \   00008E   E0           MOVX    A,@DPTR
   \   00008F   6401         XRL     A,#0x1
   \   000091   7015         JNZ     ??bindAddrIndexGet_3
   1022            {
   1023              entry.index = addr->addr.shortAddr;
   \   000093   8A82         MOV     DPL,R2
   \   000095   8B83         MOV     DPH,R3
   \   000097   E0           MOVX    A,@DPTR
   \   000098   F8           MOV     R0,A
   \   000099   A3           INC     DPTR
   \   00009A   E0           MOVX    A,@DPTR
   \   00009B   F9           MOV     R1,A
   \   00009C   740B         MOV     A,#0xb
   \   00009E   12....       LCALL   ?XSTACK_DISP0_8
   \   0000A1   E8           MOV     A,R0
   \   0000A2   F0           MOVX    @DPTR,A
   \   0000A3   A3           INC     DPTR
   \   0000A4   E9           MOV     A,R1
   \   0000A5   F0           MOVX    @DPTR,A
   \   0000A6   800C         SJMP    ??bindAddrIndexGet_1
   1024            }
   1025            else
   1026            {
   1027              entry.index = INVALID_NODE_ADDR;
   \                     ??bindAddrIndexGet_3:
   \   0000A8   740B         MOV     A,#0xb
   \   0000AA   12....       LCALL   ?XSTACK_DISP0_8
   \   0000AD   74FE         MOV     A,#-0x2
   \   0000AF   F0           MOVX    @DPTR,A
   \   0000B0   A3           INC     DPTR
   \   0000B1   74FF         MOV     A,#-0x1
   \   0000B3   F0           MOVX    @DPTR,A
   1028            }
   1029          
   1030            if ( update )
   \                     ??bindAddrIndexGet_1:
   \   0000B4   EE           MOV     A,R6
   \   0000B5   600E         JZ      ??bindAddrIndexGet_4
   1031            {
   1032              AddrMgrEntryUpdate( &entry );
   \   0000B7                ; Setup parameters for call to function AddrMgrEntryUpdate
   \   0000B7   85..82       MOV     DPL,?XSP + 0
   \   0000BA   85..83       MOV     DPH,?XSP + 1
   \   0000BD   AA82         MOV     R2,DPL
   \   0000BF   AB83         MOV     R3,DPH
   \   0000C1   12....       LCALL   ??AddrMgrEntryUpdate?relay
   \   0000C4   E9           MOV     A,R1
   1033            }
   1034          
   1035            return entry.index;
   \                     ??bindAddrIndexGet_4:
   \   0000C5   740B         MOV     A,#0xb
   \   0000C7   12....       LCALL   ?XSTACK_DISP0_8
   \   0000CA   E0           MOVX    A,@DPTR
   \   0000CB   FA           MOV     R2,A
   \   0000CC   A3           INC     DPTR
   \   0000CD   E0           MOVX    A,@DPTR
   \   0000CE   FB           MOV     R3,A
   \   0000CF   740D         MOV     A,#0xd
   \   0000D1   12....       LCALL   ?DEALLOC_XSTACK8
   \   0000D4   7F01         MOV     R7,#0x1
   \   0000D6   02....       LJMP    ?BANKED_LEAVE_XDATA
   1036          }
   1037          
   1038          /*********************************************************************
   1039           * @fn      GetBindingTableEntry
   1040           *
   1041           * @brief   Get a pointer to the Nth valid binding table entry.
   1042           *
   1043           * @param   Nth valid entry being requested.
   1044           *
   1045           * @return  The Nth valid binding table entry.
   1046           */

   \                                 In  segment BANKED_CODE, align 1, keep-with-next
   1047          BindingEntry_t *GetBindingTableEntry( uint16 Nth )
   \                     GetBindingTableEntry:
   1048          {
   \   000000   74F5         MOV     A,#-0xb
   \   000002   12....       LCALL   ?BANKED_ENTER_XDATA
   \   000005                ; Saved register size: 11
   \   000005                ; Auto size: 0
   1049            BindingEntry_t *rtrn = NULL;
   \   000005   7C00         MOV     R4,#0x0
   \   000007   7D00         MOV     R5,#0x0
   1050          
   1051          #if defined ( REFLECTOR )
   1052            uint16 idx, cnt = 0;
   \   000009   75..00       MOV     ?V0 + 0,#0x0
   \   00000C   75..00       MOV     ?V0 + 1,#0x0
   1053          
   1054            for ( idx = 0; idx < gNWK_MAX_BINDING_ENTRIES; idx++ )
   \   00000F   7800         MOV     R0,#0x0
   \   000011   7900         MOV     R1,#0x0
   \   000013   8008         SJMP    ??GetBindingTableEntry_0
   \                     ??GetBindingTableEntry_1:
   \   000015   E8           MOV     A,R0
   \   000016   2401         ADD     A,#0x1
   \   000018   F8           MOV     R0,A
   \   000019   E9           MOV     A,R1
   \   00001A   3400         ADDC    A,#0x0
   \   00001C   F9           MOV     R1,A
   \                     ??GetBindingTableEntry_0:
   \   00001D   90....       MOV     DPTR,#gNWK_MAX_BINDING_ENTRIES
   \   000020   E4           CLR     A
   \   000021   93           MOVC    A,@A+DPTR
   \   000022   FE           MOV     R6,A
   \   000023   7401         MOV     A,#0x1
   \   000025   93           MOVC    A,@A+DPTR
   \   000026   FF           MOV     R7,A
   \   000027   C3           CLR     C
   \   000028   E8           MOV     A,R0
   \   000029   9E           SUBB    A,R6
   \   00002A   E9           MOV     A,R1
   \   00002B   9F           SUBB    A,R7
   \   00002C   505F         JNC     ??GetBindingTableEntry_2
   1055            {
   1056              if ( BindingTable[idx].srcEP != NV_BIND_EMPTY )
   \   00002E   E8           MOV     A,R0
   \   00002F   FE           MOV     R6,A
   \   000030   E9           MOV     A,R1
   \   000031   FF           MOV     R7,A
   \   000032   EE           MOV     A,R6
   \   000033   75F00E       MOV     B,#0xe
   \   000036   A4           MUL     AB
   \   000037   CE           XCH     A,R6
   \   000038   85F0..       MOV     ?V0 + 2,B
   \   00003B   75F000       MOV     B,#0x0
   \   00003E   A4           MUL     AB
   \   00003F   25..         ADD     A,?V0 + 2
   \   000041   F5..         MOV     ?V0 + 2,A
   \   000043   75F00E       MOV     B,#0xe
   \   000046   EF           MOV     A,R7
   \   000047   A4           MUL     AB
   \   000048   25..         ADD     A,?V0 + 2
   \   00004A   FF           MOV     R7,A
   \   00004B   74..         MOV     A,#BindingTable & 0xff
   \   00004D   2E           ADD     A,R6
   \   00004E   F582         MOV     DPL,A
   \   000050   74..         MOV     A,#(BindingTable >> 8) & 0xff
   \   000052   3F           ADDC    A,R7
   \   000053   F583         MOV     DPH,A
   \   000055   E0           MOVX    A,@DPTR
   \   000056   64FF         XRL     A,#0xff
   \   000058   60BB         JZ      ??GetBindingTableEntry_1
   1057              {
   1058                if ( cnt++ == Nth )
   \   00005A   AE..         MOV     R6,?V0 + 0
   \   00005C   AF..         MOV     R7,?V0 + 1
   \   00005E   EE           MOV     A,R6
   \   00005F   2401         ADD     A,#0x1
   \   000061   F5..         MOV     ?V0 + 0,A
   \   000063   EF           MOV     A,R7
   \   000064   3400         ADDC    A,#0x0
   \   000066   F5..         MOV     ?V0 + 1,A
   \   000068   EA           MOV     A,R2
   \   000069   6E           XRL     A,R6
   \   00006A   7002         JNZ     ??GetBindingTableEntry_3
   \   00006C   EB           MOV     A,R3
   \   00006D   6F           XRL     A,R7
   \                     ??GetBindingTableEntry_3:
   \   00006E   70A5         JNZ     ??GetBindingTableEntry_1
   1059                {
   1060                  rtrn = BindingTable+idx;
   \   000070   E8           MOV     A,R0
   \   000071   75F00E       MOV     B,#0xe
   \   000074   A4           MUL     AB
   \   000075   C8           XCH     A,R0
   \   000076   AAF0         MOV     R2,B
   \   000078   75F000       MOV     B,#0x0
   \   00007B   A4           MUL     AB
   \   00007C   2A           ADD     A,R2
   \   00007D   FA           MOV     R2,A
   \   00007E   75F00E       MOV     B,#0xe
   \   000081   E9           MOV     A,R1
   \   000082   A4           MUL     AB
   \   000083   2A           ADD     A,R2
   \   000084   F9           MOV     R1,A
   \   000085   74..         MOV     A,#BindingTable & 0xff
   \   000087   28           ADD     A,R0
   \   000088   FC           MOV     R4,A
   \   000089   74..         MOV     A,#(BindingTable >> 8) & 0xff
   \   00008B   39           ADDC    A,R1
   \   00008C   FD           MOV     R5,A
   1061                  break;
   1062                }
   1063              }
   1064            }
   1065          #else
   1066            (void)Nth;
   1067          #endif
   1068          
   1069            return rtrn;
   \                     ??GetBindingTableEntry_2:
   \   00008D   EC           MOV     A,R4
   \   00008E   FA           MOV     R2,A
   \   00008F   ED           MOV     A,R5
   \   000090   FB           MOV     R3,A
   \   000091   7F03         MOV     R7,#0x3
   \   000093   02....       LJMP    ?BANKED_LEAVE_XDATA
   1070          }

   \                                 In  segment BANK_RELAYS, align 1
   \                     ??InitBindingTable?relay:
   \   000000   12....       LCALL   ?BDISPATCH
   \   000003   ......       DC24    InitBindingTable

   \                                 In  segment BANK_RELAYS, align 1
   \                     ??bindFindEmpty?relay:
   \   000000   12....       LCALL   ?BDISPATCH
   \   000003   ......       DC24    bindFindEmpty

   \                                 In  segment BANK_RELAYS, align 1
   \                     ??bindNumOfEntries?relay:
   \   000000   12....       LCALL   ?BDISPATCH
   \   000003   ......       DC24    bindNumOfEntries

   \                                 In  segment BANK_RELAYS, align 1
   \                     ??bindCapacity?relay:
   \   000000   12....       LCALL   ?BDISPATCH
   \   000003   ......       DC24    bindCapacity

   \                                 In  segment BANK_RELAYS, align 1
   \                     ??bindAddEntry?relay:
   \   000000   12....       LCALL   ?BDISPATCH
   \   000003   ......       DC24    bindAddEntry

   \                                 In  segment BANK_RELAYS, align 1
   \                     ??bindRemoveEntry?relay:
   \   000000   12....       LCALL   ?BDISPATCH
   \   000003   ......       DC24    bindRemoveEntry

   \                                 In  segment BANK_RELAYS, align 1
   \                     ??bindIsClusterIDinList?relay:
   \   000000   12....       LCALL   ?BDISPATCH
   \   000003   ......       DC24    bindIsClusterIDinList

   \                                 In  segment BANK_RELAYS, align 1
   \                     ??bindRemoveClusterIdFromList?relay:
   \   000000   12....       LCALL   ?BDISPATCH
   \   000003   ......       DC24    bindRemoveClusterIdFromList

   \                                 In  segment BANK_RELAYS, align 1
   \                     ??bindAddClusterIdToList?relay:
   \   000000   12....       LCALL   ?BDISPATCH
   \   000003   ......       DC24    bindAddClusterIdToList

   \                                 In  segment BANK_RELAYS, align 1
   \                     ??bindFindExisting?relay:
   \   000000   12....       LCALL   ?BDISPATCH
   \   000003   ......       DC24    bindFindExisting

   \                                 In  segment BANK_RELAYS, align 1
   \                     ??bindRemoveDev?relay:
   \   000000   12....       LCALL   ?BDISPATCH
   \   000003   ......       DC24    bindRemoveDev

   \                                 In  segment BANK_RELAYS, align 1
   \                     ??bindRemoveSrcDev?relay:
   \   000000   12....       LCALL   ?BDISPATCH
   \   000003   ......       DC24    bindRemoveSrcDev

   \                                 In  segment BANK_RELAYS, align 1
   \                     ??bindNumBoundTo?relay:
   \   000000   12....       LCALL   ?BDISPATCH
   \   000003   ......       DC24    bindNumBoundTo

   \                                 In  segment BANK_RELAYS, align 1
   \                     ??bindNumReflections?relay:
   \   000000   12....       LCALL   ?BDISPATCH
   \   000003   ......       DC24    bindNumReflections

   \                                 In  segment BANK_RELAYS, align 1
   \                     ??bindFind?relay:
   \   000000   12....       LCALL   ?BDISPATCH
   \   000003   ......       DC24    bindFind

   \                                 In  segment BANK_RELAYS, align 1
   \                     ??BindInitNV?relay:
   \   000000   12....       LCALL   ?BDISPATCH
   \   000003   ......       DC24    BindInitNV

   \                                 In  segment BANK_RELAYS, align 1
   \                     ??BindSetDefaultNV?relay:
   \   000000   12....       LCALL   ?BDISPATCH
   \   000003   ......       DC24    BindSetDefaultNV

   \                                 In  segment BANK_RELAYS, align 1
   \                     ??BindRestoreFromNV?relay:
   \   000000   12....       LCALL   ?BDISPATCH
   \   000003   ......       DC24    BindRestoreFromNV

   \                                 In  segment BANK_RELAYS, align 1
   \                     ??BindWriteNV?relay:
   \   000000   12....       LCALL   ?BDISPATCH
   \   000003   ......       DC24    BindWriteNV

   \                                 In  segment BANK_RELAYS, align 1
   \                     ??bindUpdateAddr?relay:
   \   000000   12....       LCALL   ?BDISPATCH
   \   000003   ......       DC24    bindUpdateAddr

   \                                 In  segment BANK_RELAYS, align 1
   \                     ??bindingAddrMgsHelperFind?relay:
   \   000000   12....       LCALL   ?BDISPATCH
   \   000003   ......       DC24    bindingAddrMgsHelperFind

   \                                 In  segment BANK_RELAYS, align 1
   \                     ??bindingAddrMgsHelperConvert?relay:
   \   000000   12....       LCALL   ?BDISPATCH
   \   000003   ......       DC24    bindingAddrMgsHelperConvert

   \                                 In  segment BANK_RELAYS, align 1
   \                     ??bindingAddrMgsHelperConvertShort?relay:
   \   000000   12....       LCALL   ?BDISPATCH
   \   000003   ......       DC24    bindingAddrMgsHelperConvertShort

   \                                 In  segment BANK_RELAYS, align 1
   \                     ??bindAddrMgrLocalLoad?relay:
   \   000000   12....       LCALL   ?BDISPATCH
   \   000003   ......       DC24    bindAddrMgrLocalLoad

   \                                 In  segment BANK_RELAYS, align 1
   \                     ??bindAddrIndexGet?relay:
   \   000000   12....       LCALL   ?BDISPATCH
   \   000003   ......       DC24    bindAddrIndexGet

   \                                 In  segment BANK_RELAYS, align 1
   \                     ??GetBindingTableEntry?relay:
   \   000000   12....       LCALL   ?BDISPATCH
   \   000003   ......       DC24    GetBindingTableEntry
   1071          
   1072          /*********************************************************************
   1073          *********************************************************************/

   Maximum stack usage in bytes:

     Function                       ISTACK PSTACK XSTACK
     --------                       ------ ------ ------
     BindInitNV                         2      0     12
       -> osal_nv_item_init             0      0     24
       -> BindSetDefaultNV              0      0     20
     BindRestoreFromNV                  0      0     18
       -> osal_nv_read                  0      0     36
       -> osal_nv_read                  0      0     36
     BindSetDefaultNV                   0      0     26
       -> osal_nv_write                 0      0     32
     BindWriteNV                        0      0     35
       -> osal_memcpy                   0      0     68
       -> osal_nv_write                 0      0     70
       -> osal_nv_write                 0      0     70
     GetBindingTableEntry               0      0     11
     InitBindingTable                   0      0     10
       -> osal_memset                   0      0     20
     bindAddClusterIdToList             0      0     37
     bindAddEntry                       1      0     33
       -> bindAddrMgrLocalLoad          0      0     56
       -> bindAddrIndexGet              0      0     56
       -> bindIsClusterIDinList         0      0     56
       -> bindAddClusterIdToList        0      0     56
       -> bindFindEmpty                 0      0     56
       -> osal_memcpy                   0      0     62
     bindAddrIndexGet                   0      0     50
       -> AddrMgrEntryLookupNwk         0      0     44
       -> AddrMgrExtAddrSet             0      0     44
       -> AddrMgrEntryLookupExt         0      0     44
       -> AddrMgrEntryUpdate            0      0     44
     bindAddrMgrLocalLoad               0      0     51
       -> NLME_GetExtAddr               0      0     46
       -> AddrMgrExtAddrSet             0      0     46
       -> AddrMgrEntryUpdate            0      0     46
       -> NLME_GetCoordShortAddr        0      0     46
       -> NLME_GetCoordExtAddr          0      0     46
       -> AddrMgrEntryUpdate            0      0     46
     bindCapacity                       0      0     11
     bindFind                           0      0     15
       -> bindIsClusterIDinList         0      0     30
     bindFindEmpty                      2      0     28
     bindFindExisting                   0      0     12
       -> bindingAddrMgsHelperFind      0      0     24
     bindIsClusterIDinList              0      0     37
     bindNumBoundTo                     0      0     14
       -> bindingAddrMgsHelperFind      0      0     28
     bindNumOfEntries                   0      0      9
     bindNumReflections                 0      0     13
       -> bindIsClusterIDinList         0      0     26
     bindRemoveClusterIdFromList        0      0     11
     bindRemoveDev                      0      0     14
       -> bindingAddrMgsHelperFind      0      0     28
       -> bindRemoveEntry               0      0     28
     bindRemoveEntry                    2      0     14
       -> osal_memset                   4      0      0
     bindRemoveSrcDev                   0      0      9
       -> bindRemoveEntry               0      0     18
     bindUpdateAddr                     0      0     21
       -> bindingAddrMgsHelperFind      0      0     42
       -> bindingAddrMgsHelperFind      0      0     42
     bindingAddrMgsHelperConvert        0      0     22
       -> AddrMgrEntryGet               0      0     44
       -> sAddrExtCpy                   0      0     44
     bindingAddrMgsHelperConvertShort
                                        2      0     13
       -> AddrMgrEntryGet               4      0     26
     bindingAddrMgsHelperFind           2      0     34
       -> AddrMgrEntryLookupNwk         4      0     26
       -> AddrMgrExtAddrSet             4      0     26
       -> AddrMgrEntryLookupExt         4      0     26


   Segment part sizes:

     Function/Label                           Bytes
     --------------                           -----
     bindAddrMgrLocalLoaded                      1
     pbindAddEntry                               2
     pbindNumOfEntries                           2
     pbindRemoveDev                              2
     pBindInitNV                                 2
     pBindSetDefaultNV                           2
     pBindRestoreFromNV                          2
     pBindWriteNV                                2
     InitBindingTable                          138
     bindFindEmpty                             117
     bindNumOfEntries                          130
     bindCapacity                              133
     bindAddEntry                              727
     bindRemoveEntry                            28
     bindIsClusterIDinList                      89
     bindRemoveClusterIdFromList               243
     bindAddClusterIdToList                    106
     bindFindExisting                          466
     bindRemoveDev                             360
     bindRemoveSrcDev                          126
     bindNumBoundTo                            251
     bindNumReflections                        125
     bindFind                                  136
     BindInitNV                                105
     BindSetDefaultNV                           78
     BindRestoreFromNV                         192
     BindWriteNV                               295
     bindUpdateAddr                            192
     bindingAddrMgsHelperFind                  122
     bindingAddrMgsHelperConvert                96
     bindingAddrMgsHelperConvertShort
                                                64
     bindAddrMgrLocalLoad                      166
     bindAddrIndexGet                          217
     GetBindingTableEntry                      150
     ??InitBindingTable?relay                    6
     ??bindFindEmpty?relay                       6
     ??bindNumOfEntries?relay                    6
     ??bindCapacity?relay                        6
     ??bindAddEntry?relay                        6
     ??bindRemoveEntry?relay                     6
     ??bindIsClusterIDinList?relay               6
     ??bindRemoveClusterIdFromList?relay         6
     ??bindAddClusterIdToList?relay              6
     ??bindFindExisting?relay                    6
     ??bindRemoveDev?relay                       6
     ??bindRemoveSrcDev?relay                    6
     ??bindNumBoundTo?relay                      6
     ??bindNumReflections?relay                  6
     ??bindFind?relay                            6
     ??BindInitNV?relay                          6
     ??BindSetDefaultNV?relay                    6
     ??BindRestoreFromNV?relay                   6
     ??BindWriteNV?relay                         6
     ??bindUpdateAddr?relay                      6
     ??bindingAddrMgsHelperFind?relay            6
     ??bindingAddrMgsHelperConvert?relay         6
     ??bindingAddrMgsHelperConvertShort?relay    6
     ??bindAddrMgrLocalLoad?relay                6
     ??bindAddrIndexGet?relay                    6
     ??GetBindingTableEntry?relay                6

 
 4 852 bytes in segment BANKED_CODE
   156 bytes in segment BANK_RELAYS
    15 bytes in segment XDATA_Z
 
 5 008 bytes of CODE  memory
    15 bytes of XDATA memory

Errors: none
Warnings: none
