///////////////////////////////////////////////////////////////////////////////
//                                                                            /
// IAR C/C++ Compiler V8.10.3.10338/W32 for 8051        25/Aug/2018  23:10:07 /
// Copyright 2004-2011 IAR Systems AB.                                        /
//                                                                            /
//    Core               =  plain                                             /
//    Code model         =  banked                                            /
//    Data model         =  large                                             /
//    Calling convention =  xdata reentrant                                   /
//    Constant location  =  data_rom                                          /
//    Dptr setup         =  1,16                                              /
//    Source file        =  F:\work\iot-hardware\logger\logger\Components\hal /
//                          \target\CC2530EB\hal_lcd.c                        /
//    Command line       =  -f F:\work\iot-hardware\logger\logger\Projects\zs /
//                          tack\Samples\GenericApp\CC2530DB\..\..\..\Tools\C /
//                          C2530DB\f8wEndev.cfg (-DCPU32MHZ                  /
//                          -DROOT=__near_func -DMAC_CFG_TX_DATA_MAX=3        /
//                          -DMAC_CFG_TX_MAX=6 -DMAC_CFG_RX_MAX=3) -f         /
//                          F:\work\iot-hardware\logger\logger\Projects\zstac /
//                          k\Samples\GenericApp\CC2530DB\..\..\..\Tools\CC25 /
//                          30DB\f8wConfig.cfg (-DZIGBEEPRO -DSECURE=0        /
//                          -DZG_SECURE_DYNAMIC=0 -DREFLECTOR                 /
//                          -DDEFAULT_CHANLIST=0x00000800                     /
//                          -DZDAPP_CONFIG_PAN_ID=0xFFFF                      /
//                          -DNWK_START_DELAY=100 -DEXTENDED_JOINING_RANDOM_M /
//                          ASK=0x007F -DBEACON_REQUEST_DELAY=100             /
//                          -DBEACON_REQ_DELAY_MASK=0x00FF                    /
//                          -DLINK_STATUS_JITTER_MASK=0x007F                  /
//                          -DROUTE_EXPIRY_TIME=30 -DAPSC_ACK_WAIT_DURATION_P /
//                          OLLED=3000 -DNWK_INDIRECT_MSG_TIMEOUT=7           /
//                          -DMAX_RREQ_ENTRIES=8 -DAPSC_MAX_FRAME_RETRIES=3   /
//                          -DNWK_MAX_DATA_RETRIES=2                          /
//                          -DMAX_POLL_FAILURE_RETRIES=2 -DMAX_BCAST=9        /
//                          -DAPS_MAX_GROUPS=16 -DMAX_RTG_ENTRIES=40          /
//                          -DNWK_MAX_BINDING_ENTRIES=4                       /
//                          -DMAX_BINDING_CLUSTER_IDS=4                       /
//                          "-DDEFAULT_KEY={0x01, 0x03, 0x05, 0x07, 0x09,     /
//                          0x0B, 0x0D, 0x0F, 0x00, 0x02, 0x04, 0x06, 0x08,   /
//                          0x0A, 0x0C, 0x0D}" -DMAC_MAX_FRAME_SIZE=116       /
//                          -DZDNWKMGR_MIN_TRANSMISSIONS=20 "-DCONST=const    /
//                          __code" -DGENERIC=__generic                       /
//                          -DRFD_RCVC_ALWAYS_ON=FALSE -DPOLL_RATE=1000       /
//                          -DQUEUED_POLL_RATE=100 -DRESPONSE_POLL_RATE=100)  /
//                          -DREJOIN_POLL_RATE=440 F:\work\iot-hardware\logge /
//                          r\logger\Components\hal\target\CC2530EB\hal_lcd.c /
//                           -D NWK_AUTO_POLL -D ZTOOL_P1 -D MT_TASK -D       /
//                          MT_SYS_FUNC -D MT_ZDO_FUNC -D                     /
//                          LCD_SUPPORTED=DEBUG -D xPOWER_SAVING -lC          /
//                          F:\work\iot-hardware\logger\logger\Projects\zstac /
//                          k\Samples\GenericApp\CC2530DB\EndDeviceEB\List\   /
//                          -lA F:\work\iot-hardware\logger\logger\Projects\z /
//                          stack\Samples\GenericApp\CC2530DB\EndDeviceEB\Lis /
//                          t\ --diag_suppress Pe001,Pa010 -o                 /
//                          F:\work\iot-hardware\logger\logger\Projects\zstac /
//                          k\Samples\GenericApp\CC2530DB\EndDeviceEB\Obj\    /
//                          -e --no_cse --no_unroll --no_inline               /
//                          --no_code_motion --no_tbaa --debug --core=plain   /
//                          --dptr=16,1 --data_model=large                    /
//                          --code_model=banked --calling_convention=xdata_re /
//                          entrant --place_constants=data_rom                /
//                          --nr_virtual_regs 16 -I                           /
//                          F:\work\iot-hardware\logger\logger\Projects\zstac /
//                          k\Samples\GenericApp\CC2530DB\ -I                 /
//                          F:\work\iot-hardware\logger\logger\Projects\zstac /
//                          k\Samples\GenericApp\CC2530DB\..\Source\ -I       /
//                          F:\work\iot-hardware\logger\logger\Projects\zstac /
//                          k\Samples\GenericApp\CC2530DB\..\..\..\ZMain\TI25 /
//                          30DB\ -I F:\work\iot-hardware\logger\logger\Proje /
//                          cts\zstack\Samples\GenericApp\CC2530DB\..\..\..\. /
//                          .\..\Components\hal\include\ -I                   /
//                          F:\work\iot-hardware\logger\logger\Projects\zstac /
//                          k\Samples\GenericApp\CC2530DB\..\..\..\..\..\Comp /
//                          onents\hal\target\CC2530EB\ -I                    /
//                          F:\work\iot-hardware\logger\logger\Projects\zstac /
//                          k\Samples\GenericApp\CC2530DB\..\..\..\..\..\Comp /
//                          onents\mac\include\ -I F:\work\iot-hardware\logge /
//                          r\logger\Projects\zstack\Samples\GenericApp\CC253 /
//                          0DB\..\..\..\..\..\Components\mac\high_level\ -I  /
//                          F:\work\iot-hardware\logger\logger\Projects\zstac /
//                          k\Samples\GenericApp\CC2530DB\..\..\..\..\..\Comp /
//                          onents\mac\low_level\srf04\ -I                    /
//                          F:\work\iot-hardware\logger\logger\Projects\zstac /
//                          k\Samples\GenericApp\CC2530DB\..\..\..\..\..\Comp /
//                          onents\mac\low_level\srf04\single_chip\ -I        /
//                          F:\work\iot-hardware\logger\logger\Projects\zstac /
//                          k\Samples\GenericApp\CC2530DB\..\..\..\..\..\Comp /
//                          onents\mt\ -I F:\work\iot-hardware\logger\logger\ /
//                          Projects\zstack\Samples\GenericApp\CC2530DB\..\.. /
//                          \..\..\..\Components\osal\include\ -I             /
//                          F:\work\iot-hardware\logger\logger\Projects\zstac /
//                          k\Samples\GenericApp\CC2530DB\..\..\..\..\..\Comp /
//                          onents\services\saddr\ -I                         /
//                          F:\work\iot-hardware\logger\logger\Projects\zstac /
//                          k\Samples\GenericApp\CC2530DB\..\..\..\..\..\Comp /
//                          onents\services\sdata\ -I                         /
//                          F:\work\iot-hardware\logger\logger\Projects\zstac /
//                          k\Samples\GenericApp\CC2530DB\..\..\..\..\..\Comp /
//                          onents\stack\af\ -I F:\work\iot-hardware\logger\l /
//                          ogger\Projects\zstack\Samples\GenericApp\CC2530DB /
//                          \..\..\..\..\..\Components\stack\nwk\ -I          /
//                          F:\work\iot-hardware\logger\logger\Projects\zstac /
//                          k\Samples\GenericApp\CC2530DB\..\..\..\..\..\Comp /
//                          onents\stack\sapi\ -I F:\work\iot-hardware\logger /
//                          \logger\Projects\zstack\Samples\GenericApp\CC2530 /
//                          DB\..\..\..\..\..\Components\stack\sec\ -I        /
//                          F:\work\iot-hardware\logger\logger\Projects\zstac /
//                          k\Samples\GenericApp\CC2530DB\..\..\..\..\..\Comp /
//                          onents\stack\sys\ -I F:\work\iot-hardware\logger\ /
//                          logger\Projects\zstack\Samples\GenericApp\CC2530D /
//                          B\..\..\..\..\..\Components\stack\zdo\ -I         /
//                          F:\work\iot-hardware\logger\logger\Projects\zstac /
//                          k\Samples\GenericApp\CC2530DB\..\..\..\..\..\Comp /
//                          onents\zmac\ -I F:\work\iot-hardware\logger\logge /
//                          r\Projects\zstack\Samples\GenericApp\CC2530DB\..\ /
//                          ..\..\..\..\Components\zmac\f8w\ -Ol              /
//                          --require_prototypes                              /
//    List file          =  F:\work\iot-hardware\logger\logger\Projects\zstac /
//                          k\Samples\GenericApp\CC2530DB\EndDeviceEB\List\ha /
//                          l_lcd.s51                                         /
//                                                                            /
//                                                                            /
///////////////////////////////////////////////////////////////////////////////

        NAME hal_lcd

        RTMODEL "__SystemLibrary", "CLib"
        RTMODEL "__calling_convention", "xdata_reentrant"
        RTMODEL "__code_model", "banked"
        RTMODEL "__core", "plain"
        RTMODEL "__data_model", "large"
        RTMODEL "__dptr_size", "16"
        RTMODEL "__extended_stack", "disabled"
        RTMODEL "__location_for_constants", "data"
        RTMODEL "__number_of_dptrs", "1"
        RTMODEL "__rt_version", "1"

        RSEG DOVERLAY:DATA:NOROOT(0)
        RSEG IOVERLAY:IDATA:NOROOT(0)
        RSEG ISTACK:IDATA:NOROOT(0)
        RSEG PSTACK:XDATA:NOROOT(0)
        RSEG XSTACK:XDATA:NOROOT(0)

        EXTERN ?ALLOC_XSTACK8
        EXTERN ?BANKED_ENTER_XDATA
        EXTERN ?BANKED_LEAVE_XDATA
        EXTERN ?BDISPATCH
        EXTERN ?BRET
        EXTERN ?DEALLOC_XSTACK8
        EXTERN ?PUSH_XSTACK_I_THREE
        EXTERN ?PUSH_XSTACK_I_TWO
        EXTERN ?V0
        EXTERN ?XSP
        EXTERN ?XSTACK_DISP0_8
        EXTERN __INIT_XDATA_Z

        PUBLIC ??DisplayByte_5x7?relay
        FUNCTION ??DisplayByte_5x7?relay,0203H
        PUBLIC ??HalLcdDisplayPercentBar?relay
        FUNCTION ??HalLcdDisplayPercentBar?relay,0203H
        PUBLIC ??HalLcdInit?relay
        FUNCTION ??HalLcdInit?relay,0203H
        PUBLIC ??HalLcdWriteScreen?relay
        FUNCTION ??HalLcdWriteScreen?relay,0203H
        PUBLIC ??HalLcdWriteString?relay
        FUNCTION ??HalLcdWriteString?relay,0203H
        PUBLIC ??HalLcdWriteStringValue?relay
        FUNCTION ??HalLcdWriteStringValue?relay,0203H
        PUBLIC ??HalLcdWriteStringValueValue?relay
        FUNCTION ??HalLcdWriteStringValueValue?relay,0203H
        PUBLIC ??HalLcdWriteValue?relay
        FUNCTION ??HalLcdWriteValue?relay,0203H
        PUBLIC ??HalLcd_HW_Clear?relay
        FUNCTION ??HalLcd_HW_Clear?relay,0203H
        PUBLIC ??HalLcd_HW_Control?relay
        FUNCTION ??HalLcd_HW_Control?relay,0203H
        PUBLIC ??HalLcd_HW_Init?relay
        FUNCTION ??HalLcd_HW_Init?relay,0203H
        PUBLIC ??HalLcd_HW_WaitUs?relay
        FUNCTION ??HalLcd_HW_WaitUs?relay,0203H
        PUBLIC ??HalLcd_HW_Write?relay
        FUNCTION ??HalLcd_HW_Write?relay,0203H
        PUBLIC ??HalLcd_HW_WriteChar?relay
        FUNCTION ??HalLcd_HW_WriteChar?relay,0203H
        PUBLIC ??HalLcd_HW_WriteLine?relay
        FUNCTION ??HalLcd_HW_WriteLine?relay,0203H
        FUNCTION ??halLcd_ConfigIO?relay,0203H
        PUBLIC ??set_ddram_line_col?relay
        FUNCTION ??set_ddram_line_col?relay,0203H
        PUBLIC DisplayByte_5x7
        FUNCTION DisplayByte_5x7,021203H
        ARGFRAME XSTACK, 9, STACK
        ARGFRAME IOVERLAY, 0, STATIC
        ARGFRAME DOVERLAY, 0, STATIC
        LOCFRAME XSTACK, 13, STACK
        PUBLIC HalLcdDisplayPercentBar
        FUNCTION HalLcdDisplayPercentBar,021203H
        ARGFRAME XSTACK, 0, STACK
        LOCFRAME XSTACK, 36, STACK
        PUBLIC HalLcdInit
        FUNCTION HalLcdInit,021203H
        ARGFRAME XSTACK, 0, STACK
        LOCFRAME ISTACK, 2, STACK
        PUBLIC HalLcdWriteScreen
        FUNCTION HalLcdWriteScreen,021203H
        ARGFRAME XSTACK, 0, STACK
        LOCFRAME XSTACK, 9, STACK
        PUBLIC HalLcdWriteString
        FUNCTION HalLcdWriteString,021203H
        ARGFRAME XSTACK, 46, STACK
        ARGFRAME IOVERLAY, 0, STATIC
        ARGFRAME DOVERLAY, 0, STATIC
        LOCFRAME XSTACK, 21, STACK
        PUBLIC HalLcdWriteStringValue
        FUNCTION HalLcdWriteStringValue,021203H
        ARGFRAME XSTACK, 1, STACK
        LOCFRAME XSTACK, 48, STACK
        PUBLIC HalLcdWriteStringValueValue
        FUNCTION HalLcdWriteStringValueValue,021203H
        ARGFRAME XSTACK, 4, STACK
        LOCFRAME XSTACK, 49, STACK
        PUBLIC HalLcdWriteValue
        FUNCTION HalLcdWriteValue,021203H
        ARGFRAME XSTACK, 1, STACK
        LOCFRAME XSTACK, 43, STACK
        PUBLIC HalLcd_HW_Clear
        FUNCTION HalLcd_HW_Clear,021203H
        ARGFRAME XSTACK, 0, STACK
        ARGFRAME IOVERLAY, 0, STATIC
        ARGFRAME DOVERLAY, 0, STATIC
        LOCFRAME XSTACK, 10, STACK
        PUBLIC HalLcd_HW_Control
        FUNCTION HalLcd_HW_Control,021203H
        ARGFRAME XSTACK, 12, STACK
        ARGFRAME IOVERLAY, 0, STATIC
        ARGFRAME DOVERLAY, 0, STATIC
        LOCFRAME XSTACK, 9, STACK
        PUBLIC HalLcd_HW_Init
        FUNCTION HalLcd_HW_Init,021203H
        ARGFRAME XSTACK, 0, STACK
        ARGFRAME IOVERLAY, 0, STATIC
        ARGFRAME DOVERLAY, 0, STATIC
        LOCFRAME ISTACK, 2, STACK
        PUBLIC HalLcd_HW_WaitUs
        FUNCTION HalLcd_HW_WaitUs,080203H
        ARGFRAME XSTACK, 12, STACK
        ARGFRAME IOVERLAY, 0, STATIC
        ARGFRAME DOVERLAY, 0, STATIC
        PUBLIC HalLcd_HW_Write
        FUNCTION HalLcd_HW_Write,0203H
        ARGFRAME XSTACK, 13, STACK
        ARGFRAME IOVERLAY, 0, STATIC
        ARGFRAME DOVERLAY, 0, STATIC
        PUBLIC HalLcd_HW_WriteChar
        FUNCTION HalLcd_HW_WriteChar,021203H
        ARGFRAME XSTACK, 11, STACK
        ARGFRAME IOVERLAY, 0, STATIC
        ARGFRAME DOVERLAY, 0, STATIC
        LOCFRAME XSTACK, 9, STACK
        PUBLIC HalLcd_HW_WriteLine
        FUNCTION HalLcd_HW_WriteLine,021203H
        ARGFRAME XSTACK, 18, STACK
        ARGFRAME IOVERLAY, 0, STATIC
        ARGFRAME DOVERLAY, 0, STATIC
        LOCFRAME XSTACK, 11, STACK
        PUBWEAK P0DIR
        PUBWEAK P0SEL
        PUBWEAK P1DIR
        PUBWEAK P1SEL
        PUBWEAK _A_P0
        PUBWEAK _A_P1
        PUBLIC ascii_table_5x7
        FUNCTION halLcd_ConfigIO,0203H
        ARGFRAME XSTACK, 0, STACK
        ARGFRAME IOVERLAY, 0, STATIC
        ARGFRAME DOVERLAY, 0, STATIC
        PUBLIC set_ddram_line_col
        FUNCTION set_ddram_line_col,021203H
        ARGFRAME XSTACK, 13, STACK
        ARGFRAME IOVERLAY, 0, STATIC
        ARGFRAME DOVERLAY, 0, STATIC
        LOCFRAME XSTACK, 12, STACK
        
        CFI Names cfiNames0
        CFI StackFrame CFA_SP SP IDATA
        CFI StackFrame CFA_PSP16 PSP16 XDATA
        CFI StackFrame CFA_XSP16 XSP16 XDATA
        CFI StaticOverlayFrame CFA_IOVERLAY IOVERLAY
        CFI StaticOverlayFrame CFA_DOVERLAY DOVERLAY
        CFI Resource `PSW.CY`:1, `B.BR0`:1, `B.BR1`:1, `B.BR2`:1, `B.BR3`:1
        CFI Resource `B.BR4`:1, `B.BR5`:1, `B.BR6`:1, `B.BR7`:1, `VB.BR8`:1
        CFI Resource `VB.BR9`:1, `VB.BR10`:1, `VB.BR11`:1, `VB.BR12`:1
        CFI Resource `VB.BR13`:1, `VB.BR14`:1, `VB.BR15`:1, VB:8, B:8, A:8
        CFI Resource PSW:8, DPL0:8, DPH0:8, R0:8, R1:8, R2:8, R3:8, R4:8, R5:8
        CFI Resource R6:8, R7:8, V0:8, V1:8, V2:8, V3:8, V4:8, V5:8, V6:8, V7:8
        CFI Resource V8:8, V9:8, V10:8, V11:8, V12:8, V13:8, V14:8, V15:8, SP:8
        CFI Resource PSPH:8, PSPL:8, PSP16:16, XSPH:8, XSPL:8, XSP16:16
        CFI VirtualResource ?RET:24
        CFI Resource ?BRET_EXT:8
        CFI VirtualResource ?RET_HIGH:8, ?RET_LOW:8
        CFI ResourceParts PSP16 PSPH, PSPL
        CFI ResourceParts XSP16 XSPH, XSPL
        CFI ResourceParts ?RET ?BRET_EXT, ?RET_HIGH, ?RET_LOW
        CFI EndNames cfiNames0
        
        CFI Common cfiCommon0 Using cfiNames0
        CFI CodeAlign 1
        CFI DataAlign -1
        CFI ReturnAddress ?RET CODE
        CFI CFA_DOVERLAY Used
        CFI CFA_IOVERLAY Used
        CFI CFA_SP SP+-3
        CFI CFA_PSP16 PSP16+0
        CFI CFA_XSP16 XSP16+0
        CFI `PSW.CY` SameValue
        CFI `B.BR0` SameValue
        CFI `B.BR1` SameValue
        CFI `B.BR2` SameValue
        CFI `B.BR3` SameValue
        CFI `B.BR4` SameValue
        CFI `B.BR5` SameValue
        CFI `B.BR6` SameValue
        CFI `B.BR7` SameValue
        CFI `VB.BR8` SameValue
        CFI `VB.BR9` SameValue
        CFI `VB.BR10` SameValue
        CFI `VB.BR11` SameValue
        CFI `VB.BR12` SameValue
        CFI `VB.BR13` SameValue
        CFI `VB.BR14` SameValue
        CFI `VB.BR15` SameValue
        CFI VB SameValue
        CFI B Undefined
        CFI A Undefined
        CFI PSW SameValue
        CFI DPL0 SameValue
        CFI DPH0 SameValue
        CFI R0 Undefined
        CFI R1 Undefined
        CFI R2 Undefined
        CFI R3 Undefined
        CFI R4 Undefined
        CFI R5 Undefined
        CFI R6 SameValue
        CFI R7 SameValue
        CFI V0 SameValue
        CFI V1 SameValue
        CFI V2 SameValue
        CFI V3 SameValue
        CFI V4 SameValue
        CFI V5 SameValue
        CFI V6 SameValue
        CFI V7 SameValue
        CFI V8 SameValue
        CFI V9 SameValue
        CFI V10 SameValue
        CFI V11 SameValue
        CFI V12 SameValue
        CFI V13 SameValue
        CFI V14 SameValue
        CFI V15 SameValue
        CFI PSPH Undefined
        CFI PSPL Undefined
        CFI XSPH Undefined
        CFI XSPL Undefined
        CFI ?RET Concat
        CFI ?BRET_EXT Frame(CFA_SP, 3)
        CFI ?RET_HIGH Frame(CFA_SP, 2)
        CFI ?RET_LOW Frame(CFA_SP, 1)
        CFI EndCommon cfiCommon0
        
osal_mem_alloc      SYMBOL "osal_mem_alloc"
osal_strlen         SYMBOL "osal_strlen"
osal_memcpy         SYMBOL "osal_memcpy"
debug_str           SYMBOL "debug_str"
osal_mem_free       SYMBOL "osal_mem_free"
_ltoa               SYMBOL "_ltoa"
??_ltoa?relay       SYMBOL "?relay", _ltoa
??debug_str?relay   SYMBOL "?relay", debug_str
??osal_mem_alloc?relay SYMBOL "?relay", osal_mem_alloc
??osal_mem_free?relay SYMBOL "?relay", osal_mem_free
??osal_memcpy?relay SYMBOL "?relay", osal_memcpy
??osal_strlen?relay SYMBOL "?relay", osal_strlen
DisplayByte_5x7     SYMBOL "DisplayByte_5x7"
??DisplayByte_5x7?relay SYMBOL "?relay", DisplayByte_5x7
HalLcdDisplayPercentBar SYMBOL "HalLcdDisplayPercentBar"
??HalLcdDisplayPercentBar?relay SYMBOL "?relay", HalLcdDisplayPercentBar
HalLcdInit          SYMBOL "HalLcdInit"
??HalLcdInit?relay  SYMBOL "?relay", HalLcdInit
HalLcdWriteScreen   SYMBOL "HalLcdWriteScreen"
??HalLcdWriteScreen?relay SYMBOL "?relay", HalLcdWriteScreen
HalLcdWriteString   SYMBOL "HalLcdWriteString"
??HalLcdWriteString?relay SYMBOL "?relay", HalLcdWriteString
HalLcdWriteStringValue SYMBOL "HalLcdWriteStringValue"
??HalLcdWriteStringValue?relay SYMBOL "?relay", HalLcdWriteStringValue
HalLcdWriteStringValueValue SYMBOL "HalLcdWriteStringValueValue"
??HalLcdWriteStringValueValue?relay SYMBOL "?relay", HalLcdWriteStringValueValue
HalLcdWriteValue    SYMBOL "HalLcdWriteValue"
??HalLcdWriteValue?relay SYMBOL "?relay", HalLcdWriteValue
HalLcd_HW_Clear     SYMBOL "HalLcd_HW_Clear"
??HalLcd_HW_Clear?relay SYMBOL "?relay", HalLcd_HW_Clear
HalLcd_HW_Control   SYMBOL "HalLcd_HW_Control"
??HalLcd_HW_Control?relay SYMBOL "?relay", HalLcd_HW_Control
HalLcd_HW_Init      SYMBOL "HalLcd_HW_Init"
??HalLcd_HW_Init?relay SYMBOL "?relay", HalLcd_HW_Init
HalLcd_HW_WaitUs    SYMBOL "HalLcd_HW_WaitUs"
??HalLcd_HW_WaitUs?relay SYMBOL "?relay", HalLcd_HW_WaitUs
HalLcd_HW_Write     SYMBOL "HalLcd_HW_Write"
??HalLcd_HW_Write?relay SYMBOL "?relay", HalLcd_HW_Write
HalLcd_HW_WriteChar SYMBOL "HalLcd_HW_WriteChar"
??HalLcd_HW_WriteChar?relay SYMBOL "?relay", HalLcd_HW_WriteChar
HalLcd_HW_WriteLine SYMBOL "HalLcd_HW_WriteLine"
??HalLcd_HW_WriteLine?relay SYMBOL "?relay", HalLcd_HW_WriteLine
set_ddram_line_col  SYMBOL "set_ddram_line_col"
??set_ddram_line_col?relay SYMBOL "?relay", set_ddram_line_col

        EXTERN osal_mem_alloc
        FUNCTION osal_mem_alloc,0202H
        ARGFRAME ISTACK, 0, STACK
        ARGFRAME PSTACK, 0, STACK
        ARGFRAME XSTACK, 18, STACK
        ARGFRAME IOVERLAY, 0, STATIC
        ARGFRAME DOVERLAY, 0, STATIC
        EXTERN osal_strlen
        FUNCTION osal_strlen,0202H
        ARGFRAME ISTACK, 0, STACK
        ARGFRAME PSTACK, 0, STACK
        ARGFRAME XSTACK, 46, STACK
        ARGFRAME IOVERLAY, 0, STATIC
        ARGFRAME DOVERLAY, 0, STATIC
        EXTERN osal_memcpy
        FUNCTION osal_memcpy,0202H
        ARGFRAME ISTACK, 0, STACK
        ARGFRAME PSTACK, 0, STACK
        ARGFRAME XSTACK, 49, STACK
        ARGFRAME IOVERLAY, 0, STATIC
        ARGFRAME DOVERLAY, 0, STATIC
        EXTERN debug_str
        FUNCTION debug_str,0202H
        ARGFRAME ISTACK, 0, STACK
        ARGFRAME PSTACK, 0, STACK
        ARGFRAME XSTACK, 18, STACK
        ARGFRAME IOVERLAY, 0, STATIC
        ARGFRAME DOVERLAY, 0, STATIC
        EXTERN osal_mem_free
        FUNCTION osal_mem_free,0202H
        ARGFRAME ISTACK, 0, STACK
        ARGFRAME PSTACK, 0, STACK
        ARGFRAME XSTACK, 18, STACK
        ARGFRAME IOVERLAY, 0, STATIC
        ARGFRAME DOVERLAY, 0, STATIC
        EXTERN _ltoa
        FUNCTION _ltoa,0202H
        ARGFRAME ISTACK, 0, STACK
        ARGFRAME PSTACK, 0, STACK
        ARGFRAME XSTACK, 48, STACK
        ARGFRAME IOVERLAY, 0, STATIC
        ARGFRAME DOVERLAY, 0, STATIC
        EXTERN ??_ltoa?relay
        FUNCTION ??_ltoa?relay,00H
        EXTERN ??debug_str?relay
        FUNCTION ??debug_str?relay,00H
        EXTERN ??osal_mem_alloc?relay
        FUNCTION ??osal_mem_alloc?relay,00H
        EXTERN ??osal_mem_free?relay
        FUNCTION ??osal_mem_free?relay,00H
        EXTERN ??osal_memcpy?relay
        FUNCTION ??osal_memcpy?relay,00H
        EXTERN ??osal_strlen?relay
        FUNCTION ??osal_strlen?relay,00H

// F:\work\iot-hardware\logger\logger\Components\hal\target\CC2530EB\hal_lcd.c
//    1 /**************************************************************************************************
//    2   Filename:       hal_lcd.c
//    3   Revised:        $Date: 2012-08-03 14:28:46 -0700 (Fri, 03 Aug 2012) $
//    4   Revision:       $Revision: 31092 $
//    5 
//    6   Description:    This file contains the interface to the HAL LCD Service.
//    7 
//    8 
//    9   Copyright 2007 - 2010 Texas Instruments Incorporated. All rights reserved.
//   10 
//   11   IMPORTANT: Your use of this Software is limited to those specific rights
//   12   granted under the terms of a software license agreement between the user
//   13   who downloaded the software, his/her employer (which must be your employer)
//   14   and Texas Instruments Incorporated (the "License").  You may not use this
//   15   Software unless you agree to abide by the terms of the License. The License
//   16   limits your use, and you acknowledge, that the Software may not be modified,
//   17   copied or distributed unless embedded on a Texas Instruments microcontroller
//   18   or used solely and exclusively in conjunction with a Texas Instruments radio
//   19   frequency transceiver, which is integrated into your product.  Other than for
//   20   the foregoing purpose, you may not use, reproduce, copy, prepare derivative
//   21   works of, modify, distribute, perform, display or sell this Software and/or
//   22   its documentation for any purpose.
//   23 
//   24   YOU FURTHER ACKNOWLEDGE AND AGREE THAT THE SOFTWARE AND DOCUMENTATION ARE
//   25   PROVIDED AS IS?WITHOUT WARRANTY OF ANY KIND, EITHER EXPRESS OR IMPLIED,
//   26   INCLUDING WITHOUT LIMITATION, ANY WARRANTY OF MERCHANTABILITY, TITLE,
//   27   NON-INFRINGEMENT AND FITNESS FOR A PARTICULAR PURPOSE. IN NO EVENT SHALL
//   28   TEXAS INSTRUMENTS OR ITS LICENSORS BE LIABLE OR OBLIGATED UNDER CONTRACT,
//   29   NEGLIGENCE, STRICT LIABILITY, CONTRIBUTION, BREACH OF WARRANTY, OR OTHER
//   30   LEGAL EQUITABLE THEORY ANY DIRECT OR INDIRECT DAMAGES OR EXPENSES
//   31   INCLUDING BUT NOT LIMITED TO ANY INCIDENTAL, SPECIAL, INDIRECT, PUNITIVE
//   32   OR CONSEQUENTIAL DAMAGES, LOST PROFITS OR LOST DATA, COST OF PROCUREMENT
//   33   OF SUBSTITUTE GOODS, TECHNOLOGY, SERVICES, OR ANY CLAIMS BY THIRD PARTIES
//   34   (INCLUDING BUT NOT LIMITED TO ANY DEFENSE THEREOF), OR OTHER SIMILAR COSTS.
//   35 
//   36   Should you have any questions regarding your right to use this Software,
//   37   contact Texas Instruments Incorporated at www.TI.com.
//   38 **************************************************************************************************/
//   39 
//   40 /**************************************************************************************************
//   41  *                                           INCLUDES
//   42  **************************************************************************************************/
//   43 #include "hal_types.h"
//   44 #include "hal_lcd.h"

        ASEGN SFR_AN:DATA:NOROOT,080H
// union <unnamed> volatile __sfr _A_P0
_A_P0:
        DATA8
        DS 1

        ASEGN SFR_AN:DATA:NOROOT,090H
// union <unnamed> volatile __sfr _A_P1
_A_P1:
        DATA8
        DS 1

        ASEGN SFR_AN:DATA:NOROOT,0f3H
// unsigned char volatile __sfr P0SEL
P0SEL:
        DATA8
        DS 1

        ASEGN SFR_AN:DATA:NOROOT,0f4H
// unsigned char volatile __sfr P1SEL
P1SEL:
        DATA8
        DS 1

        ASEGN SFR_AN:DATA:NOROOT,0fdH
// unsigned char volatile __sfr P0DIR
P0DIR:
        DATA8
        DS 1

        ASEGN SFR_AN:DATA:NOROOT,0feH
// unsigned char volatile __sfr P1DIR
P1DIR:
        DATA8
        DS 1
//   45 #include "OSAL.h"
//   46 #include "OnBoard.h"
//   47 #include "hal_assert.h"
//   48 
//   49 //下面一行是我加的
//   50 __code const uint8 ascii_table_5x7[][5];
//   51 
//   52 #if defined (ZTOOL_P1) || defined (ZTOOL_P2)
//   53   #include "DebugTrace.h"
//   54 #endif
//   55 
//   56 /**************************************************************************************************
//   57  *                                          CONSTANTS
//   58  **************************************************************************************************/
//   59 /*
//   60   LCD pins
//   61 
//   62   //control
//   63   P0.0 - LCD_MODE
//   64   P1.1 - LCD_FLASH_RESET
//   65   P1.2 - LCD_CS
//   66 
//   67   //spi
//   68   P1.5 - CLK
//   69   P1.6 - MOSI
//   70   P1.7 - MISO
//   71 */
//   72 
//   73 /* LCD Max Chars and Buffer */
//   74 #define HAL_LCD_MAX_CHARS   16
//   75 #define HAL_LCD_MAX_BUFF    25
//   76 
//   77 /* LCD Control lines */
//   78 #define HAL_LCD_MODE_PORT 0
//   79 #define HAL_LCD_MODE_PIN  0
//   80 
//   81 #define HAL_LCD_RESET_PORT 1
//   82 #define HAL_LCD_RESET_PIN  1
//   83 
//   84 #define HAL_LCD_CS_PORT 1
//   85 #define HAL_LCD_CS_PIN  2
//   86 
//   87 /* LCD SPI lines */
//   88 #define HAL_LCD_CLK_PORT 1
//   89 #define HAL_LCD_CLK_PIN  5
//   90 
//   91 #define HAL_LCD_MOSI_PORT 1
//   92 #define HAL_LCD_MOSI_PIN  6
//   93 
//   94 #define HAL_LCD_MISO_PORT 1
//   95 #define HAL_LCD_MISO_PIN  7
//   96 
//   97 /* SPI settings */
//   98 #define HAL_SPI_CLOCK_POL_LO       0x00
//   99 #define HAL_SPI_CLOCK_PHA_0        0x00
//  100 #define HAL_SPI_TRANSFER_MSB_FIRST 0x20
//  101 
//  102 /* LCD lines */
//  103 #define LCD_MAX_LINE_COUNT              8
//  104 
//  105 /* Defines for HW LCD */
//  106 
//  107 /* Set power save mode */
//  108 #define OSC_OFF                         0x00
//  109 #define OSC_ON                          0x01
//  110 #define POWER_SAVE_OFF                  0x00
//  111 #define POWER_SAVE_ON                   0x02
//  112 #define SET_POWER_SAVE_MODE(options)    HalLcd_HW_Control(0x0C | (options))
//  113 
//  114 /* Function Set */
//  115 #define CGROM                           0x00
//  116 #define CGRAM                           0x01
//  117 #define COM_FORWARD                     0x00
//  118 #define COM_BACKWARD                    0x02
//  119 #define TWO_LINE                        0x00
//  120 #define THREE_LINE                      0x04
//  121 #define FUNCTION_SET(options)           HalLcd_HW_Control(0x10 | (options))
//  122 
//  123 /* Set Display Start Line */
//  124 #define LINE1                           0x00
//  125 #define LINE2                           0x01
//  126 #define LINE3                           0x02
//  127 #define LINE4                           0x03
//  128 #define SET_DISPLAY_START_LINE(line)    HalLcd_HW_Control(0x18 | (line))
//  129 
//  130 /* Bias control */
//  131 #define BIAS_1_5                        0x00
//  132 #define BIAS_1_4                        0x01
//  133 #define SET_BIAS_CTRL(bias)             HalLcd_HW_Control(0x1C | (bias))
//  134 
//  135 /* Power control */
//  136 #define VOLTAGE_DIVIDER_OFF             0x00
//  137 #define VOLTAGE_DIVIDER_ON              0x01
//  138 #define CONVERTER_AND_REG_OFF           0x00
//  139 #define CONVERTER_AND_REG_ON            0x04
//  140 #define SET_POWER_CTRL(options)         HalLcd_HW_Control(0x20 | (options))
//  141 
//  142 // Set display control
//  143 #define DISPLAY_CTRL_ON                 0x01
//  144 #define DISPLAY_CTRL_OFF                0x00
//  145 #define DISPLAY_CTRL_BLINK_ON           0x02
//  146 #define DISPLAY_CTRL_BLINK_OFF          0x00
//  147 #define DISPLAY_CTRL_CURSOR_ON          0x04
//  148 #define DISPLAY_CTRL_CURSOR_OFF         0x00
//  149 #define SET_DISPLAY_CTRL(options)       HalLcd_HW_Control(0x28 | (options))
//  150 
//  151 /* Set DD/ CGRAM address */
//  152 #define SET_DDRAM_ADDR(charIndex)       HalLcd_HW_Control(0x80 | (charIndex))
//  153 #define SET_GCRAM_CHAR(specIndex)       HalLcd_HW_Control(0xC0 | (specIndex))
//  154 
//  155 /* Set ICONRAM address */
//  156 #define CONTRAST_CTRL_REGISTER          0x10
//  157 #define SET_ICONRAM_ADDR(addr)          HalLcd_HW_Control(0x40 | (addr))
//  158 
//  159 /* Set double height */
//  160 #define LINE_1_AND_2                    0x01
//  161 #define LINE_2_AND_3                    0x02
//  162 #define NORMAL_DISPLAY                  0x00
//  163 #define SET_DOUBLE_HEIGHT(options)      HalLcd_HW_Control(0x08 | (options))
//  164 
//  165 /**************************************************************************************************
//  166  *                                           MACROS
//  167  **************************************************************************************************/
//  168 
//  169 #define HAL_IO_SET(port, pin, val)        HAL_IO_SET_PREP(port, pin, val)
//  170 #define HAL_IO_SET_PREP(port, pin, val)   st( P##port##_##pin## = val; )
//  171 
//  172 #define HAL_CONFIG_IO_OUTPUT(port, pin, val)      HAL_CONFIG_IO_OUTPUT_PREP(port, pin, val)
//  173 #define HAL_CONFIG_IO_OUTPUT_PREP(port, pin, val) st( P##port##SEL &= ~BV(pin); \ 
//  174                                                       P##port##_##pin## = val; \ 
//  175                                                       P##port##DIR |= BV(pin); )
//  176 
//  177 #define HAL_CONFIG_IO_PERIPHERAL(port, pin)      HAL_CONFIG_IO_PERIPHERAL_PREP(port, pin)
//  178 #define HAL_CONFIG_IO_PERIPHERAL_PREP(port, pin) st( P##port##SEL |= BV(pin); )
//  179 
//  180 
//  181 
//  182 /* SPI interface control */
//  183 #define LCD_SPI_BEGIN()     HAL_IO_SET(HAL_LCD_CS_PORT,  HAL_LCD_CS_PIN,  0); /* chip select */
//  184 #define LCD_SPI_END()                                                         \ 
//  185 {                                                                             \ 
//  186   asm("NOP");                                                                 \ 
//  187   asm("NOP");                                                                 \ 
//  188   asm("NOP");                                                                 \ 
//  189   asm("NOP");                                                                 \ 
//  190   HAL_IO_SET(HAL_LCD_CS_PORT,  HAL_LCD_CS_PIN,  1); /* chip select */         \ 
//  191 }
//  192 /* clear the received and transmit byte status, write tx data to buffer, wait till transmit done */
//  193 #define LCD_SPI_TX(x)                   { U1CSR &= ~(BV(2) | BV(1)); U1DBUF = x; while( !(U1CSR & BV(1)) ); }
//  194 #define LCD_SPI_WAIT_RXRDY()            { while(!(U1CSR & BV(1))); }
//  195 
//  196 
//  197 /* Control macros */
//  198 #define LCD_DO_WRITE()        HAL_IO_SET(HAL_LCD_MODE_PORT,  HAL_LCD_MODE_PIN,  1);
//  199 #define LCD_DO_CONTROL()      HAL_IO_SET(HAL_LCD_MODE_PORT,  HAL_LCD_MODE_PIN,  0);
//  200 
//  201 #define LCD_ACTIVATE_RESET()  HAL_IO_SET(HAL_LCD_RESET_PORT, HAL_LCD_RESET_PIN, 0);
//  202 #define LCD_RELEASE_RESET()   HAL_IO_SET(HAL_LCD_RESET_PORT, HAL_LCD_RESET_PIN, 1);
//  203 
//  204 
//  205 /**************************************************************************************************
//  206  *                                       GLOBAL VARIABLES
//  207  **************************************************************************************************/
//  208 #if (HAL_LCD == TRUE)

        RSEG XDATA_Z:XDATA:NOROOT(0)
        DATA16
//  209 static uint8 *Lcd_Line1;
Lcd_Line1:
        DS 2
        REQUIRE __INIT_XDATA_Z
//  210 #endif //LCD
//  211 
//  212 /**************************************************************************************************
//  213  *                                       FUNCTIONS - API
//  214  **************************************************************************************************/
//  215 #if (HAL_LCD == TRUE)
//  216 void HalLcd_HW_Init(void);
//  217 void HalLcd_HW_WaitUs(uint16 i);
//  218 void HalLcd_HW_Clear(void);
//  219 void HalLcd_HW_ClearAllSpecChars(void);
//  220 void HalLcd_HW_Control(uint8 cmd);
//  221 void HalLcd_HW_Write(uint8 data);
//  222 void HalLcd_HW_SetContrast(uint8 value);
//  223 void HalLcd_HW_WriteChar(uint8 line, uint8 col, char text);
//  224 void HalLcd_HW_WriteLine(uint8 line, const char *pText);
//  225 
//  226 void set_ddram_line_col(uint8 line,uint8 col);
//  227 void DisplayByte_5x7(uint8 page,uint8 column,char text);
//  228 #endif //LCD
//  229 
//  230 /**************************************************************************************************
//  231  * @fn      HalLcdInit
//  232  *
//  233  * @brief   Initilize LCD Service
//  234  *
//  235  * @param   None
//  236  *
//  237  * @return  None
//  238  **************************************************************************************************/

        RSEG BANKED_CODE:CODE:NOROOT(0)
//  239 void HalLcdInit(void)
HalLcdInit:
        CFI Block cfiBlock0 Using cfiCommon0
        CFI Function HalLcdInit
        CODE
//  240 {
        FUNCALL HalLcdInit, HalLcd_HW_Init
        LOCFRAME ISTACK, 2, STACK
        LOCFRAME PSTACK, 0, STACK
        LOCFRAME XSTACK, 0, STACK
        LOCFRAME IOVERLAY, 0, STATIC
        LOCFRAME DOVERLAY, 0, STATIC
        ARGFRAME ISTACK, 2, STACK
        ARGFRAME PSTACK, 0, STACK
        ARGFRAME XSTACK, 0, STACK
        ARGFRAME IOVERLAY, 0, STATIC
        ARGFRAME DOVERLAY, 0, STATIC
        PUSH    DPL
        CFI DPL0 Frame(CFA_SP, 4)
        CFI CFA_SP SP+-4
        PUSH    DPH
        CFI DPH0 Frame(CFA_SP, 5)
        CFI CFA_SP SP+-5
        ; Saved register size: 2
        ; Auto size: 0
//  241 #if (HAL_LCD == TRUE)
//  242   Lcd_Line1 = NULL;
        MOV     DPTR,#Lcd_Line1
        MOV     A,#0x0
        MOVX    @DPTR,A
        INC     DPTR
        MOV     A,#0x0
        MOVX    @DPTR,A
//  243   HalLcd_HW_Init();
        ; Setup parameters for call to function HalLcd_HW_Init
        LCALL   ??HalLcd_HW_Init?relay
//  244 #endif
//  245 }
        POP     DPH
        CFI DPH0 SameValue
        CFI CFA_SP SP+-4
        POP     DPL
        CFI DPL0 SameValue
        CFI CFA_SP SP+-3
        LJMP    ?BRET
        CFI EndBlock cfiBlock0
//  246 
//  247 /*************************************************************************************************
//  248  *                    LCD EMULATION FUNCTIONS
//  249  *
//  250  * Some evaluation boards are equipped with Liquid Crystal Displays
//  251  * (LCD) which may be used to display diagnostic information. These
//  252  * functions provide LCD emulation, sending the diagnostic strings
//  253  * to Z-Tool via the RS232 serial port. These functions are enabled
//  254  * when the "LCD_SUPPORTED" compiler flag is placed in the makefile.
//  255  *
//  256  * Most applications update both lines (1 and 2) of the LCD whenever
//  257  * text is posted to the device. This emulator assumes that line 1 is
//  258  * updated first (saved locally) and the formatting and send operation
//  259  * is triggered by receipt of line 2. Nothing will be transmitted if
//  260  * only line 1 is updated.
//  261  *
//  262  *************************************************************************************************/
//  263 
//  264 
//  265 /**************************************************************************************************
//  266  * @fn      HalLcdWriteString
//  267  *
//  268  * @brief   Write a string to the LCD
//  269  *
//  270  * @param   str    - pointer to the string that will be displayed
//  271  *          option - display options
//  272  *
//  273  * @return  None
//  274  **************************************************************************************************/

        RSEG BANKED_CODE:CODE:NOROOT(0)
//  275 void HalLcdWriteString ( char *str, uint8 option)
HalLcdWriteString:
        CFI Block cfiBlock1 Using cfiCommon0
        CFI Function HalLcdWriteString
        CODE
//  276 {
        FUNCALL HalLcdWriteString, osal_mem_alloc
        LOCFRAME ISTACK, 0, STACK
        LOCFRAME PSTACK, 0, STACK
        LOCFRAME XSTACK, 18, STACK
        LOCFRAME IOVERLAY, 0, STATIC
        LOCFRAME DOVERLAY, 0, STATIC
        ARGFRAME ISTACK, 0, STACK
        ARGFRAME PSTACK, 0, STACK
        ARGFRAME XSTACK, 18, STACK
        ARGFRAME IOVERLAY, 0, STATIC
        ARGFRAME DOVERLAY, 0, STATIC
        FUNCALL HalLcdWriteString, HalLcdWriteString
        LOCFRAME ISTACK, 0, STACK
        LOCFRAME PSTACK, 0, STACK
        LOCFRAME XSTACK, 18, STACK
        LOCFRAME IOVERLAY, 0, STATIC
        LOCFRAME DOVERLAY, 0, STATIC
        ARGFRAME ISTACK, 0, STACK
        ARGFRAME PSTACK, 0, STACK
        ARGFRAME XSTACK, 18, STACK
        ARGFRAME IOVERLAY, 0, STATIC
        ARGFRAME DOVERLAY, 0, STATIC
        FUNCALL HalLcdWriteString, osal_strlen
        LOCFRAME ISTACK, 0, STACK
        LOCFRAME PSTACK, 0, STACK
        LOCFRAME XSTACK, 18, STACK
        LOCFRAME IOVERLAY, 0, STATIC
        LOCFRAME DOVERLAY, 0, STATIC
        ARGFRAME ISTACK, 0, STACK
        ARGFRAME PSTACK, 0, STACK
        ARGFRAME XSTACK, 18, STACK
        ARGFRAME IOVERLAY, 0, STATIC
        ARGFRAME DOVERLAY, 0, STATIC
        FUNCALL HalLcdWriteString, osal_memcpy
        LOCFRAME ISTACK, 0, STACK
        LOCFRAME PSTACK, 0, STACK
        LOCFRAME XSTACK, 21, STACK
        LOCFRAME IOVERLAY, 0, STATIC
        LOCFRAME DOVERLAY, 0, STATIC
        ARGFRAME ISTACK, 0, STACK
        ARGFRAME PSTACK, 0, STACK
        ARGFRAME XSTACK, 21, STACK
        ARGFRAME IOVERLAY, 0, STATIC
        ARGFRAME DOVERLAY, 0, STATIC
        FUNCALL HalLcdWriteString, osal_strlen
        LOCFRAME ISTACK, 0, STACK
        LOCFRAME PSTACK, 0, STACK
        LOCFRAME XSTACK, 18, STACK
        LOCFRAME IOVERLAY, 0, STATIC
        LOCFRAME DOVERLAY, 0, STATIC
        ARGFRAME ISTACK, 0, STACK
        ARGFRAME PSTACK, 0, STACK
        ARGFRAME XSTACK, 18, STACK
        ARGFRAME IOVERLAY, 0, STATIC
        ARGFRAME DOVERLAY, 0, STATIC
        FUNCALL HalLcdWriteString, osal_mem_alloc
        LOCFRAME ISTACK, 0, STACK
        LOCFRAME PSTACK, 0, STACK
        LOCFRAME XSTACK, 18, STACK
        LOCFRAME IOVERLAY, 0, STATIC
        LOCFRAME DOVERLAY, 0, STATIC
        ARGFRAME ISTACK, 0, STACK
        ARGFRAME PSTACK, 0, STACK
        ARGFRAME XSTACK, 18, STACK
        ARGFRAME IOVERLAY, 0, STATIC
        ARGFRAME DOVERLAY, 0, STATIC
        FUNCALL HalLcdWriteString, osal_memcpy
        LOCFRAME ISTACK, 0, STACK
        LOCFRAME PSTACK, 0, STACK
        LOCFRAME XSTACK, 21, STACK
        LOCFRAME IOVERLAY, 0, STATIC
        LOCFRAME DOVERLAY, 0, STATIC
        ARGFRAME ISTACK, 0, STACK
        ARGFRAME PSTACK, 0, STACK
        ARGFRAME XSTACK, 21, STACK
        ARGFRAME IOVERLAY, 0, STATIC
        ARGFRAME DOVERLAY, 0, STATIC
        FUNCALL HalLcdWriteString, osal_memcpy
        LOCFRAME ISTACK, 0, STACK
        LOCFRAME PSTACK, 0, STACK
        LOCFRAME XSTACK, 21, STACK
        LOCFRAME IOVERLAY, 0, STATIC
        LOCFRAME DOVERLAY, 0, STATIC
        ARGFRAME ISTACK, 0, STACK
        ARGFRAME PSTACK, 0, STACK
        ARGFRAME XSTACK, 21, STACK
        ARGFRAME IOVERLAY, 0, STATIC
        ARGFRAME DOVERLAY, 0, STATIC
        FUNCALL HalLcdWriteString, debug_str
        LOCFRAME ISTACK, 0, STACK
        LOCFRAME PSTACK, 0, STACK
        LOCFRAME XSTACK, 18, STACK
        LOCFRAME IOVERLAY, 0, STATIC
        LOCFRAME DOVERLAY, 0, STATIC
        ARGFRAME ISTACK, 0, STACK
        ARGFRAME PSTACK, 0, STACK
        ARGFRAME XSTACK, 18, STACK
        ARGFRAME IOVERLAY, 0, STATIC
        ARGFRAME DOVERLAY, 0, STATIC
        FUNCALL HalLcdWriteString, osal_mem_free
        LOCFRAME ISTACK, 0, STACK
        LOCFRAME PSTACK, 0, STACK
        LOCFRAME XSTACK, 18, STACK
        LOCFRAME IOVERLAY, 0, STATIC
        LOCFRAME DOVERLAY, 0, STATIC
        ARGFRAME ISTACK, 0, STACK
        ARGFRAME PSTACK, 0, STACK
        ARGFRAME XSTACK, 18, STACK
        ARGFRAME IOVERLAY, 0, STATIC
        ARGFRAME DOVERLAY, 0, STATIC
        FUNCALL HalLcdWriteString, HalLcd_HW_WriteLine
        LOCFRAME ISTACK, 0, STACK
        LOCFRAME PSTACK, 0, STACK
        LOCFRAME XSTACK, 18, STACK
        LOCFRAME IOVERLAY, 0, STATIC
        LOCFRAME DOVERLAY, 0, STATIC
        ARGFRAME ISTACK, 0, STACK
        ARGFRAME PSTACK, 0, STACK
        ARGFRAME XSTACK, 18, STACK
        ARGFRAME IOVERLAY, 0, STATIC
        ARGFRAME DOVERLAY, 0, STATIC
        MOV     A,#-0x12
        LCALL   ?BANKED_ENTER_XDATA
        CFI DPH0 load(1, XDATA, add(CFA_XSP16, literal(-1)))
        CFI DPL0 load(1, XDATA, add(CFA_XSP16, literal(-2)))
        CFI ?BRET_EXT load(1, XDATA, add(CFA_XSP16, literal(-3)))
        CFI ?RET_HIGH load(1, XDATA, add(CFA_XSP16, literal(-4)))
        CFI ?RET_LOW load(1, XDATA, add(CFA_XSP16, literal(-5)))
        CFI R7 load(1, XDATA, add(CFA_XSP16, literal(-6)))
        CFI V9 load(1, XDATA, add(CFA_XSP16, literal(-7)))
        CFI V8 load(1, XDATA, add(CFA_XSP16, literal(-8)))
        CFI V7 load(1, XDATA, add(CFA_XSP16, literal(-9)))
        CFI V6 load(1, XDATA, add(CFA_XSP16, literal(-10)))
        CFI V5 load(1, XDATA, add(CFA_XSP16, literal(-11)))
        CFI V4 load(1, XDATA, add(CFA_XSP16, literal(-12)))
        CFI V3 load(1, XDATA, add(CFA_XSP16, literal(-13)))
        CFI V2 load(1, XDATA, add(CFA_XSP16, literal(-14)))
        CFI V1 load(1, XDATA, add(CFA_XSP16, literal(-15)))
        CFI V0 load(1, XDATA, add(CFA_XSP16, literal(-16)))
        CFI VB load(1, XDATA, add(CFA_XSP16, literal(-17)))
        CFI R6 load(1, XDATA, add(CFA_XSP16, literal(-18)))
        CFI CFA_SP SP+0
        CFI CFA_XSP16 add(XSP16, 18)
        ; Saved register size: 18
        ; Auto size: 0
        MOV     ?V0 + 8,R2
        MOV     ?V0 + 9,R3
        MOV     ?V0 + 2,R1
//  277 #if (HAL_LCD == TRUE)
//  278 
//  279   uint8 strLen = 0;
        MOV     ?V0 + 1,#0x0
//  280   uint8 totalLen = 0;
        MOV     ?V0 + 4,#0x0
//  281   uint8 *buf;
//  282   uint8 tmpLen;
//  283 
//  284   if ( Lcd_Line1 == NULL )
        MOV     DPTR,#Lcd_Line1
        MOVX    A,@DPTR
        MOV     R0,A
        INC     DPTR
        MOVX    A,@DPTR
        MOV     R1,A
        MOV     A,R0
        ORL     A,R1
        JNZ     ??HalLcdWriteString_0
//  285   {
//  286     Lcd_Line1 = osal_mem_alloc( HAL_LCD_MAX_CHARS+1 );
        ; Setup parameters for call to function osal_mem_alloc
        MOV     R2,#0x11
        MOV     R3,#0x0
        LCALL   ??osal_mem_alloc?relay
        MOV     DPTR,#Lcd_Line1
        MOV     A,R2
        MOVX    @DPTR,A
        INC     DPTR
        MOV     A,R3
        MOVX    @DPTR,A
//  287     HalLcdWriteString( "Texas Instruments", 1 );
        ; Setup parameters for call to function HalLcdWriteString
        MOV     R1,#0x1
        MOV     R2,#`?<Constant "Texas Instruments">` & 0xff
        MOV     R3,#(`?<Constant "Texas Instruments">` >> 8) & 0xff
        LCALL   ??HalLcdWriteString?relay
//  288   }
//  289 
//  290   strLen = (uint8)osal_strlen( (char*)str );
??HalLcdWriteString_0:
        ; Setup parameters for call to function osal_strlen
        MOV     R2,?V0 + 8
        MOV     R3,?V0 + 9
        LCALL   ??osal_strlen?relay
        MOV     A,R2
        MOV     ?V0 + 1,A
//  291 
//  292   /* Check boundries */
//  293   if ( strLen > HAL_LCD_MAX_CHARS )
        MOV     A,?V0 + 1
        CLR     C
        SUBB    A,#0x11
        JC      ??HalLcdWriteString_1
//  294     strLen = HAL_LCD_MAX_CHARS;
        MOV     ?V0 + 1,#0x10
//  295 
//  296   if ( option == HAL_LCD_LINE_1 )
??HalLcdWriteString_1:
        MOV     A,#0x1
        XRL     A,?V0 + 2
        JNZ     ??HalLcdWriteString_2
//  297   {
//  298     /* Line 1 gets saved for later */
//  299     osal_memcpy( Lcd_Line1, str, strLen );
        ; Setup parameters for call to function osal_memcpy
        MOV     ?V0 + 4,?V0 + 8
        MOV     ?V0 + 5,?V0 + 9
        MOV     ?V0 + 6,#0x0
        MOV     R0,#?V0 + 4
        LCALL   ?PUSH_XSTACK_I_THREE
        CFI CFA_XSP16 add(XSP16, 21)
        MOV     ?V0 + 0,?V0 + 1
        MOV     ?V0 + 4,?V0 + 0
        MOV     ?V0 + 5,#0x0
        MOV     R4,?V0 + 4
        MOV     R5,?V0 + 5
        MOV     DPTR,#Lcd_Line1
        MOVX    A,@DPTR
        MOV     R2,A
        INC     DPTR
        MOVX    A,@DPTR
        MOV     R3,A
        LCALL   ??osal_memcpy?relay
        MOV     A,#0x3
        LCALL   ?DEALLOC_XSTACK8
        CFI CFA_XSP16 add(XSP16, 18)
//  300     Lcd_Line1[strLen] = '\0';
        MOV     A,?V0 + 1
        MOV     R0,?V0 + 1
        MOV     R1,#0x0
        MOV     DPTR,#Lcd_Line1
        MOVX    A,@DPTR
        ADD     A,R0
        MOV     R2,A
        INC     DPTR
        MOVX    A,@DPTR
        ADDC    A,R1
        MOV     DPL,R2
        MOV     DPH,A
        MOV     A,#0x0
        MOVX    @DPTR,A
        LJMP    ??HalLcdWriteString_3 & 0xFFFF
//  301   }
//  302   else
//  303   {
//  304     /* Line 2 triggers action */
//  305     tmpLen = (uint8)osal_strlen( (char*)Lcd_Line1 );
??HalLcdWriteString_2:
        ; Setup parameters for call to function osal_strlen
        MOV     DPTR,#Lcd_Line1
        MOVX    A,@DPTR
        MOV     R2,A
        INC     DPTR
        MOVX    A,@DPTR
        MOV     R3,A
        LCALL   ??osal_strlen?relay
        MOV     A,R2
        MOV     ?V0 + 0,A
//  306     totalLen =  tmpLen + 1 + strLen + 1;
        MOV     A,?V0 + 0
        ADD     A,?V0 + 1
        ADD     A,#0x2
        MOV     ?V0 + 4,A
//  307     buf = osal_mem_alloc( totalLen );
        ; Setup parameters for call to function osal_mem_alloc
        MOV     ?V0 + 5,#0x0
        MOV     R2,?V0 + 4
        MOV     R3,?V0 + 5
        LCALL   ??osal_mem_alloc?relay
        MOV     ?V0 + 4,R2
        MOV     ?V0 + 5,R3
        MOV     R6,?V0 + 4
        MOV     R7,?V0 + 5
//  308     if ( buf != NULL )
        MOV     A,R6
        ORL     A,R7
        JNZ     $+5
        LJMP    ??HalLcdWriteString_3 & 0xFFFF
//  309     {
//  310       /* Concatenate strings */
//  311       osal_memcpy( buf, Lcd_Line1, tmpLen );
        ; Setup parameters for call to function osal_memcpy
        MOV     DPTR,#Lcd_Line1
        MOVX    A,@DPTR
        MOV     ?V0 + 4,A
        INC     DPTR
        MOVX    A,@DPTR
        MOV     ?V0 + 5,A
        MOV     ?V0 + 6,#0x0
        MOV     R0,#?V0 + 4
        LCALL   ?PUSH_XSTACK_I_THREE
        CFI CFA_XSP16 add(XSP16, 21)
        MOV     ?V0 + 4,?V0 + 0
        MOV     ?V0 + 5,#0x0
        MOV     R4,?V0 + 4
        MOV     R5,?V0 + 5
        MOV     A,R6
        MOV     R2,A
        MOV     A,R7
        MOV     R3,A
        LCALL   ??osal_memcpy?relay
        MOV     A,#0x3
        LCALL   ?DEALLOC_XSTACK8
        CFI CFA_XSP16 add(XSP16, 18)
//  312       buf[tmpLen++] = ' ';
        MOV     ?V0 + 4,?V0 + 0
        MOV     ?V0 + 5,#0x0
        MOV     A,R6
        ADD     A,?V0 + 4
        MOV     DPL,A
        MOV     A,R7
        ADDC    A,?V0 + 5
        MOV     DPH,A
        MOV     A,#0x20
        MOVX    @DPTR,A
        INC     ?V0 + 0
//  313       osal_memcpy( &buf[tmpLen], str, strLen );
        ; Setup parameters for call to function osal_memcpy
        MOV     ?V0 + 4,?V0 + 8
        MOV     ?V0 + 5,?V0 + 9
        MOV     ?V0 + 6,#0x0
        MOV     R0,#?V0 + 4
        LCALL   ?PUSH_XSTACK_I_THREE
        CFI CFA_XSP16 add(XSP16, 21)
        MOV     ?V0 + 4,?V0 + 1
        MOV     ?V0 + 5,#0x0
        MOV     R4,?V0 + 4
        MOV     R5,?V0 + 5
        MOV     ?V0 + 4,?V0 + 0
        MOV     ?V0 + 5,#0x0
        MOV     A,R6
        ADD     A,?V0 + 4
        MOV     R2,A
        MOV     A,R7
        ADDC    A,?V0 + 5
        MOV     R3,A
        LCALL   ??osal_memcpy?relay
        MOV     A,#0x3
        LCALL   ?DEALLOC_XSTACK8
        CFI CFA_XSP16 add(XSP16, 18)
//  314       buf[tmpLen+strLen] = '\0';
        MOV     ?V0 + 4,?V0 + 0
        MOV     ?V0 + 5,#0x0
        MOV     ?V0 + 0,?V0 + 1
        MOV     ?V0 + 1,#0x0
        MOV     A,?V0 + 4
        ADD     A,?V0 + 0
        MOV     R0,A
        MOV     A,?V0 + 5
        ADDC    A,?V0 + 1
        MOV     R1,A
        MOV     A,R6
        ADD     A,R0
        MOV     DPL,A
        MOV     A,R7
        ADDC    A,R1
        MOV     DPH,A
        MOV     A,#0x0
        MOVX    @DPTR,A
//  315 
//  316       /* Send it out */
//  317 #if defined (ZTOOL_P1) || defined (ZTOOL_P2)
//  318 
//  319 #if defined(SERIAL_DEBUG_SUPPORTED)
//  320       debug_str( (uint8*)buf );
        ; Setup parameters for call to function debug_str
        MOV     A,R6
        MOV     R2,A
        MOV     A,R7
        MOV     R3,A
        LCALL   ??debug_str?relay
//  321 #endif //LCD_SUPPORTED
//  322 
//  323 #endif //ZTOOL_P1
//  324 
//  325       /* Free mem */
//  326       osal_mem_free( buf );
        ; Setup parameters for call to function osal_mem_free
        MOV     A,R6
        MOV     R2,A
        MOV     A,R7
        MOV     R3,A
        LCALL   ??osal_mem_free?relay
//  327     }
//  328   }
//  329 
//  330   /* Display the string */
//  331   HalLcd_HW_WriteLine (option, str);
??HalLcdWriteString_3:
        ; Setup parameters for call to function HalLcd_HW_WriteLine
        MOV     R2,?V0 + 8
        MOV     R3,?V0 + 9
        MOV     R1,?V0 + 2
        LCALL   ??HalLcd_HW_WriteLine?relay
//  332 
//  333 #endif //HAL_LCD
//  334 
//  335 }
        MOV     R7,#0xa
        LJMP    ?BANKED_LEAVE_XDATA
        CFI EndBlock cfiBlock1
//  336 
//  337 /**************************************************************************************************
//  338  * @fn      HalLcdWriteValue
//  339  *
//  340  * @brief   Write a value to the LCD
//  341  *
//  342  * @param   value  - value that will be displayed
//  343  *          radix  - 8, 10, 16
//  344  *          option - display options
//  345  *
//  346  * @return  None
//  347  **************************************************************************************************/

        RSEG BANKED_CODE:CODE:NOROOT(0)
//  348 void HalLcdWriteValue ( uint32 value, const uint8 radix, uint8 option)
HalLcdWriteValue:
        CFI Block cfiBlock2 Using cfiCommon0
        CFI Function HalLcdWriteValue
        CODE
//  349 {
        FUNCALL HalLcdWriteValue, _ltoa
        LOCFRAME ISTACK, 0, STACK
        LOCFRAME PSTACK, 0, STACK
        LOCFRAME XSTACK, 43, STACK
        LOCFRAME IOVERLAY, 0, STATIC
        LOCFRAME DOVERLAY, 0, STATIC
        ARGFRAME ISTACK, 0, STACK
        ARGFRAME PSTACK, 0, STACK
        ARGFRAME XSTACK, 43, STACK
        ARGFRAME IOVERLAY, 0, STATIC
        ARGFRAME DOVERLAY, 0, STATIC
        FUNCALL HalLcdWriteValue, HalLcdWriteString
        LOCFRAME ISTACK, 0, STACK
        LOCFRAME PSTACK, 0, STACK
        LOCFRAME XSTACK, 41, STACK
        LOCFRAME IOVERLAY, 0, STATIC
        LOCFRAME DOVERLAY, 0, STATIC
        ARGFRAME ISTACK, 0, STACK
        ARGFRAME PSTACK, 0, STACK
        ARGFRAME XSTACK, 41, STACK
        ARGFRAME IOVERLAY, 0, STATIC
        ARGFRAME DOVERLAY, 0, STATIC
        MOV     A,#-0x10
        LCALL   ?BANKED_ENTER_XDATA
        CFI DPH0 load(1, XDATA, add(CFA_XSP16, literal(-1)))
        CFI DPL0 load(1, XDATA, add(CFA_XSP16, literal(-2)))
        CFI ?BRET_EXT load(1, XDATA, add(CFA_XSP16, literal(-3)))
        CFI ?RET_HIGH load(1, XDATA, add(CFA_XSP16, literal(-4)))
        CFI ?RET_LOW load(1, XDATA, add(CFA_XSP16, literal(-5)))
        CFI R7 load(1, XDATA, add(CFA_XSP16, literal(-6)))
        CFI V7 load(1, XDATA, add(CFA_XSP16, literal(-7)))
        CFI V6 load(1, XDATA, add(CFA_XSP16, literal(-8)))
        CFI V5 load(1, XDATA, add(CFA_XSP16, literal(-9)))
        CFI V4 load(1, XDATA, add(CFA_XSP16, literal(-10)))
        CFI V3 load(1, XDATA, add(CFA_XSP16, literal(-11)))
        CFI V2 load(1, XDATA, add(CFA_XSP16, literal(-12)))
        CFI V1 load(1, XDATA, add(CFA_XSP16, literal(-13)))
        CFI V0 load(1, XDATA, add(CFA_XSP16, literal(-14)))
        CFI VB load(1, XDATA, add(CFA_XSP16, literal(-15)))
        CFI R6 load(1, XDATA, add(CFA_XSP16, literal(-16)))
        CFI CFA_SP SP+0
        CFI CFA_XSP16 add(XSP16, 16)
        ; Saved register size: 16
        ; Auto size: 25
        MOV     A,#-0x19
        LCALL   ?ALLOC_XSTACK8
        CFI CFA_XSP16 add(XSP16, 41)
        MOV     ?V0 + 4,R2
        MOV     ?V0 + 5,R3
        MOV     ?V0 + 6,R4
        MOV     ?V0 + 7,R5
        MOV     A,R1
        MOV     R7,A
        MOV     A,#0x29
        LCALL   ?XSTACK_DISP0_8
        MOVX    A,@DPTR
        MOV     R6,A
//  350 #if (HAL_LCD == TRUE)
//  351   uint8 buf[HAL_LCD_MAX_BUFF];
//  352 
//  353   _ltoa( value, &buf[0], radix );
        ; Setup parameters for call to function _ltoa
        MOV     DPL,?XSP + 0
        MOV     DPH,?XSP + 1
        MOV     ?V0 + 0,DPL
        MOV     ?V0 + 1,DPH
        MOV     R0,#?V0 + 0
        LCALL   ?PUSH_XSTACK_I_TWO
        CFI CFA_XSP16 add(XSP16, 43)
        MOV     A,R7
        MOV     R1,A
        MOV     R2,?V0 + 4
        MOV     R3,?V0 + 5
        MOV     R4,?V0 + 6
        MOV     R5,?V0 + 7
        LCALL   ??_ltoa?relay
        MOV     A,#0x2
        LCALL   ?DEALLOC_XSTACK8
        CFI CFA_XSP16 add(XSP16, 41)
//  354   HalLcdWriteString( (char*)buf, option );
        ; Setup parameters for call to function HalLcdWriteString
        MOV     A,R6
        MOV     R1,A
        MOV     DPL,?XSP + 0
        MOV     DPH,?XSP + 1
        MOV     R2,DPL
        MOV     R3,DPH
        LCALL   ??HalLcdWriteString?relay
//  355 #endif
//  356 }
        MOV     A,#0x19
        LCALL   ?DEALLOC_XSTACK8
        CFI CFA_XSP16 add(XSP16, 16)
        MOV     R7,#0x8
        LJMP    ?BANKED_LEAVE_XDATA
        CFI EndBlock cfiBlock2
//  357 
//  358 /**************************************************************************************************
//  359  * @fn      HalLcdWriteScreen
//  360  *
//  361  * @brief   Write a value to the LCD
//  362  *
//  363  * @param   line1  - string that will be displayed on line 1
//  364  *          line2  - string that will be displayed on line 2
//  365  *
//  366  * @return  None
//  367  **************************************************************************************************/

        RSEG BANKED_CODE:CODE:NOROOT(0)
//  368 void HalLcdWriteScreen( char *line1, char *line2 )
HalLcdWriteScreen:
        CFI Block cfiBlock3 Using cfiCommon0
        CFI Function HalLcdWriteScreen
        CODE
//  369 {
        FUNCALL HalLcdWriteScreen, HalLcdWriteString
        LOCFRAME ISTACK, 0, STACK
        LOCFRAME PSTACK, 0, STACK
        LOCFRAME XSTACK, 9, STACK
        LOCFRAME IOVERLAY, 0, STATIC
        LOCFRAME DOVERLAY, 0, STATIC
        ARGFRAME ISTACK, 0, STACK
        ARGFRAME PSTACK, 0, STACK
        ARGFRAME XSTACK, 9, STACK
        ARGFRAME IOVERLAY, 0, STATIC
        ARGFRAME DOVERLAY, 0, STATIC
        FUNCALL HalLcdWriteScreen, HalLcdWriteString
        LOCFRAME ISTACK, 0, STACK
        LOCFRAME PSTACK, 0, STACK
        LOCFRAME XSTACK, 9, STACK
        LOCFRAME IOVERLAY, 0, STATIC
        LOCFRAME DOVERLAY, 0, STATIC
        ARGFRAME ISTACK, 0, STACK
        ARGFRAME PSTACK, 0, STACK
        ARGFRAME XSTACK, 9, STACK
        ARGFRAME IOVERLAY, 0, STATIC
        ARGFRAME DOVERLAY, 0, STATIC
        MOV     A,#-0x9
        LCALL   ?BANKED_ENTER_XDATA
        CFI DPH0 load(1, XDATA, add(CFA_XSP16, literal(-1)))
        CFI DPL0 load(1, XDATA, add(CFA_XSP16, literal(-2)))
        CFI ?BRET_EXT load(1, XDATA, add(CFA_XSP16, literal(-3)))
        CFI ?RET_HIGH load(1, XDATA, add(CFA_XSP16, literal(-4)))
        CFI ?RET_LOW load(1, XDATA, add(CFA_XSP16, literal(-5)))
        CFI R7 load(1, XDATA, add(CFA_XSP16, literal(-6)))
        CFI V0 load(1, XDATA, add(CFA_XSP16, literal(-7)))
        CFI VB load(1, XDATA, add(CFA_XSP16, literal(-8)))
        CFI R6 load(1, XDATA, add(CFA_XSP16, literal(-9)))
        CFI CFA_SP SP+0
        CFI CFA_XSP16 add(XSP16, 9)
        ; Saved register size: 9
        ; Auto size: 0
        MOV     A,R4
        MOV     R6,A
        MOV     A,R5
        MOV     R7,A
//  370 #if (HAL_LCD == TRUE)
//  371   HalLcdWriteString( line1, 1 );
        ; Setup parameters for call to function HalLcdWriteString
        MOV     R1,#0x1
        LCALL   ??HalLcdWriteString?relay
//  372   HalLcdWriteString( line2, 2 );
        ; Setup parameters for call to function HalLcdWriteString
        MOV     R1,#0x2
        MOV     A,R6
        MOV     R2,A
        MOV     A,R7
        MOV     R3,A
        LCALL   ??HalLcdWriteString?relay
//  373 #endif
//  374 }
        MOV     R7,#0x1
        LJMP    ?BANKED_LEAVE_XDATA
        CFI EndBlock cfiBlock3
//  375 
//  376 /**************************************************************************************************
//  377  * @fn      HalLcdWriteStringValue
//  378  *
//  379  * @brief   Write a string followed by a value to the LCD
//  380  *
//  381  * @param   title  - Title that will be displayed before the value
//  382  *          value  - value
//  383  *          format - redix
//  384  *          line   - line number
//  385  *
//  386  * @return  None
//  387  **************************************************************************************************/

        RSEG BANKED_CODE:CODE:NOROOT(0)
//  388 void HalLcdWriteStringValue( char *title, uint16 value, uint8 format, uint8 line )
HalLcdWriteStringValue:
        CFI Block cfiBlock4 Using cfiCommon0
        CFI Function HalLcdWriteStringValue
        CODE
//  389 {
        FUNCALL HalLcdWriteStringValue, osal_strlen
        LOCFRAME ISTACK, 0, STACK
        LOCFRAME PSTACK, 0, STACK
        LOCFRAME XSTACK, 45, STACK
        LOCFRAME IOVERLAY, 0, STATIC
        LOCFRAME DOVERLAY, 0, STATIC
        ARGFRAME ISTACK, 0, STACK
        ARGFRAME PSTACK, 0, STACK
        ARGFRAME XSTACK, 45, STACK
        ARGFRAME IOVERLAY, 0, STATIC
        ARGFRAME DOVERLAY, 0, STATIC
        FUNCALL HalLcdWriteStringValue, osal_memcpy
        LOCFRAME ISTACK, 0, STACK
        LOCFRAME PSTACK, 0, STACK
        LOCFRAME XSTACK, 48, STACK
        LOCFRAME IOVERLAY, 0, STATIC
        LOCFRAME DOVERLAY, 0, STATIC
        ARGFRAME ISTACK, 0, STACK
        ARGFRAME PSTACK, 0, STACK
        ARGFRAME XSTACK, 48, STACK
        ARGFRAME IOVERLAY, 0, STATIC
        ARGFRAME DOVERLAY, 0, STATIC
        FUNCALL HalLcdWriteStringValue, _ltoa
        LOCFRAME ISTACK, 0, STACK
        LOCFRAME PSTACK, 0, STACK
        LOCFRAME XSTACK, 47, STACK
        LOCFRAME IOVERLAY, 0, STATIC
        LOCFRAME DOVERLAY, 0, STATIC
        ARGFRAME ISTACK, 0, STACK
        ARGFRAME PSTACK, 0, STACK
        ARGFRAME XSTACK, 47, STACK
        ARGFRAME IOVERLAY, 0, STATIC
        ARGFRAME DOVERLAY, 0, STATIC
        FUNCALL HalLcdWriteStringValue, HalLcdWriteString
        LOCFRAME ISTACK, 0, STACK
        LOCFRAME PSTACK, 0, STACK
        LOCFRAME XSTACK, 45, STACK
        LOCFRAME IOVERLAY, 0, STATIC
        LOCFRAME DOVERLAY, 0, STATIC
        ARGFRAME ISTACK, 0, STACK
        ARGFRAME PSTACK, 0, STACK
        ARGFRAME XSTACK, 45, STACK
        ARGFRAME IOVERLAY, 0, STATIC
        ARGFRAME DOVERLAY, 0, STATIC
        MOV     A,#-0x14
        LCALL   ?BANKED_ENTER_XDATA
        CFI DPH0 load(1, XDATA, add(CFA_XSP16, literal(-1)))
        CFI DPL0 load(1, XDATA, add(CFA_XSP16, literal(-2)))
        CFI ?BRET_EXT load(1, XDATA, add(CFA_XSP16, literal(-3)))
        CFI ?RET_HIGH load(1, XDATA, add(CFA_XSP16, literal(-4)))
        CFI ?RET_LOW load(1, XDATA, add(CFA_XSP16, literal(-5)))
        CFI R7 load(1, XDATA, add(CFA_XSP16, literal(-6)))
        CFI V11 load(1, XDATA, add(CFA_XSP16, literal(-7)))
        CFI V10 load(1, XDATA, add(CFA_XSP16, literal(-8)))
        CFI V9 load(1, XDATA, add(CFA_XSP16, literal(-9)))
        CFI V8 load(1, XDATA, add(CFA_XSP16, literal(-10)))
        CFI V7 load(1, XDATA, add(CFA_XSP16, literal(-11)))
        CFI V6 load(1, XDATA, add(CFA_XSP16, literal(-12)))
        CFI V5 load(1, XDATA, add(CFA_XSP16, literal(-13)))
        CFI V4 load(1, XDATA, add(CFA_XSP16, literal(-14)))
        CFI V3 load(1, XDATA, add(CFA_XSP16, literal(-15)))
        CFI V2 load(1, XDATA, add(CFA_XSP16, literal(-16)))
        CFI V1 load(1, XDATA, add(CFA_XSP16, literal(-17)))
        CFI V0 load(1, XDATA, add(CFA_XSP16, literal(-18)))
        CFI VB load(1, XDATA, add(CFA_XSP16, literal(-19)))
        CFI R6 load(1, XDATA, add(CFA_XSP16, literal(-20)))
        CFI CFA_SP SP+0
        CFI CFA_XSP16 add(XSP16, 20)
        ; Saved register size: 20
        ; Auto size: 25
        MOV     A,#-0x19
        LCALL   ?ALLOC_XSTACK8
        CFI CFA_XSP16 add(XSP16, 45)
        MOV     A,R2
        MOV     R6,A
        MOV     A,R3
        MOV     R7,A
        MOV     ?V0 + 0,R4
        MOV     ?V0 + 1,R5
        MOV     ?V0 + 2,R1
        MOV     A,#0x2d
        LCALL   ?XSTACK_DISP0_8
        MOVX    A,@DPTR
        MOV     ?V0 + 3,A
//  390 #if (HAL_LCD == TRUE)
//  391   uint8 tmpLen;
//  392   uint8 buf[HAL_LCD_MAX_BUFF];
//  393   uint32 err;
//  394 
//  395   tmpLen = (uint8)osal_strlen( (char*)title );
        ; Setup parameters for call to function osal_strlen
        MOV     A,R6
        MOV     R2,A
        MOV     A,R7
        MOV     R3,A
        LCALL   ??osal_strlen?relay
        MOV     A,R2
        MOV     ?V0 + 7,A
//  396   osal_memcpy( buf, title, tmpLen );
        ; Setup parameters for call to function osal_memcpy
        MOV     ?V0 + 4,R6
        MOV     ?V0 + 5,R7
        MOV     ?V0 + 6,#0x0
        MOV     R0,#?V0 + 4
        LCALL   ?PUSH_XSTACK_I_THREE
        CFI CFA_XSP16 add(XSP16, 48)
        MOV     ?V0 + 4,?V0 + 7
        MOV     ?V0 + 5,#0x0
        MOV     R4,?V0 + 4
        MOV     R5,?V0 + 5
        MOV     A,#0x3
        LCALL   ?XSTACK_DISP0_8
        MOV     R2,DPL
        MOV     R3,DPH
        LCALL   ??osal_memcpy?relay
        MOV     A,#0x3
        LCALL   ?DEALLOC_XSTACK8
        CFI CFA_XSP16 add(XSP16, 45)
//  397   buf[tmpLen] = ' ';
        MOV     ?V0 + 4,?V0 + 7
        MOV     ?V0 + 5,#0x0
        MOV     DPL,?XSP + 0
        MOV     DPH,?XSP + 1
        MOV     A,DPL
        ADD     A,?V0 + 4
        MOV     DPL,A
        MOV     A,DPH
        ADDC    A,?V0 + 5
        MOV     DPH,A
        MOV     A,#0x20
        MOVX    @DPTR,A
//  398   err = (uint32)(value);
        MOV     ?V0 + 8,?V0 + 0
        MOV     ?V0 + 9,?V0 + 1
        CLR     A
        MOV     ?V0 + 10,A
        MOV     ?V0 + 11,A
//  399   _ltoa( err, &buf[tmpLen+1], format );
        ; Setup parameters for call to function _ltoa
        MOV     ?V0 + 0,?V0 + 7
        MOV     ?V0 + 1,#0x0
        MOV     DPL,?XSP + 0
        MOV     DPH,?XSP + 1
        MOV     A,DPL
        ADD     A,?V0 + 0
        MOV     DPL,A
        MOV     A,DPH
        ADDC    A,?V0 + 1
        MOV     DPH,A
        INC     DPTR
        MOV     ?V0 + 0,DPL
        MOV     ?V0 + 1,DPH
        MOV     R0,#?V0 + 0
        LCALL   ?PUSH_XSTACK_I_TWO
        CFI CFA_XSP16 add(XSP16, 47)
        MOV     R1,?V0 + 2
        MOV     R2,?V0 + 8
        MOV     R3,?V0 + 9
        MOV     R4,?V0 + 10
        MOV     R5,?V0 + 11
        LCALL   ??_ltoa?relay
        MOV     A,#0x2
        LCALL   ?DEALLOC_XSTACK8
        CFI CFA_XSP16 add(XSP16, 45)
//  400   HalLcdWriteString( (char*)buf, line );		
        ; Setup parameters for call to function HalLcdWriteString
        MOV     R1,?V0 + 3
        MOV     DPL,?XSP + 0
        MOV     DPH,?XSP + 1
        MOV     R2,DPL
        MOV     R3,DPH
        LCALL   ??HalLcdWriteString?relay
//  401 #endif
//  402 }
        MOV     A,#0x19
        LCALL   ?DEALLOC_XSTACK8
        CFI CFA_XSP16 add(XSP16, 20)
        MOV     R7,#0xc
        LJMP    ?BANKED_LEAVE_XDATA
        CFI EndBlock cfiBlock4
//  403 
//  404 /**************************************************************************************************
//  405  * @fn      HalLcdWriteStringValue
//  406  *
//  407  * @brief   Write a string followed by a value to the LCD
//  408  *
//  409  * @param   title   - Title that will be displayed before the value
//  410  *          value1  - value #1
//  411  *          format1 - redix of value #1
//  412  *          value2  - value #2
//  413  *          format2 - redix of value #2
//  414  *          line    - line number
//  415  *
//  416  * @return  None
//  417  **************************************************************************************************/

        RSEG BANKED_CODE:CODE:NOROOT(0)
//  418 void HalLcdWriteStringValueValue( char *title, uint16 value1, uint8 format1,
HalLcdWriteStringValueValue:
        CFI Block cfiBlock5 Using cfiCommon0
        CFI Function HalLcdWriteStringValueValue
        CODE
//  419                                   uint16 value2, uint8 format2, uint8 line )
//  420 {
        FUNCALL HalLcdWriteStringValueValue, osal_strlen
        LOCFRAME ISTACK, 0, STACK
        LOCFRAME PSTACK, 0, STACK
        LOCFRAME XSTACK, 46, STACK
        LOCFRAME IOVERLAY, 0, STATIC
        LOCFRAME DOVERLAY, 0, STATIC
        ARGFRAME ISTACK, 0, STACK
        ARGFRAME PSTACK, 0, STACK
        ARGFRAME XSTACK, 46, STACK
        ARGFRAME IOVERLAY, 0, STATIC
        ARGFRAME DOVERLAY, 0, STATIC
        FUNCALL HalLcdWriteStringValueValue, osal_memcpy
        LOCFRAME ISTACK, 0, STACK
        LOCFRAME PSTACK, 0, STACK
        LOCFRAME XSTACK, 49, STACK
        LOCFRAME IOVERLAY, 0, STATIC
        LOCFRAME DOVERLAY, 0, STATIC
        ARGFRAME ISTACK, 0, STACK
        ARGFRAME PSTACK, 0, STACK
        ARGFRAME XSTACK, 49, STACK
        ARGFRAME IOVERLAY, 0, STATIC
        ARGFRAME DOVERLAY, 0, STATIC
        FUNCALL HalLcdWriteStringValueValue, _ltoa
        LOCFRAME ISTACK, 0, STACK
        LOCFRAME PSTACK, 0, STACK
        LOCFRAME XSTACK, 48, STACK
        LOCFRAME IOVERLAY, 0, STATIC
        LOCFRAME DOVERLAY, 0, STATIC
        ARGFRAME ISTACK, 0, STACK
        ARGFRAME PSTACK, 0, STACK
        ARGFRAME XSTACK, 48, STACK
        ARGFRAME IOVERLAY, 0, STATIC
        ARGFRAME DOVERLAY, 0, STATIC
        FUNCALL HalLcdWriteStringValueValue, osal_strlen
        LOCFRAME ISTACK, 0, STACK
        LOCFRAME PSTACK, 0, STACK
        LOCFRAME XSTACK, 46, STACK
        LOCFRAME IOVERLAY, 0, STATIC
        LOCFRAME DOVERLAY, 0, STATIC
        ARGFRAME ISTACK, 0, STACK
        ARGFRAME PSTACK, 0, STACK
        ARGFRAME XSTACK, 46, STACK
        ARGFRAME IOVERLAY, 0, STATIC
        ARGFRAME DOVERLAY, 0, STATIC
        FUNCALL HalLcdWriteStringValueValue, _ltoa
        LOCFRAME ISTACK, 0, STACK
        LOCFRAME PSTACK, 0, STACK
        LOCFRAME XSTACK, 48, STACK
        LOCFRAME IOVERLAY, 0, STATIC
        LOCFRAME DOVERLAY, 0, STATIC
        ARGFRAME ISTACK, 0, STACK
        ARGFRAME PSTACK, 0, STACK
        ARGFRAME XSTACK, 48, STACK
        ARGFRAME IOVERLAY, 0, STATIC
        ARGFRAME DOVERLAY, 0, STATIC
        FUNCALL HalLcdWriteStringValueValue, HalLcdWriteString
        LOCFRAME ISTACK, 0, STACK
        LOCFRAME PSTACK, 0, STACK
        LOCFRAME XSTACK, 46, STACK
        LOCFRAME IOVERLAY, 0, STATIC
        LOCFRAME DOVERLAY, 0, STATIC
        ARGFRAME ISTACK, 0, STACK
        ARGFRAME PSTACK, 0, STACK
        ARGFRAME XSTACK, 46, STACK
        ARGFRAME IOVERLAY, 0, STATIC
        ARGFRAME DOVERLAY, 0, STATIC
        MOV     A,#-0x15
        LCALL   ?BANKED_ENTER_XDATA
        CFI DPH0 load(1, XDATA, add(CFA_XSP16, literal(-1)))
        CFI DPL0 load(1, XDATA, add(CFA_XSP16, literal(-2)))
        CFI ?BRET_EXT load(1, XDATA, add(CFA_XSP16, literal(-3)))
        CFI ?RET_HIGH load(1, XDATA, add(CFA_XSP16, literal(-4)))
        CFI ?RET_LOW load(1, XDATA, add(CFA_XSP16, literal(-5)))
        CFI R7 load(1, XDATA, add(CFA_XSP16, literal(-6)))
        CFI V12 load(1, XDATA, add(CFA_XSP16, literal(-7)))
        CFI V11 load(1, XDATA, add(CFA_XSP16, literal(-8)))
        CFI V10 load(1, XDATA, add(CFA_XSP16, literal(-9)))
        CFI V9 load(1, XDATA, add(CFA_XSP16, literal(-10)))
        CFI V8 load(1, XDATA, add(CFA_XSP16, literal(-11)))
        CFI V7 load(1, XDATA, add(CFA_XSP16, literal(-12)))
        CFI V6 load(1, XDATA, add(CFA_XSP16, literal(-13)))
        CFI V5 load(1, XDATA, add(CFA_XSP16, literal(-14)))
        CFI V4 load(1, XDATA, add(CFA_XSP16, literal(-15)))
        CFI V3 load(1, XDATA, add(CFA_XSP16, literal(-16)))
        CFI V2 load(1, XDATA, add(CFA_XSP16, literal(-17)))
        CFI V1 load(1, XDATA, add(CFA_XSP16, literal(-18)))
        CFI V0 load(1, XDATA, add(CFA_XSP16, literal(-19)))
        CFI VB load(1, XDATA, add(CFA_XSP16, literal(-20)))
        CFI R6 load(1, XDATA, add(CFA_XSP16, literal(-21)))
        CFI CFA_SP SP+0
        CFI CFA_XSP16 add(XSP16, 21)
        ; Saved register size: 21
        ; Auto size: 25
        MOV     A,#-0x19
        LCALL   ?ALLOC_XSTACK8
        CFI CFA_XSP16 add(XSP16, 46)
        MOV     A,R2
        MOV     R6,A
        MOV     A,R3
        MOV     R7,A
        MOV     ?V0 + 4,R4
        MOV     ?V0 + 5,R5
        MOV     ?V0 + 11,R1
        MOV     A,#0x2e
        LCALL   ?XSTACK_DISP0_8
        MOVX    A,@DPTR
        MOV     ?V0 + 0,A
        INC     DPTR
        MOVX    A,@DPTR
        MOV     ?V0 + 1,A
        MOV     A,#0x30
        LCALL   ?XSTACK_DISP0_8
        MOVX    A,@DPTR
        MOV     ?V0 + 12,A
        MOV     A,#0x31
        LCALL   ?XSTACK_DISP0_8
        MOVX    A,@DPTR
        MOV     ?V0 + 3,A
//  421 
//  422 #if (HAL_LCD == TRUE)
//  423 
//  424   uint8 tmpLen;
//  425   uint8 buf[HAL_LCD_MAX_BUFF];
//  426   uint32 err;
//  427 
//  428   tmpLen = (uint8)osal_strlen( (char*)title );
        ; Setup parameters for call to function osal_strlen
        MOV     A,R6
        MOV     R2,A
        MOV     A,R7
        MOV     R3,A
        LCALL   ??osal_strlen?relay
        MOV     A,R2
        MOV     ?V0 + 2,A
//  429   if ( tmpLen )
        MOV     A,?V0 + 2
        JZ      ??HalLcdWriteStringValueValue_0
//  430   {
//  431     osal_memcpy( buf, title, tmpLen );
        ; Setup parameters for call to function osal_memcpy
        MOV     ?V0 + 8,R6
        MOV     ?V0 + 9,R7
        MOV     ?V0 + 10,#0x0
        MOV     R0,#?V0 + 8
        LCALL   ?PUSH_XSTACK_I_THREE
        CFI CFA_XSP16 add(XSP16, 49)
        MOV     ?V0 + 6,?V0 + 2
        MOV     ?V0 + 7,#0x0
        MOV     R4,?V0 + 6
        MOV     R5,?V0 + 7
        MOV     A,#0x3
        LCALL   ?XSTACK_DISP0_8
        MOV     R2,DPL
        MOV     R3,DPH
        LCALL   ??osal_memcpy?relay
        MOV     A,#0x3
        LCALL   ?DEALLOC_XSTACK8
        CFI CFA_XSP16 add(XSP16, 46)
//  432     buf[tmpLen++] = ' ';
        MOV     ?V0 + 6,?V0 + 2
        MOV     ?V0 + 7,#0x0
        MOV     DPL,?XSP + 0
        MOV     DPH,?XSP + 1
        MOV     A,DPL
        ADD     A,?V0 + 6
        MOV     DPL,A
        MOV     A,DPH
        ADDC    A,?V0 + 7
        MOV     DPH,A
        MOV     A,#0x20
        MOVX    @DPTR,A
        INC     ?V0 + 2
//  433   }
//  434 
//  435   err = (uint32)(value1);
??HalLcdWriteStringValueValue_0:
        CLR     A
        MOV     ?V0 + 6,A
        MOV     ?V0 + 7,A
//  436   _ltoa( err, &buf[tmpLen], format1 );
        ; Setup parameters for call to function _ltoa
        MOV     ?V0 + 8,?V0 + 2
        MOV     ?V0 + 9,#0x0
        MOV     DPL,?XSP + 0
        MOV     DPH,?XSP + 1
        MOV     A,DPL
        ADD     A,?V0 + 8
        MOV     ?V0 + 8,A
        MOV     A,DPH
        ADDC    A,?V0 + 9
        MOV     ?V0 + 9,A
        MOV     R0,#?V0 + 8
        LCALL   ?PUSH_XSTACK_I_TWO
        CFI CFA_XSP16 add(XSP16, 48)
        MOV     R1,?V0 + 11
        MOV     R2,?V0 + 4
        MOV     R3,?V0 + 5
        MOV     R4,?V0 + 6
        MOV     R5,?V0 + 7
        LCALL   ??_ltoa?relay
        MOV     A,#0x2
        LCALL   ?DEALLOC_XSTACK8
        CFI CFA_XSP16 add(XSP16, 46)
//  437   tmpLen = (uint8)osal_strlen( (char*)buf );
        ; Setup parameters for call to function osal_strlen
        MOV     DPL,?XSP + 0
        MOV     DPH,?XSP + 1
        MOV     R2,DPL
        MOV     R3,DPH
        LCALL   ??osal_strlen?relay
        MOV     A,R2
        MOV     ?V0 + 2,A
//  438 
//  439   buf[tmpLen++] = ',';
        MOV     ?V0 + 4,?V0 + 2
        MOV     ?V0 + 5,#0x0
        MOV     DPL,?XSP + 0
        MOV     DPH,?XSP + 1
        MOV     A,DPL
        ADD     A,?V0 + 4
        MOV     DPL,A
        MOV     A,DPH
        ADDC    A,?V0 + 5
        MOV     DPH,A
        MOV     A,#0x2c
        MOVX    @DPTR,A
        INC     ?V0 + 2
//  440   buf[tmpLen++] = ' ';
        MOV     ?V0 + 4,?V0 + 2
        MOV     ?V0 + 5,#0x0
        MOV     DPL,?XSP + 0
        MOV     DPH,?XSP + 1
        MOV     A,DPL
        ADD     A,?V0 + 4
        MOV     DPL,A
        MOV     A,DPH
        ADDC    A,?V0 + 5
        MOV     DPH,A
        MOV     A,#0x20
        MOVX    @DPTR,A
        INC     ?V0 + 2
//  441   err = (uint32)(value2);
        MOV     ?V0 + 4,?V0 + 0
        MOV     ?V0 + 5,?V0 + 1
        CLR     A
        MOV     ?V0 + 6,A
        MOV     ?V0 + 7,A
//  442   _ltoa( err, &buf[tmpLen], format2 );
        ; Setup parameters for call to function _ltoa
        MOV     ?V0 + 0,?V0 + 2
        MOV     ?V0 + 1,#0x0
        MOV     DPL,?XSP + 0
        MOV     DPH,?XSP + 1
        MOV     A,DPL
        ADD     A,?V0 + 0
        MOV     ?V0 + 0,A
        MOV     A,DPH
        ADDC    A,?V0 + 1
        MOV     ?V0 + 1,A
        MOV     R0,#?V0 + 0
        LCALL   ?PUSH_XSTACK_I_TWO
        CFI CFA_XSP16 add(XSP16, 48)
        MOV     R1,?V0 + 12
        MOV     R2,?V0 + 4
        MOV     R3,?V0 + 5
        MOV     R4,?V0 + 6
        MOV     R5,?V0 + 7
        LCALL   ??_ltoa?relay
        MOV     A,#0x2
        LCALL   ?DEALLOC_XSTACK8
        CFI CFA_XSP16 add(XSP16, 46)
//  443 
//  444   HalLcdWriteString( (char *)buf, line );		
        ; Setup parameters for call to function HalLcdWriteString
        MOV     R1,?V0 + 3
        MOV     DPL,?XSP + 0
        MOV     DPH,?XSP + 1
        MOV     R2,DPL
        MOV     R3,DPH
        LCALL   ??HalLcdWriteString?relay
//  445 
//  446 #endif
//  447 }
        MOV     A,#0x19
        LCALL   ?DEALLOC_XSTACK8
        CFI CFA_XSP16 add(XSP16, 21)
        MOV     R7,#0xd
        LJMP    ?BANKED_LEAVE_XDATA
        CFI EndBlock cfiBlock5
//  448 
//  449 /**************************************************************************************************
//  450  * @fn      HalLcdDisplayPercentBar
//  451  *
//  452  * @brief   Display percentage bar on the LCD
//  453  *
//  454  * @param   title   -
//  455  *          value   -
//  456  *
//  457  * @return  None
//  458  **************************************************************************************************/

        RSEG BANKED_CODE:CODE:NOROOT(0)
//  459 void HalLcdDisplayPercentBar( char *title, uint8 value )
HalLcdDisplayPercentBar:
        CFI Block cfiBlock6 Using cfiCommon0
        CFI Function HalLcdDisplayPercentBar
        CODE
//  460 {
        FUNCALL HalLcdDisplayPercentBar, HalLcdWriteString
        LOCFRAME ISTACK, 0, STACK
        LOCFRAME PSTACK, 0, STACK
        LOCFRAME XSTACK, 33, STACK
        LOCFRAME IOVERLAY, 0, STATIC
        LOCFRAME DOVERLAY, 0, STATIC
        ARGFRAME ISTACK, 0, STACK
        ARGFRAME PSTACK, 0, STACK
        ARGFRAME XSTACK, 33, STACK
        ARGFRAME IOVERLAY, 0, STATIC
        ARGFRAME DOVERLAY, 0, STATIC
        FUNCALL HalLcdDisplayPercentBar, osal_memcpy
        LOCFRAME ISTACK, 0, STACK
        LOCFRAME PSTACK, 0, STACK
        LOCFRAME XSTACK, 36, STACK
        LOCFRAME IOVERLAY, 0, STATIC
        LOCFRAME DOVERLAY, 0, STATIC
        ARGFRAME ISTACK, 0, STACK
        ARGFRAME PSTACK, 0, STACK
        ARGFRAME XSTACK, 36, STACK
        ARGFRAME IOVERLAY, 0, STATIC
        ARGFRAME DOVERLAY, 0, STATIC
        FUNCALL HalLcdDisplayPercentBar, _ltoa
        LOCFRAME ISTACK, 0, STACK
        LOCFRAME PSTACK, 0, STACK
        LOCFRAME XSTACK, 35, STACK
        LOCFRAME IOVERLAY, 0, STATIC
        LOCFRAME DOVERLAY, 0, STATIC
        ARGFRAME ISTACK, 0, STACK
        ARGFRAME PSTACK, 0, STACK
        ARGFRAME XSTACK, 35, STACK
        ARGFRAME IOVERLAY, 0, STATIC
        ARGFRAME DOVERLAY, 0, STATIC
        FUNCALL HalLcdDisplayPercentBar, HalLcdWriteString
        LOCFRAME ISTACK, 0, STACK
        LOCFRAME PSTACK, 0, STACK
        LOCFRAME XSTACK, 33, STACK
        LOCFRAME IOVERLAY, 0, STATIC
        LOCFRAME DOVERLAY, 0, STATIC
        ARGFRAME ISTACK, 0, STACK
        ARGFRAME PSTACK, 0, STACK
        ARGFRAME XSTACK, 33, STACK
        ARGFRAME IOVERLAY, 0, STATIC
        ARGFRAME DOVERLAY, 0, STATIC
        MOV     A,#-0x10
        LCALL   ?BANKED_ENTER_XDATA
        CFI DPH0 load(1, XDATA, add(CFA_XSP16, literal(-1)))
        CFI DPL0 load(1, XDATA, add(CFA_XSP16, literal(-2)))
        CFI ?BRET_EXT load(1, XDATA, add(CFA_XSP16, literal(-3)))
        CFI ?RET_HIGH load(1, XDATA, add(CFA_XSP16, literal(-4)))
        CFI ?RET_LOW load(1, XDATA, add(CFA_XSP16, literal(-5)))
        CFI R7 load(1, XDATA, add(CFA_XSP16, literal(-6)))
        CFI V7 load(1, XDATA, add(CFA_XSP16, literal(-7)))
        CFI V6 load(1, XDATA, add(CFA_XSP16, literal(-8)))
        CFI V5 load(1, XDATA, add(CFA_XSP16, literal(-9)))
        CFI V4 load(1, XDATA, add(CFA_XSP16, literal(-10)))
        CFI V3 load(1, XDATA, add(CFA_XSP16, literal(-11)))
        CFI V2 load(1, XDATA, add(CFA_XSP16, literal(-12)))
        CFI V1 load(1, XDATA, add(CFA_XSP16, literal(-13)))
        CFI V0 load(1, XDATA, add(CFA_XSP16, literal(-14)))
        CFI VB load(1, XDATA, add(CFA_XSP16, literal(-15)))
        CFI R6 load(1, XDATA, add(CFA_XSP16, literal(-16)))
        CFI CFA_SP SP+0
        CFI CFA_XSP16 add(XSP16, 16)
        ; Saved register size: 16
        ; Auto size: 17
        MOV     A,#-0x11
        LCALL   ?ALLOC_XSTACK8
        CFI CFA_XSP16 add(XSP16, 33)
        MOV     A,R1
        MOV     R6,A
//  461 #if (HAL_LCD == TRUE)
//  462 
//  463   uint8 percent;
//  464   uint8 leftOver;
//  465   uint8 buf[17];
//  466   uint32 err;
//  467   uint8 x;
//  468 
//  469   /* Write the title: */
//  470   HalLcdWriteString( title, HAL_LCD_LINE_1 );
        ; Setup parameters for call to function HalLcdWriteString
        MOV     R1,#0x1
        LCALL   ??HalLcdWriteString?relay
//  471 
//  472   if ( value > 100 )
        MOV     A,R6
        CLR     C
        SUBB    A,#0x65
        JC      ??HalLcdDisplayPercentBar_0
//  473     value = 100;
        MOV     R6,#0x64
//  474 
//  475   /* convert to blocks */
//  476   percent = (uint8)(value / 10);
??HalLcdDisplayPercentBar_0:
        MOV     B,#0xa
        MOV     A,R6
        DIV     AB
        MOV     R7,A
//  477   leftOver = (uint8)(value % 10);
        MOV     A,R6
        MOV     B,#0xa
        DIV     AB
        MOV     A,B
        MOV     ?V0 + 3,A
//  478 
//  479   /* Make window */
//  480   osal_memcpy( buf, "[          ]  ", 15 );
        ; Setup parameters for call to function osal_memcpy
        MOV     ?V0 + 0,#`?<Constant "[          ]  ">` & 0xff
        MOV     ?V0 + 1,#(`?<Constant "[          ]  ">` >> 8) & 0xff
        MOV     ?V0 + 2,#0x0
        MOV     R0,#?V0 + 0
        LCALL   ?PUSH_XSTACK_I_THREE
        CFI CFA_XSP16 add(XSP16, 36)
        MOV     R4,#0xf
        MOV     R5,#0x0
        MOV     A,#0x3
        LCALL   ?XSTACK_DISP0_8
        MOV     R2,DPL
        MOV     R3,DPH
        LCALL   ??osal_memcpy?relay
        MOV     A,#0x3
        LCALL   ?DEALLOC_XSTACK8
        CFI CFA_XSP16 add(XSP16, 33)
//  481 
//  482   for ( x = 0; x < percent; x ++ )
        MOV     ?V0 + 2,#0x0
        SJMP    ??HalLcdDisplayPercentBar_1
//  483   {
//  484     buf[1+x] = '>';
??HalLcdDisplayPercentBar_2:
        MOV     ?V0 + 0,?V0 + 2
        MOV     ?V0 + 1,#0x0
        MOV     DPL,?XSP + 0
        MOV     DPH,?XSP + 1
        MOV     A,DPL
        ADD     A,?V0 + 0
        MOV     DPL,A
        MOV     A,DPH
        ADDC    A,?V0 + 1
        MOV     DPH,A
        INC     DPTR
        MOV     A,#0x3e
        MOVX    @DPTR,A
//  485   }
        INC     ?V0 + 2
??HalLcdDisplayPercentBar_1:
        MOV     A,?V0 + 2
        CLR     C
        SUBB    A,R7
        JC      ??HalLcdDisplayPercentBar_2
//  486 
//  487   if ( leftOver >= 5 )
        MOV     A,?V0 + 3
        CLR     C
        SUBB    A,#0x5
        JC      ??HalLcdDisplayPercentBar_3
//  488     buf[1+x] = '+';
        MOV     ?V0 + 3,#0x0
        MOV     DPL,?XSP + 0
        MOV     DPH,?XSP + 1
        MOV     A,DPL
        ADD     A,?V0 + 2
        MOV     DPL,A
        MOV     A,DPH
        ADDC    A,?V0 + 3
        MOV     DPH,A
        INC     DPTR
        MOV     A,#0x2b
        MOVX    @DPTR,A
//  489 
//  490   err = (uint32)value;
??HalLcdDisplayPercentBar_3:
        MOV     A,R6
        MOV     ?V0 + 4,A
        CLR     A
        MOV     ?V0 + 5,A
        MOV     ?V0 + 6,A
        MOV     ?V0 + 7,A
//  491   _ltoa( err, (uint8*)&buf[13], 10 );
        ; Setup parameters for call to function _ltoa
        MOV     A,#0xd
        LCALL   ?XSTACK_DISP0_8
        MOV     ?V0 + 0,DPL
        MOV     ?V0 + 1,DPH
        MOV     R0,#?V0 + 0
        LCALL   ?PUSH_XSTACK_I_TWO
        CFI CFA_XSP16 add(XSP16, 35)
        MOV     R1,#0xa
        MOV     R2,?V0 + 4
        MOV     R3,?V0 + 5
        MOV     R4,?V0 + 6
        MOV     R5,?V0 + 7
        LCALL   ??_ltoa?relay
        MOV     A,#0x2
        LCALL   ?DEALLOC_XSTACK8
        CFI CFA_XSP16 add(XSP16, 33)
//  492 
//  493   HalLcdWriteString( (char*)buf, HAL_LCD_LINE_2 );
        ; Setup parameters for call to function HalLcdWriteString
        MOV     R1,#0x2
        MOV     DPL,?XSP + 0
        MOV     DPH,?XSP + 1
        MOV     R2,DPL
        MOV     R3,DPH
        LCALL   ??HalLcdWriteString?relay
//  494 
//  495 #endif
//  496 
//  497 }
        MOV     A,#0x11
        LCALL   ?DEALLOC_XSTACK8
        CFI CFA_XSP16 add(XSP16, 16)
        MOV     R7,#0x8
        LJMP    ?BANKED_LEAVE_XDATA
        CFI EndBlock cfiBlock6
//  498 
//  499 
//  500 #if (HAL_LCD == TRUE)
//  501 /**************************************************************************************************
//  502  *                                    HARDWARE LCD
//  503  **************************************************************************************************/
//  504 
//  505 /**************************************************************************************************
//  506  * @fn      halLcd_ConfigIO
//  507  *
//  508  * @brief   Configure IO lines needed for LCD control.
//  509  *
//  510  * @param   None
//  511  *
//  512  * @return  None
//  513  **************************************************************************************************/

        RSEG BANKED_CODE:CODE:NOROOT(0)
//  514 static void halLcd_ConfigIO(void)
halLcd_ConfigIO:
        CFI Block cfiBlock7 Using cfiCommon0
        CFI Function halLcd_ConfigIO
        CODE
//  515 {
        ; Saved register size: 0
        ; Auto size: 0
//  516   /* GPIO configuration */
//  517   //我屏蔽的HAL_CONFIG_IO_OUTPUT(HAL_LCD_MODE_PORT,  HAL_LCD_MODE_PIN,  1);
//  518   //我屏蔽的HAL_CONFIG_IO_OUTPUT(HAL_LCD_RESET_PORT, HAL_LCD_RESET_PIN, 1);
//  519   //我屏蔽的HAL_CONFIG_IO_OUTPUT(HAL_LCD_CS_PORT,    HAL_LCD_CS_PIN,    1);
//  520   //一下几行是我添加的
//  521     #define cs1    P1_5	
//  522     #define rs     P1_6	
//  523     #define sclk   P1_2     
//  524     #define sid    P0_0
//  525         P0SEL &= 0xFE;           //让P00为普通IO口，
        ANL     0xf3,#0xfe
//  526         P0DIR |= 0x01;           //让P00为输出
        ORL     0xfd,#0x1
//  527         P1SEL &= 0x9b;           //让P12，P15，P16为普通IO口
        ANL     0xf4,#0x9b
//  528         P1DIR |= 0x6C;           //把P12，P15，P16 设置为输出
        ORL     0xfe,#0x6c
//  529 }
        LJMP    ?BRET
        CFI EndBlock cfiBlock7
        REQUIRE P0SEL
        REQUIRE P0DIR
        REQUIRE P1SEL
        REQUIRE P1DIR
//  530 
//  531 /**************************************************************************************************
//  532  * @fn      halLcd_ConfigSPI
//  533  *
//  534  * @brief   Configure SPI lines needed for talking to LCD.
//  535  *
//  536  * @param   None
//  537  *
//  538  * @return  None
//  539  **************************************************************************************************/
//  540 //屏蔽掉这个函数
//  541 //static void halLcd_ConfigSPI(void)
//  542 //{
//  543   /* UART/SPI Peripheral configuration */
//  544 
//  545 //   uint8 baud_exponent;
//  546 //   uint8 baud_mantissa;
//  547 
//  548   /* Set SPI on UART 1 alternative 2 */
//  549 //  PERCFG |= 0x02;
//  550 
//  551   /* Configure clk, master out and master in lines */
//  552 //  HAL_CONFIG_IO_PERIPHERAL(HAL_LCD_CLK_PORT,  HAL_LCD_CLK_PIN);
//  553 //  HAL_CONFIG_IO_PERIPHERAL(HAL_LCD_MOSI_PORT, HAL_LCD_MOSI_PIN);
//  554 //  HAL_CONFIG_IO_PERIPHERAL(HAL_LCD_MISO_PORT, HAL_LCD_MISO_PIN);
//  555 
//  556 
//  557   /* Set SPI speed to 1 MHz (the values assume system clk of 32MHz)
//  558    * Confirm on board that this results in 1MHz spi clk.
//  559    */
//  560 //  baud_exponent = 15;
//  561 //  baud_mantissa =  0;
//  562 
//  563   /* Configure SPI */
//  564 //  U1UCR  = 0x80;      /* Flush and goto IDLE state. 8-N-1. */
//  565 //  U1CSR  = 0x00;      /* SPI mode, master. */
//  566 //  U1GCR  = HAL_SPI_TRANSFER_MSB_FIRST | HAL_SPI_CLOCK_PHA_0 | HAL_SPI_CLOCK_POL_LO | baud_exponent;
//  567 //  U1BAUD = baud_mantissa;
//  568 //}
//  569 
//  570 /**************************************************************************************************
//  571  * @fn      HalLcd_HW_Control
//  572  *
//  573  * @brief   Write 1 command to the LCD
//  574  *
//  575  * @param   uint8 cmd - command to be written to the LCD
//  576  *
//  577  * @return  None
//  578  **************************************************************************************************/

        RSEG BANKED_CODE:CODE:NOROOT(0)
//  579 void HalLcd_HW_Control(uint8 cmd)
HalLcd_HW_Control:
        CFI Block cfiBlock8 Using cfiCommon0
        CFI Function HalLcd_HW_Control
        CODE
//  580 {
        FUNCALL HalLcd_HW_Control, HalLcd_HW_WaitUs
        LOCFRAME ISTACK, 0, STACK
        LOCFRAME PSTACK, 0, STACK
        LOCFRAME XSTACK, 9, STACK
        LOCFRAME IOVERLAY, 0, STATIC
        LOCFRAME DOVERLAY, 0, STATIC
        ARGFRAME ISTACK, 0, STACK
        ARGFRAME PSTACK, 0, STACK
        ARGFRAME XSTACK, 9, STACK
        ARGFRAME IOVERLAY, 0, STATIC
        ARGFRAME DOVERLAY, 0, STATIC
        FUNCALL HalLcd_HW_Control, HalLcd_HW_WaitUs
        LOCFRAME ISTACK, 0, STACK
        LOCFRAME PSTACK, 0, STACK
        LOCFRAME XSTACK, 9, STACK
        LOCFRAME IOVERLAY, 0, STATIC
        LOCFRAME DOVERLAY, 0, STATIC
        ARGFRAME ISTACK, 0, STACK
        ARGFRAME PSTACK, 0, STACK
        ARGFRAME XSTACK, 9, STACK
        ARGFRAME IOVERLAY, 0, STATIC
        ARGFRAME DOVERLAY, 0, STATIC
        MOV     A,#-0x9
        LCALL   ?BANKED_ENTER_XDATA
        CFI DPH0 load(1, XDATA, add(CFA_XSP16, literal(-1)))
        CFI DPL0 load(1, XDATA, add(CFA_XSP16, literal(-2)))
        CFI ?BRET_EXT load(1, XDATA, add(CFA_XSP16, literal(-3)))
        CFI ?RET_HIGH load(1, XDATA, add(CFA_XSP16, literal(-4)))
        CFI ?RET_LOW load(1, XDATA, add(CFA_XSP16, literal(-5)))
        CFI R7 load(1, XDATA, add(CFA_XSP16, literal(-6)))
        CFI V0 load(1, XDATA, add(CFA_XSP16, literal(-7)))
        CFI VB load(1, XDATA, add(CFA_XSP16, literal(-8)))
        CFI R6 load(1, XDATA, add(CFA_XSP16, literal(-9)))
        CFI CFA_SP SP+0
        CFI CFA_XSP16 add(XSP16, 9)
        ; Saved register size: 9
        ; Auto size: 0
        MOV     A,R1
        MOV     R7,A
//  581   //我屏蔽的LCD_SPI_BEGIN();
//  582   //我屏蔽的LCD_DO_CONTROL();
//  583   //我屏蔽的LCD_SPI_TX(cmd);
//  584   //我屏蔽的LCD_SPI_WAIT_RXRDY();
//  585   //我屏蔽的LCD_SPI_END();
//  586   
//  587   //以下是我加的
//  588   	unsigned char j;
//  589 
//  590 	cs1 = 0;
        CLR     0x90.5
//  591         rs = 0;
        CLR     0x90.6
//  592 	
//  593 	for (j = 0; j < 8; j++)
        MOV     R6,#0x0
        SJMP    ??HalLcd_HW_Control_0
//  594 	      {
//  595 		sclk=0;
//  596                   if(cmd&0x80)  sid = 1;
//  597                 else sid = 0;
??HalLcd_HW_Control_1:
        CLR     0x80.0
//  598                 HalLcd_HW_WaitUs(1);
??HalLcd_HW_Control_2:
        ; Setup parameters for call to function HalLcd_HW_WaitUs
        MOV     R2,#0x1
        MOV     R3,#0x0
        LCALL   ??HalLcd_HW_WaitUs?relay
//  599 		sclk = 1;
        SETB    0x90.2
//  600 		HalLcd_HW_WaitUs(1);
        ; Setup parameters for call to function HalLcd_HW_WaitUs
        MOV     R2,#0x1
        MOV     R3,#0x0
        LCALL   ??HalLcd_HW_WaitUs?relay
//  601 		cmd = cmd << 1;
        MOV     A,R7
        CLR     C
        RLC     A
        MOV     R7,A
        INC     R6
??HalLcd_HW_Control_0:
        MOV     A,R6
        CLR     C
        SUBB    A,#0x8
        JNC     ??HalLcd_HW_Control_3
        CLR     0x90.2
        MOV     A,R7
        MOV     C,0xE0 /* A   */.7
        JNC     ??HalLcd_HW_Control_1
        SETB    0x80.0
        SJMP    ??HalLcd_HW_Control_2
//  602 	      }
//  603 }
??HalLcd_HW_Control_3:
        MOV     R7,#0x1
        LJMP    ?BANKED_LEAVE_XDATA
        CFI EndBlock cfiBlock8
        REQUIRE _A_P1
        REQUIRE _A_P0
//  604 
//  605 /**************************************************************************************************
//  606  * @fn      HalLcd_HW_Write
//  607  *
//  608  * @brief   Write 1 byte to the LCD
//  609  *
//  610  * @param   uint8 data - data to be written to the LCD
//  611  *
//  612  * @return  None
//  613  **************************************************************************************************/

        RSEG BANKED_CODE:CODE:NOROOT(0)
//  614 void HalLcd_HW_Write(uint8 data)
HalLcd_HW_Write:
        CFI Block cfiBlock9 Using cfiCommon0
        CFI Function HalLcd_HW_Write
        CODE
//  615 {
        ; Saved register size: 0
        ; Auto size: 0
//  616   //我屏蔽的LCD_SPI_BEGIN();
//  617   //我屏蔽的LCD_DO_WRITE();
//  618   //我屏蔽的LCD_SPI_TX(data);
//  619   //我屏蔽的LCD_SPI_WAIT_RXRDY();
//  620   //我屏蔽的LCD_SPI_END();
//  621   
//  622   //以下是我加的
//  623   	char j;
//  624 
//  625 	cs1 = 0;
        CLR     0x90.5
//  626 	rs = 1;
        SETB    0x90.6
//  627 	
//  628 	for (j = 0; j < 8; j++)
        MOV     R0,#0x0
        SJMP    ??HalLcd_HW_Write_0
//  629 	{
//  630 		sclk = 0;
//  631                   if(data&0x80)  sid = 1;
//  632                 else sid = 0;
??HalLcd_HW_Write_1:
        CLR     0x80.0
//  633 		sclk = 1;
??HalLcd_HW_Write_2:
        SETB    0x90.2
//  634 		data = data << 1;
        MOV     A,R1
        CLR     C
        RLC     A
        MOV     R1,A
        INC     R0
??HalLcd_HW_Write_0:
        MOV     A,R0
        CLR     C
        SUBB    A,#0x8
        JNC     ??HalLcd_HW_Write_3
        CLR     0x90.2
        MOV     A,R1
        MOV     C,0xE0 /* A   */.7
        JNC     ??HalLcd_HW_Write_1
        SETB    0x80.0
        SJMP    ??HalLcd_HW_Write_2
//  635 	}
//  636 }
??HalLcd_HW_Write_3:
        LJMP    ?BRET
        CFI EndBlock cfiBlock9
        REQUIRE _A_P1
        REQUIRE _A_P0
//  637 
//  638 /**************************************************************************************************
//  639  * @fn          HalLcd_HW_SetContrast
//  640  *
//  641  * @brief       Set display contrast
//  642  *
//  643  * @param       uint8 value - contrast value
//  644  *
//  645  * @return      none
//  646  **************************************************************************************************/
//  647 //屏蔽掉这个函数
//  648 /*void HalLcd_HW_SetContrast(uint8 value)
//  649 {
//  650   SET_ICONRAM_ADDR(CONTRAST_CTRL_REGISTER);
//  651   HalLcd_HW_Write(value);
//  652 }*/
//  653 
//  654 /**************************************************************************************************
//  655  * @fn      HalLcd_HW_Clear
//  656  *
//  657  * @brief   Clear the HW LCD
//  658  *
//  659  * @param   None
//  660  *
//  661  * @return  None
//  662  **************************************************************************************************/

        RSEG BANKED_CODE:CODE:NOROOT(0)
//  663 void HalLcd_HW_Clear(void)
HalLcd_HW_Clear:
        CFI Block cfiBlock10 Using cfiCommon0
        CFI Function HalLcd_HW_Clear
        CODE
//  664 {
        FUNCALL HalLcd_HW_Clear, HalLcd_HW_Write
        LOCFRAME ISTACK, 0, STACK
        LOCFRAME PSTACK, 0, STACK
        LOCFRAME XSTACK, 10, STACK
        LOCFRAME IOVERLAY, 0, STATIC
        LOCFRAME DOVERLAY, 0, STATIC
        ARGFRAME ISTACK, 0, STACK
        ARGFRAME PSTACK, 0, STACK
        ARGFRAME XSTACK, 10, STACK
        ARGFRAME IOVERLAY, 0, STATIC
        ARGFRAME DOVERLAY, 0, STATIC
        FUNCALL HalLcd_HW_Clear, HalLcd_HW_Control
        LOCFRAME ISTACK, 0, STACK
        LOCFRAME PSTACK, 0, STACK
        LOCFRAME XSTACK, 10, STACK
        LOCFRAME IOVERLAY, 0, STATIC
        LOCFRAME DOVERLAY, 0, STATIC
        ARGFRAME ISTACK, 0, STACK
        ARGFRAME PSTACK, 0, STACK
        ARGFRAME XSTACK, 10, STACK
        ARGFRAME IOVERLAY, 0, STATIC
        ARGFRAME DOVERLAY, 0, STATIC
        FUNCALL HalLcd_HW_Clear, HalLcd_HW_Control
        LOCFRAME ISTACK, 0, STACK
        LOCFRAME PSTACK, 0, STACK
        LOCFRAME XSTACK, 10, STACK
        LOCFRAME IOVERLAY, 0, STATIC
        LOCFRAME DOVERLAY, 0, STATIC
        ARGFRAME ISTACK, 0, STACK
        ARGFRAME PSTACK, 0, STACK
        ARGFRAME XSTACK, 10, STACK
        ARGFRAME IOVERLAY, 0, STATIC
        ARGFRAME DOVERLAY, 0, STATIC
        FUNCALL HalLcd_HW_Clear, HalLcd_HW_Control
        LOCFRAME ISTACK, 0, STACK
        LOCFRAME PSTACK, 0, STACK
        LOCFRAME XSTACK, 10, STACK
        LOCFRAME IOVERLAY, 0, STATIC
        LOCFRAME DOVERLAY, 0, STATIC
        ARGFRAME ISTACK, 0, STACK
        ARGFRAME PSTACK, 0, STACK
        ARGFRAME XSTACK, 10, STACK
        ARGFRAME IOVERLAY, 0, STATIC
        ARGFRAME DOVERLAY, 0, STATIC
        MOV     A,#-0xa
        LCALL   ?BANKED_ENTER_XDATA
        CFI DPH0 load(1, XDATA, add(CFA_XSP16, literal(-1)))
        CFI DPL0 load(1, XDATA, add(CFA_XSP16, literal(-2)))
        CFI ?BRET_EXT load(1, XDATA, add(CFA_XSP16, literal(-3)))
        CFI ?RET_HIGH load(1, XDATA, add(CFA_XSP16, literal(-4)))
        CFI ?RET_LOW load(1, XDATA, add(CFA_XSP16, literal(-5)))
        CFI R7 load(1, XDATA, add(CFA_XSP16, literal(-6)))
        CFI V1 load(1, XDATA, add(CFA_XSP16, literal(-7)))
        CFI V0 load(1, XDATA, add(CFA_XSP16, literal(-8)))
        CFI VB load(1, XDATA, add(CFA_XSP16, literal(-9)))
        CFI R6 load(1, XDATA, add(CFA_XSP16, literal(-10)))
        CFI CFA_SP SP+0
        CFI CFA_XSP16 add(XSP16, 10)
        ; Saved register size: 10
        ; Auto size: 0
//  665    //我屏蔽的uint8 n;
//  666 
//  667    //我屏蔽的SET_DDRAM_ADDR(0x00);
//  668    //我屏蔽的or (n = 0; n < (LCD_MAX_LINE_COUNT * HAL_LCD_MAX_CHARS); n++)
//  669    //我屏蔽的{
//  670      //我屏蔽的HalLcd_HW_Write(' ');
//  671    //我屏蔽的}
//  672   
//  673   //以下是我加的
//  674     	int i,j;
//  675 	for (i = 0; i < 9; i++)
        MOV     R6,#0x0
        MOV     R7,#0x0
        SJMP    ??HalLcd_HW_Clear_0
//  676 	{
//  677           cs1 = 0;
//  678 		HalLcd_HW_Control(0xb0+i);
//  679 		HalLcd_HW_Control(0x10);
//  680 		HalLcd_HW_Control(0x00);
//  681 		for (j = 0; j < 132; j++)
//  682 		{
//  683 			HalLcd_HW_Write(0x00);
??HalLcd_HW_Clear_1:
        ; Setup parameters for call to function HalLcd_HW_Write
        MOV     R1,#0x0
        LCALL   ??HalLcd_HW_Write?relay
//  684 		}
        MOV     A,?V0 + 0
        ADD     A,#0x1
        MOV     ?V0 + 0,A
        MOV     A,?V0 + 1
        ADDC    A,#0x0
        MOV     ?V0 + 1,A
??HalLcd_HW_Clear_2:
        CLR     C
        MOV     A,?V0 + 0
        SUBB    A,#-0x7c
        MOV     A,?V0 + 1
        SUBB    A,#0x0
        MOV     C,0xD0 /* PSW */.2
        XRL     A,PSW
        RLC     A
        JC      ??HalLcd_HW_Clear_1
        MOV     A,R6
        ADD     A,#0x1
        MOV     R6,A
        MOV     A,R7
        ADDC    A,#0x0
        MOV     R7,A
??HalLcd_HW_Clear_0:
        CLR     C
        MOV     A,R6
        SUBB    A,#0x9
        MOV     A,R7
        SUBB    A,#0x0
        MOV     C,0xD0 /* PSW */.2
        XRL     A,PSW
        RLC     A
        JNC     ??HalLcd_HW_Clear_3
        CLR     0x90.5
        ; Setup parameters for call to function HalLcd_HW_Control
        MOV     A,R6
        ADD     A,#-0x50
        MOV     R1,A
        LCALL   ??HalLcd_HW_Control?relay
        ; Setup parameters for call to function HalLcd_HW_Control
        MOV     R1,#0x10
        LCALL   ??HalLcd_HW_Control?relay
        ; Setup parameters for call to function HalLcd_HW_Control
        MOV     R1,#0x0
        LCALL   ??HalLcd_HW_Control?relay
        MOV     ?V0 + 0,#0x0
        MOV     ?V0 + 1,#0x0
        SJMP    ??HalLcd_HW_Clear_2
//  685 	}
//  686 }
??HalLcd_HW_Clear_3:
        MOV     R7,#0x2
        LJMP    ?BANKED_LEAVE_XDATA
        CFI EndBlock cfiBlock10
        REQUIRE _A_P1
//  687 
//  688 /**************************************************************************************************
//  689  * @fn      HalLcd_HW_Init
//  690  *
//  691  * @brief   Initilize HW LCD Driver.
//  692  *
//  693  * @param   None
//  694  *
//  695  * @return  None
//  696  **************************************************************************************************/

        RSEG BANKED_CODE:CODE:NOROOT(0)
//  697 void HalLcd_HW_Init(void)
HalLcd_HW_Init:
        CFI Block cfiBlock11 Using cfiCommon0
        CFI Function HalLcd_HW_Init
        CODE
//  698 {
        FUNCALL HalLcd_HW_Init, HalLcd_HW_WaitUs
        LOCFRAME ISTACK, 2, STACK
        LOCFRAME PSTACK, 0, STACK
        LOCFRAME XSTACK, 0, STACK
        LOCFRAME IOVERLAY, 0, STATIC
        LOCFRAME DOVERLAY, 0, STATIC
        ARGFRAME ISTACK, 2, STACK
        ARGFRAME PSTACK, 0, STACK
        ARGFRAME XSTACK, 0, STACK
        ARGFRAME IOVERLAY, 0, STATIC
        ARGFRAME DOVERLAY, 0, STATIC
        FUNCALL HalLcd_HW_Init, halLcd_ConfigIO
        LOCFRAME ISTACK, 2, STACK
        LOCFRAME PSTACK, 0, STACK
        LOCFRAME XSTACK, 0, STACK
        LOCFRAME IOVERLAY, 0, STATIC
        LOCFRAME DOVERLAY, 0, STATIC
        ARGFRAME ISTACK, 2, STACK
        ARGFRAME PSTACK, 0, STACK
        ARGFRAME XSTACK, 0, STACK
        ARGFRAME IOVERLAY, 0, STATIC
        ARGFRAME DOVERLAY, 0, STATIC
        FUNCALL HalLcd_HW_Init, HalLcd_HW_Control
        LOCFRAME ISTACK, 2, STACK
        LOCFRAME PSTACK, 0, STACK
        LOCFRAME XSTACK, 0, STACK
        LOCFRAME IOVERLAY, 0, STATIC
        LOCFRAME DOVERLAY, 0, STATIC
        ARGFRAME ISTACK, 2, STACK
        ARGFRAME PSTACK, 0, STACK
        ARGFRAME XSTACK, 0, STACK
        ARGFRAME IOVERLAY, 0, STATIC
        ARGFRAME DOVERLAY, 0, STATIC
        FUNCALL HalLcd_HW_Init, HalLcd_HW_WaitUs
        LOCFRAME ISTACK, 2, STACK
        LOCFRAME PSTACK, 0, STACK
        LOCFRAME XSTACK, 0, STACK
        LOCFRAME IOVERLAY, 0, STATIC
        LOCFRAME DOVERLAY, 0, STATIC
        ARGFRAME ISTACK, 2, STACK
        ARGFRAME PSTACK, 0, STACK
        ARGFRAME XSTACK, 0, STACK
        ARGFRAME IOVERLAY, 0, STATIC
        ARGFRAME DOVERLAY, 0, STATIC
        FUNCALL HalLcd_HW_Init, HalLcd_HW_Control
        LOCFRAME ISTACK, 2, STACK
        LOCFRAME PSTACK, 0, STACK
        LOCFRAME XSTACK, 0, STACK
        LOCFRAME IOVERLAY, 0, STATIC
        LOCFRAME DOVERLAY, 0, STATIC
        ARGFRAME ISTACK, 2, STACK
        ARGFRAME PSTACK, 0, STACK
        ARGFRAME XSTACK, 0, STACK
        ARGFRAME IOVERLAY, 0, STATIC
        ARGFRAME DOVERLAY, 0, STATIC
        FUNCALL HalLcd_HW_Init, HalLcd_HW_WaitUs
        LOCFRAME ISTACK, 2, STACK
        LOCFRAME PSTACK, 0, STACK
        LOCFRAME XSTACK, 0, STACK
        LOCFRAME IOVERLAY, 0, STATIC
        LOCFRAME DOVERLAY, 0, STATIC
        ARGFRAME ISTACK, 2, STACK
        ARGFRAME PSTACK, 0, STACK
        ARGFRAME XSTACK, 0, STACK
        ARGFRAME IOVERLAY, 0, STATIC
        ARGFRAME DOVERLAY, 0, STATIC
        FUNCALL HalLcd_HW_Init, HalLcd_HW_Control
        LOCFRAME ISTACK, 2, STACK
        LOCFRAME PSTACK, 0, STACK
        LOCFRAME XSTACK, 0, STACK
        LOCFRAME IOVERLAY, 0, STATIC
        LOCFRAME DOVERLAY, 0, STATIC
        ARGFRAME ISTACK, 2, STACK
        ARGFRAME PSTACK, 0, STACK
        ARGFRAME XSTACK, 0, STACK
        ARGFRAME IOVERLAY, 0, STATIC
        ARGFRAME DOVERLAY, 0, STATIC
        FUNCALL HalLcd_HW_Init, HalLcd_HW_WaitUs
        LOCFRAME ISTACK, 2, STACK
        LOCFRAME PSTACK, 0, STACK
        LOCFRAME XSTACK, 0, STACK
        LOCFRAME IOVERLAY, 0, STATIC
        LOCFRAME DOVERLAY, 0, STATIC
        ARGFRAME ISTACK, 2, STACK
        ARGFRAME PSTACK, 0, STACK
        ARGFRAME XSTACK, 0, STACK
        ARGFRAME IOVERLAY, 0, STATIC
        ARGFRAME DOVERLAY, 0, STATIC
        FUNCALL HalLcd_HW_Init, HalLcd_HW_Control
        LOCFRAME ISTACK, 2, STACK
        LOCFRAME PSTACK, 0, STACK
        LOCFRAME XSTACK, 0, STACK
        LOCFRAME IOVERLAY, 0, STATIC
        LOCFRAME DOVERLAY, 0, STATIC
        ARGFRAME ISTACK, 2, STACK
        ARGFRAME PSTACK, 0, STACK
        ARGFRAME XSTACK, 0, STACK
        ARGFRAME IOVERLAY, 0, STATIC
        ARGFRAME DOVERLAY, 0, STATIC
        FUNCALL HalLcd_HW_Init, HalLcd_HW_WaitUs
        LOCFRAME ISTACK, 2, STACK
        LOCFRAME PSTACK, 0, STACK
        LOCFRAME XSTACK, 0, STACK
        LOCFRAME IOVERLAY, 0, STATIC
        LOCFRAME DOVERLAY, 0, STATIC
        ARGFRAME ISTACK, 2, STACK
        ARGFRAME PSTACK, 0, STACK
        ARGFRAME XSTACK, 0, STACK
        ARGFRAME IOVERLAY, 0, STATIC
        ARGFRAME DOVERLAY, 0, STATIC
        FUNCALL HalLcd_HW_Init, HalLcd_HW_Control
        LOCFRAME ISTACK, 2, STACK
        LOCFRAME PSTACK, 0, STACK
        LOCFRAME XSTACK, 0, STACK
        LOCFRAME IOVERLAY, 0, STATIC
        LOCFRAME DOVERLAY, 0, STATIC
        ARGFRAME ISTACK, 2, STACK
        ARGFRAME PSTACK, 0, STACK
        ARGFRAME XSTACK, 0, STACK
        ARGFRAME IOVERLAY, 0, STATIC
        ARGFRAME DOVERLAY, 0, STATIC
        FUNCALL HalLcd_HW_Init, HalLcd_HW_WaitUs
        LOCFRAME ISTACK, 2, STACK
        LOCFRAME PSTACK, 0, STACK
        LOCFRAME XSTACK, 0, STACK
        LOCFRAME IOVERLAY, 0, STATIC
        LOCFRAME DOVERLAY, 0, STATIC
        ARGFRAME ISTACK, 2, STACK
        ARGFRAME PSTACK, 0, STACK
        ARGFRAME XSTACK, 0, STACK
        ARGFRAME IOVERLAY, 0, STATIC
        ARGFRAME DOVERLAY, 0, STATIC
        FUNCALL HalLcd_HW_Init, HalLcd_HW_Control
        LOCFRAME ISTACK, 2, STACK
        LOCFRAME PSTACK, 0, STACK
        LOCFRAME XSTACK, 0, STACK
        LOCFRAME IOVERLAY, 0, STATIC
        LOCFRAME DOVERLAY, 0, STATIC
        ARGFRAME ISTACK, 2, STACK
        ARGFRAME PSTACK, 0, STACK
        ARGFRAME XSTACK, 0, STACK
        ARGFRAME IOVERLAY, 0, STATIC
        ARGFRAME DOVERLAY, 0, STATIC
        FUNCALL HalLcd_HW_Init, HalLcd_HW_WaitUs
        LOCFRAME ISTACK, 2, STACK
        LOCFRAME PSTACK, 0, STACK
        LOCFRAME XSTACK, 0, STACK
        LOCFRAME IOVERLAY, 0, STATIC
        LOCFRAME DOVERLAY, 0, STATIC
        ARGFRAME ISTACK, 2, STACK
        ARGFRAME PSTACK, 0, STACK
        ARGFRAME XSTACK, 0, STACK
        ARGFRAME IOVERLAY, 0, STATIC
        ARGFRAME DOVERLAY, 0, STATIC
        FUNCALL HalLcd_HW_Init, HalLcd_HW_Control
        LOCFRAME ISTACK, 2, STACK
        LOCFRAME PSTACK, 0, STACK
        LOCFRAME XSTACK, 0, STACK
        LOCFRAME IOVERLAY, 0, STATIC
        LOCFRAME DOVERLAY, 0, STATIC
        ARGFRAME ISTACK, 2, STACK
        ARGFRAME PSTACK, 0, STACK
        ARGFRAME XSTACK, 0, STACK
        ARGFRAME IOVERLAY, 0, STATIC
        ARGFRAME DOVERLAY, 0, STATIC
        FUNCALL HalLcd_HW_Init, HalLcd_HW_WaitUs
        LOCFRAME ISTACK, 2, STACK
        LOCFRAME PSTACK, 0, STACK
        LOCFRAME XSTACK, 0, STACK
        LOCFRAME IOVERLAY, 0, STATIC
        LOCFRAME DOVERLAY, 0, STATIC
        ARGFRAME ISTACK, 2, STACK
        ARGFRAME PSTACK, 0, STACK
        ARGFRAME XSTACK, 0, STACK
        ARGFRAME IOVERLAY, 0, STATIC
        ARGFRAME DOVERLAY, 0, STATIC
        FUNCALL HalLcd_HW_Init, HalLcd_HW_Control
        LOCFRAME ISTACK, 2, STACK
        LOCFRAME PSTACK, 0, STACK
        LOCFRAME XSTACK, 0, STACK
        LOCFRAME IOVERLAY, 0, STATIC
        LOCFRAME DOVERLAY, 0, STATIC
        ARGFRAME ISTACK, 2, STACK
        ARGFRAME PSTACK, 0, STACK
        ARGFRAME XSTACK, 0, STACK
        ARGFRAME IOVERLAY, 0, STATIC
        ARGFRAME DOVERLAY, 0, STATIC
        FUNCALL HalLcd_HW_Init, HalLcd_HW_WaitUs
        LOCFRAME ISTACK, 2, STACK
        LOCFRAME PSTACK, 0, STACK
        LOCFRAME XSTACK, 0, STACK
        LOCFRAME IOVERLAY, 0, STATIC
        LOCFRAME DOVERLAY, 0, STATIC
        ARGFRAME ISTACK, 2, STACK
        ARGFRAME PSTACK, 0, STACK
        ARGFRAME XSTACK, 0, STACK
        ARGFRAME IOVERLAY, 0, STATIC
        ARGFRAME DOVERLAY, 0, STATIC
        FUNCALL HalLcd_HW_Init, HalLcd_HW_Control
        LOCFRAME ISTACK, 2, STACK
        LOCFRAME PSTACK, 0, STACK
        LOCFRAME XSTACK, 0, STACK
        LOCFRAME IOVERLAY, 0, STATIC
        LOCFRAME DOVERLAY, 0, STATIC
        ARGFRAME ISTACK, 2, STACK
        ARGFRAME PSTACK, 0, STACK
        ARGFRAME XSTACK, 0, STACK
        ARGFRAME IOVERLAY, 0, STATIC
        ARGFRAME DOVERLAY, 0, STATIC
        FUNCALL HalLcd_HW_Init, HalLcd_HW_WaitUs
        LOCFRAME ISTACK, 2, STACK
        LOCFRAME PSTACK, 0, STACK
        LOCFRAME XSTACK, 0, STACK
        LOCFRAME IOVERLAY, 0, STATIC
        LOCFRAME DOVERLAY, 0, STATIC
        ARGFRAME ISTACK, 2, STACK
        ARGFRAME PSTACK, 0, STACK
        ARGFRAME XSTACK, 0, STACK
        ARGFRAME IOVERLAY, 0, STATIC
        ARGFRAME DOVERLAY, 0, STATIC
        FUNCALL HalLcd_HW_Init, HalLcd_HW_Control
        LOCFRAME ISTACK, 2, STACK
        LOCFRAME PSTACK, 0, STACK
        LOCFRAME XSTACK, 0, STACK
        LOCFRAME IOVERLAY, 0, STATIC
        LOCFRAME DOVERLAY, 0, STATIC
        ARGFRAME ISTACK, 2, STACK
        ARGFRAME PSTACK, 0, STACK
        ARGFRAME XSTACK, 0, STACK
        ARGFRAME IOVERLAY, 0, STATIC
        ARGFRAME DOVERLAY, 0, STATIC
        FUNCALL HalLcd_HW_Init, HalLcd_HW_WaitUs
        LOCFRAME ISTACK, 2, STACK
        LOCFRAME PSTACK, 0, STACK
        LOCFRAME XSTACK, 0, STACK
        LOCFRAME IOVERLAY, 0, STATIC
        LOCFRAME DOVERLAY, 0, STATIC
        ARGFRAME ISTACK, 2, STACK
        ARGFRAME PSTACK, 0, STACK
        ARGFRAME XSTACK, 0, STACK
        ARGFRAME IOVERLAY, 0, STATIC
        ARGFRAME DOVERLAY, 0, STATIC
        FUNCALL HalLcd_HW_Init, HalLcd_HW_Control
        LOCFRAME ISTACK, 2, STACK
        LOCFRAME PSTACK, 0, STACK
        LOCFRAME XSTACK, 0, STACK
        LOCFRAME IOVERLAY, 0, STATIC
        LOCFRAME DOVERLAY, 0, STATIC
        ARGFRAME ISTACK, 2, STACK
        ARGFRAME PSTACK, 0, STACK
        ARGFRAME XSTACK, 0, STACK
        ARGFRAME IOVERLAY, 0, STATIC
        ARGFRAME DOVERLAY, 0, STATIC
        FUNCALL HalLcd_HW_Init, HalLcd_HW_WaitUs
        LOCFRAME ISTACK, 2, STACK
        LOCFRAME PSTACK, 0, STACK
        LOCFRAME XSTACK, 0, STACK
        LOCFRAME IOVERLAY, 0, STATIC
        LOCFRAME DOVERLAY, 0, STATIC
        ARGFRAME ISTACK, 2, STACK
        ARGFRAME PSTACK, 0, STACK
        ARGFRAME XSTACK, 0, STACK
        ARGFRAME IOVERLAY, 0, STATIC
        ARGFRAME DOVERLAY, 0, STATIC
        FUNCALL HalLcd_HW_Init, HalLcd_HW_Control
        LOCFRAME ISTACK, 2, STACK
        LOCFRAME PSTACK, 0, STACK
        LOCFRAME XSTACK, 0, STACK
        LOCFRAME IOVERLAY, 0, STATIC
        LOCFRAME DOVERLAY, 0, STATIC
        ARGFRAME ISTACK, 2, STACK
        ARGFRAME PSTACK, 0, STACK
        ARGFRAME XSTACK, 0, STACK
        ARGFRAME IOVERLAY, 0, STATIC
        ARGFRAME DOVERLAY, 0, STATIC
        FUNCALL HalLcd_HW_Init, HalLcd_HW_Clear
        LOCFRAME ISTACK, 2, STACK
        LOCFRAME PSTACK, 0, STACK
        LOCFRAME XSTACK, 0, STACK
        LOCFRAME IOVERLAY, 0, STATIC
        LOCFRAME DOVERLAY, 0, STATIC
        ARGFRAME ISTACK, 2, STACK
        ARGFRAME PSTACK, 0, STACK
        ARGFRAME XSTACK, 0, STACK
        ARGFRAME IOVERLAY, 0, STATIC
        ARGFRAME DOVERLAY, 0, STATIC
        PUSH    DPL
        CFI DPL0 Frame(CFA_SP, 4)
        CFI CFA_SP SP+-4
        PUSH    DPH
        CFI DPH0 Frame(CFA_SP, 5)
        CFI CFA_SP SP+-5
        ; Saved register size: 2
        ; Auto size: 0
//  699   //把这个函数体屏蔽
//  700   /* Initialize LCD IO lines */
//  701   //我屏蔽的halLcd_ConfigIO();
//  702 
//  703   /* Initialize SPI */
//  704   //我屏蔽的halLcd_ConfigSPI();
//  705 
//  706   /* Perform reset */
//  707   //我屏蔽的LCD_ACTIVATE_RESET();
//  708   //我屏蔽的HalLcd_HW_WaitUs(15000); // 15 ms
//  709   //我屏蔽的LCD_RELEASE_RESET();
//  710   //我屏蔽的HalLcd_HW_WaitUs(15); // 15 us
//  711 
//  712   /* Perform the initialization sequence */
//  713   //我屏蔽的FUNCTION_SET(CGRAM | COM_FORWARD | THREE_LINE);
//  714 
//  715   /* Set contrast */
//  716   //我屏蔽的HalLcd_HW_SetContrast(15);
//  717 
//  718   /* Set power */
//  719   //我屏蔽的SET_POWER_SAVE_MODE(OSC_OFF | POWER_SAVE_ON);
//  720   //我屏蔽的SET_POWER_CTRL(VOLTAGE_DIVIDER_ON | CONVERTER_AND_REG_ON);
//  721   //我屏蔽的SET_BIAS_CTRL(BIAS_1_5);
//  722   //我屏蔽的HalLcd_HW_WaitUs(21000);// 21 ms
//  723 
//  724   /* Clear the display */
//  725   //我屏蔽的HalLcd_HW_Clear();
//  726   //我屏蔽的HalLcd_HW_ClearAllSpecChars();
//  727   //我屏蔽的SET_DISPLAY_CTRL(DISPLAY_CTRL_ON | DISPLAY_CTRL_BLINK_OFF | DISPLAY_CTRL_CURSOR_OFF);
//  728 //以下是我加的
//  729 
//  730           
//  731     HalLcd_HW_WaitUs(20);
        ; Setup parameters for call to function HalLcd_HW_WaitUs
        MOV     R2,#0x14
        MOV     R3,#0x0
        LCALL   ??HalLcd_HW_WaitUs?relay
//  732     halLcd_ConfigIO();
        ; Setup parameters for call to function halLcd_ConfigIO
        LCALL   ??halLcd_ConfigIO?relay
//  733         
//  734 	HalLcd_HW_Control(0xe2);          //软复位
        ; Setup parameters for call to function HalLcd_HW_Control
        MOV     R1,#-0x1e
        LCALL   ??HalLcd_HW_Control?relay
//  735     HalLcd_HW_WaitUs(15);
        ; Setup parameters for call to function HalLcd_HW_WaitUs
        MOV     R2,#0xf
        MOV     R3,#0x0
        LCALL   ??HalLcd_HW_WaitUs?relay
//  736         HalLcd_HW_Control(0x2c);          //升压步聚1
        ; Setup parameters for call to function HalLcd_HW_Control
        MOV     R1,#0x2c
        LCALL   ??HalLcd_HW_Control?relay
//  737     HalLcd_HW_WaitUs(15);
        ; Setup parameters for call to function HalLcd_HW_WaitUs
        MOV     R2,#0xf
        MOV     R3,#0x0
        LCALL   ??HalLcd_HW_WaitUs?relay
//  738 	HalLcd_HW_Control(0x2e);          //升压步聚2
        ; Setup parameters for call to function HalLcd_HW_Control
        MOV     R1,#0x2e
        LCALL   ??HalLcd_HW_Control?relay
//  739     HalLcd_HW_WaitUs(15);
        ; Setup parameters for call to function HalLcd_HW_WaitUs
        MOV     R2,#0xf
        MOV     R3,#0x0
        LCALL   ??HalLcd_HW_WaitUs?relay
//  740 	HalLcd_HW_Control(0x2f);          //升压步聚
        ; Setup parameters for call to function HalLcd_HW_Control
        MOV     R1,#0x2f
        LCALL   ??HalLcd_HW_Control?relay
//  741     HalLcd_HW_WaitUs(15);
        ; Setup parameters for call to function HalLcd_HW_WaitUs
        MOV     R2,#0xf
        MOV     R3,#0x0
        LCALL   ??HalLcd_HW_WaitUs?relay
//  742 	HalLcd_HW_Control(0x23);          //粗调对比度，可设置范围20～27
        ; Setup parameters for call to function HalLcd_HW_Control
        MOV     R1,#0x23
        LCALL   ??HalLcd_HW_Control?relay
//  743     HalLcd_HW_WaitUs(15);
        ; Setup parameters for call to function HalLcd_HW_WaitUs
        MOV     R2,#0xf
        MOV     R3,#0x0
        LCALL   ??HalLcd_HW_WaitUs?relay
//  744         HalLcd_HW_Control(0x81);          //微调对比度
        ; Setup parameters for call to function HalLcd_HW_Control
        MOV     R1,#-0x7f
        LCALL   ??HalLcd_HW_Control?relay
//  745     HalLcd_HW_WaitUs(15);
        ; Setup parameters for call to function HalLcd_HW_WaitUs
        MOV     R2,#0xf
        MOV     R3,#0x0
        LCALL   ??HalLcd_HW_WaitUs?relay
//  746         HalLcd_HW_Control(0x1f); 
        ; Setup parameters for call to function HalLcd_HW_Control
        MOV     R1,#0x1f
        LCALL   ??HalLcd_HW_Control?relay
//  747     HalLcd_HW_WaitUs(15);
        ; Setup parameters for call to function HalLcd_HW_WaitUs
        MOV     R2,#0xf
        MOV     R3,#0x0
        LCALL   ??HalLcd_HW_WaitUs?relay
//  748         HalLcd_HW_Control(0xa1);
        ; Setup parameters for call to function HalLcd_HW_Control
        MOV     R1,#-0x5f
        LCALL   ??HalLcd_HW_Control?relay
//  749     HalLcd_HW_WaitUs(15);
        ; Setup parameters for call to function HalLcd_HW_WaitUs
        MOV     R2,#0xf
        MOV     R3,#0x0
        LCALL   ??HalLcd_HW_WaitUs?relay
//  750         HalLcd_HW_Control(0xc8);
        ; Setup parameters for call to function HalLcd_HW_Control
        MOV     R1,#-0x38
        LCALL   ??HalLcd_HW_Control?relay
//  751     HalLcd_HW_WaitUs(15);
        ; Setup parameters for call to function HalLcd_HW_WaitUs
        MOV     R2,#0xf
        MOV     R3,#0x0
        LCALL   ??HalLcd_HW_WaitUs?relay
//  752 	HalLcd_HW_Control(0xa0);          //行扫描顺序：从上到下
        ; Setup parameters for call to function HalLcd_HW_Control
        MOV     R1,#-0x60
        LCALL   ??HalLcd_HW_Control?relay
//  753     HalLcd_HW_WaitUs(15);
        ; Setup parameters for call to function HalLcd_HW_WaitUs
        MOV     R2,#0xf
        MOV     R3,#0x0
        LCALL   ??HalLcd_HW_WaitUs?relay
//  754         HalLcd_HW_Control(0x40);          //升压电路设置指令代码
        ; Setup parameters for call to function HalLcd_HW_Control
        MOV     R1,#0x40
        LCALL   ??HalLcd_HW_Control?relay
//  755     HalLcd_HW_WaitUs(15);
        ; Setup parameters for call to function HalLcd_HW_WaitUs
        MOV     R2,#0xf
        MOV     R3,#0x0
        LCALL   ??HalLcd_HW_WaitUs?relay
//  756         HalLcd_HW_Control(0xaf);          //开显示 
        ; Setup parameters for call to function HalLcd_HW_Control
        MOV     R1,#-0x51
        LCALL   ??HalLcd_HW_Control?relay
//  757         HalLcd_HW_Clear(); 
        ; Setup parameters for call to function HalLcd_HW_Clear
        LCALL   ??HalLcd_HW_Clear?relay
//  758 }
        POP     DPH
        CFI DPH0 SameValue
        CFI CFA_SP SP+-4
        POP     DPL
        CFI DPL0 SameValue
        CFI CFA_SP SP+-3
        LJMP    ?BRET
        CFI EndBlock cfiBlock11
//  759 
//  760 /**************************************************************************************************
//  761  * @fn      HalLcd_HW_ClearAllSpecChars
//  762  *
//  763  * @brief   Clear all special chars
//  764  *
//  765  * @param   None
//  766  *
//  767  * @return  None
//  768  **************************************************************************************************/
//  769 //屏蔽掉这个函数
//  770 /*void HalLcd_HW_ClearAllSpecChars(void)
//  771 {
//  772   uint8 n = 0;
//  773 
//  774   SET_GCRAM_CHAR(0);
//  775   for (n = 0; n < (8 * 8); n++)
//  776   {
//  777     HalLcd_HW_Write(0x00);
//  778   }
//  779 }*/
//  780 
//  781 
//  782 /*      这个函数是我加的
//  783 作用    设置LCD 文本显示的其实行和列
//  784 参数1   line,范围:0~7,即能够显示的行为1~8行，也就是lcd手册里提到的page
//  785 参数2   col,范围:0~127,即lcd的总列数，显示的起始位置可以设置到每一列
//  786 */

        RSEG BANKED_CODE:CODE:NOROOT(0)
//  787 void set_ddram_line_col(uint8 line,uint8 col)
set_ddram_line_col:
        CFI Block cfiBlock12 Using cfiCommon0
        CFI Function set_ddram_line_col
        CODE
//  788 {
        FUNCALL set_ddram_line_col, HalLcd_HW_Control
        LOCFRAME ISTACK, 0, STACK
        LOCFRAME PSTACK, 0, STACK
        LOCFRAME XSTACK, 12, STACK
        LOCFRAME IOVERLAY, 0, STATIC
        LOCFRAME DOVERLAY, 0, STATIC
        ARGFRAME ISTACK, 0, STACK
        ARGFRAME PSTACK, 0, STACK
        ARGFRAME XSTACK, 12, STACK
        ARGFRAME IOVERLAY, 0, STATIC
        ARGFRAME DOVERLAY, 0, STATIC
        FUNCALL set_ddram_line_col, HalLcd_HW_WaitUs
        LOCFRAME ISTACK, 0, STACK
        LOCFRAME PSTACK, 0, STACK
        LOCFRAME XSTACK, 12, STACK
        LOCFRAME IOVERLAY, 0, STATIC
        LOCFRAME DOVERLAY, 0, STATIC
        ARGFRAME ISTACK, 0, STACK
        ARGFRAME PSTACK, 0, STACK
        ARGFRAME XSTACK, 12, STACK
        ARGFRAME IOVERLAY, 0, STATIC
        ARGFRAME DOVERLAY, 0, STATIC
        FUNCALL set_ddram_line_col, HalLcd_HW_Control
        LOCFRAME ISTACK, 0, STACK
        LOCFRAME PSTACK, 0, STACK
        LOCFRAME XSTACK, 12, STACK
        LOCFRAME IOVERLAY, 0, STATIC
        LOCFRAME DOVERLAY, 0, STATIC
        ARGFRAME ISTACK, 0, STACK
        ARGFRAME PSTACK, 0, STACK
        ARGFRAME XSTACK, 12, STACK
        ARGFRAME IOVERLAY, 0, STATIC
        ARGFRAME DOVERLAY, 0, STATIC
        FUNCALL set_ddram_line_col, HalLcd_HW_WaitUs
        LOCFRAME ISTACK, 0, STACK
        LOCFRAME PSTACK, 0, STACK
        LOCFRAME XSTACK, 12, STACK
        LOCFRAME IOVERLAY, 0, STATIC
        LOCFRAME DOVERLAY, 0, STATIC
        ARGFRAME ISTACK, 0, STACK
        ARGFRAME PSTACK, 0, STACK
        ARGFRAME XSTACK, 12, STACK
        ARGFRAME IOVERLAY, 0, STATIC
        ARGFRAME DOVERLAY, 0, STATIC
        FUNCALL set_ddram_line_col, HalLcd_HW_Control
        LOCFRAME ISTACK, 0, STACK
        LOCFRAME PSTACK, 0, STACK
        LOCFRAME XSTACK, 12, STACK
        LOCFRAME IOVERLAY, 0, STATIC
        LOCFRAME DOVERLAY, 0, STATIC
        ARGFRAME ISTACK, 0, STACK
        ARGFRAME PSTACK, 0, STACK
        ARGFRAME XSTACK, 12, STACK
        ARGFRAME IOVERLAY, 0, STATIC
        ARGFRAME DOVERLAY, 0, STATIC
        FUNCALL set_ddram_line_col, HalLcd_HW_WaitUs
        LOCFRAME ISTACK, 0, STACK
        LOCFRAME PSTACK, 0, STACK
        LOCFRAME XSTACK, 12, STACK
        LOCFRAME IOVERLAY, 0, STATIC
        LOCFRAME DOVERLAY, 0, STATIC
        ARGFRAME ISTACK, 0, STACK
        ARGFRAME PSTACK, 0, STACK
        ARGFRAME XSTACK, 12, STACK
        ARGFRAME IOVERLAY, 0, STATIC
        ARGFRAME DOVERLAY, 0, STATIC
        MOV     A,#-0xc
        LCALL   ?BANKED_ENTER_XDATA
        CFI DPH0 load(1, XDATA, add(CFA_XSP16, literal(-1)))
        CFI DPL0 load(1, XDATA, add(CFA_XSP16, literal(-2)))
        CFI ?BRET_EXT load(1, XDATA, add(CFA_XSP16, literal(-3)))
        CFI ?RET_HIGH load(1, XDATA, add(CFA_XSP16, literal(-4)))
        CFI ?RET_LOW load(1, XDATA, add(CFA_XSP16, literal(-5)))
        CFI R7 load(1, XDATA, add(CFA_XSP16, literal(-6)))
        CFI V3 load(1, XDATA, add(CFA_XSP16, literal(-7)))
        CFI V2 load(1, XDATA, add(CFA_XSP16, literal(-8)))
        CFI V1 load(1, XDATA, add(CFA_XSP16, literal(-9)))
        CFI V0 load(1, XDATA, add(CFA_XSP16, literal(-10)))
        CFI VB load(1, XDATA, add(CFA_XSP16, literal(-11)))
        CFI R6 load(1, XDATA, add(CFA_XSP16, literal(-12)))
        CFI CFA_SP SP+0
        CFI CFA_XSP16 add(XSP16, 12)
        ; Saved register size: 12
        ; Auto size: 0
        MOV     A,R1
        MOV     R7,A
        MOV     ?V0 + 0,R2
//  789 
//  790   uint8 page,coll,coll_l,coll_h;
//  791   page = line;
        MOV     ?V0 + 1,R7
//  792   coll = col;
        MOV     ?V0 + 2,?V0 + 0
//  793   coll_h = coll>>4;
        MOV     A,?V0 + 2
        SWAP    A
        ANL     A,#0xf
        MOV     ?V0 + 3,A
//  794   coll_l = coll&0x0f;
        MOV     A,#0xf
        ANL     A,?V0 + 2
        MOV     R6,A
//  795   HalLcd_HW_Control(0xB0+page);
        ; Setup parameters for call to function HalLcd_HW_Control
        MOV     A,#-0x50
        ADD     A,?V0 + 1
        MOV     R1,A
        LCALL   ??HalLcd_HW_Control?relay
//  796   HalLcd_HW_WaitUs(15); // 15 us
        ; Setup parameters for call to function HalLcd_HW_WaitUs
        MOV     R2,#0xf
        MOV     R3,#0x0
        LCALL   ??HalLcd_HW_WaitUs?relay
//  797   HalLcd_HW_Control(0x10+coll_h);
        ; Setup parameters for call to function HalLcd_HW_Control
        MOV     A,#0x10
        ADD     A,?V0 + 3
        MOV     R1,A
        LCALL   ??HalLcd_HW_Control?relay
//  798   HalLcd_HW_WaitUs(15); // 15 us
        ; Setup parameters for call to function HalLcd_HW_WaitUs
        MOV     R2,#0xf
        MOV     R3,#0x0
        LCALL   ??HalLcd_HW_WaitUs?relay
//  799   HalLcd_HW_Control(0x00+coll_l);
        ; Setup parameters for call to function HalLcd_HW_Control
        MOV     A,R6
        MOV     R1,A
        LCALL   ??HalLcd_HW_Control?relay
//  800   HalLcd_HW_WaitUs(15); // 15 us
        ; Setup parameters for call to function HalLcd_HW_WaitUs
        MOV     R2,#0xf
        MOV     R3,#0x0
        LCALL   ??HalLcd_HW_WaitUs?relay
//  801 }
        MOV     R7,#0x4
        LJMP    ?BANKED_LEAVE_XDATA
        CFI EndBlock cfiBlock12
//  802 
//  803 /*       这个函数是我加的
//  804 作用     显示一个字节的字符，该字符大小为宽5个点，高7个点
//  805 参数1    page,范围0~7,共8行
//  806 参数2    column,范围0~127
//  807 参数3    text,要显示的字符，该值为ascii码
//  808 */

        RSEG BANKED_CODE:CODE:NOROOT(0)
//  809 void DisplayByte_5x7(uint8 page,uint8 column,char text)
DisplayByte_5x7:
        CFI Block cfiBlock13 Using cfiCommon0
        CFI Function DisplayByte_5x7
        CODE
//  810 {
        FUNCALL DisplayByte_5x7, set_ddram_line_col
        LOCFRAME ISTACK, 0, STACK
        LOCFRAME PSTACK, 0, STACK
        LOCFRAME XSTACK, 13, STACK
        LOCFRAME IOVERLAY, 0, STATIC
        LOCFRAME DOVERLAY, 0, STATIC
        ARGFRAME ISTACK, 0, STACK
        ARGFRAME PSTACK, 0, STACK
        ARGFRAME XSTACK, 13, STACK
        ARGFRAME IOVERLAY, 0, STATIC
        ARGFRAME DOVERLAY, 0, STATIC
        FUNCALL DisplayByte_5x7, HalLcd_HW_Write
        LOCFRAME ISTACK, 0, STACK
        LOCFRAME PSTACK, 0, STACK
        LOCFRAME XSTACK, 13, STACK
        LOCFRAME IOVERLAY, 0, STATIC
        LOCFRAME DOVERLAY, 0, STATIC
        ARGFRAME ISTACK, 0, STACK
        ARGFRAME PSTACK, 0, STACK
        ARGFRAME XSTACK, 13, STACK
        ARGFRAME IOVERLAY, 0, STATIC
        ARGFRAME DOVERLAY, 0, STATIC
        FUNCALL DisplayByte_5x7, HalLcd_HW_Write
        LOCFRAME ISTACK, 0, STACK
        LOCFRAME PSTACK, 0, STACK
        LOCFRAME XSTACK, 13, STACK
        LOCFRAME IOVERLAY, 0, STATIC
        LOCFRAME DOVERLAY, 0, STATIC
        ARGFRAME ISTACK, 0, STACK
        ARGFRAME PSTACK, 0, STACK
        ARGFRAME XSTACK, 13, STACK
        ARGFRAME IOVERLAY, 0, STATIC
        ARGFRAME DOVERLAY, 0, STATIC
        FUNCALL DisplayByte_5x7, set_ddram_line_col
        LOCFRAME ISTACK, 0, STACK
        LOCFRAME PSTACK, 0, STACK
        LOCFRAME XSTACK, 13, STACK
        LOCFRAME IOVERLAY, 0, STATIC
        LOCFRAME DOVERLAY, 0, STATIC
        ARGFRAME ISTACK, 0, STACK
        ARGFRAME PSTACK, 0, STACK
        ARGFRAME XSTACK, 13, STACK
        ARGFRAME IOVERLAY, 0, STATIC
        ARGFRAME DOVERLAY, 0, STATIC
        FUNCALL DisplayByte_5x7, HalLcd_HW_Write
        LOCFRAME ISTACK, 0, STACK
        LOCFRAME PSTACK, 0, STACK
        LOCFRAME XSTACK, 13, STACK
        LOCFRAME IOVERLAY, 0, STATIC
        LOCFRAME DOVERLAY, 0, STATIC
        ARGFRAME ISTACK, 0, STACK
        ARGFRAME PSTACK, 0, STACK
        ARGFRAME XSTACK, 13, STACK
        ARGFRAME IOVERLAY, 0, STATIC
        ARGFRAME DOVERLAY, 0, STATIC
        MOV     A,#-0xd
        LCALL   ?BANKED_ENTER_XDATA
        CFI DPH0 load(1, XDATA, add(CFA_XSP16, literal(-1)))
        CFI DPL0 load(1, XDATA, add(CFA_XSP16, literal(-2)))
        CFI ?BRET_EXT load(1, XDATA, add(CFA_XSP16, literal(-3)))
        CFI ?RET_HIGH load(1, XDATA, add(CFA_XSP16, literal(-4)))
        CFI ?RET_LOW load(1, XDATA, add(CFA_XSP16, literal(-5)))
        CFI R7 load(1, XDATA, add(CFA_XSP16, literal(-6)))
        CFI V4 load(1, XDATA, add(CFA_XSP16, literal(-7)))
        CFI V3 load(1, XDATA, add(CFA_XSP16, literal(-8)))
        CFI V2 load(1, XDATA, add(CFA_XSP16, literal(-9)))
        CFI V1 load(1, XDATA, add(CFA_XSP16, literal(-10)))
        CFI V0 load(1, XDATA, add(CFA_XSP16, literal(-11)))
        CFI VB load(1, XDATA, add(CFA_XSP16, literal(-12)))
        CFI R6 load(1, XDATA, add(CFA_XSP16, literal(-13)))
        CFI CFA_SP SP+0
        CFI CFA_XSP16 add(XSP16, 13)
        ; Saved register size: 13
        ; Auto size: 0
        MOV     ?V0 + 1,R1
        MOV     ?V0 + 0,R2
        MOV     ?V0 + 4,R3
//  811 	int j,k;
//  812 
//  813 	if((text>=0x20)&&(text<0x7e)){/*需要显示的文字*/
        MOV     A,?V0 + 4
        CLR     C
        SUBB    A,#0x20
        CLR     C
        SUBB    A,#0x5e
        JNC     ??DisplayByte_5x7_0
//  814 		j=text-0x20;/*寻址，通过字符的ascii码找到点阵库中的改字符的位置*/
        MOV     ?V0 + 2,?V0 + 4
        MOV     ?V0 + 3,#0x0
        MOV     A,?V0 + 2
        ADD     A,#-0x20
        MOV     ?V0 + 2,A
        MOV     A,?V0 + 3
        ADDC    A,#-0x1
        MOV     ?V0 + 3,A
//  815 		set_ddram_line_col(page,column);
        ; Setup parameters for call to function set_ddram_line_col
        MOV     R2,?V0 + 0
        MOV     R1,?V0 + 1
        LCALL   ??set_ddram_line_col?relay
//  816 		for(k=0;k<5;k++)
        MOV     R6,#0x0
        MOV     R7,#0x0
        SJMP    ??DisplayByte_5x7_1
//  817 		{
//  818 			HalLcd_HW_Write(ascii_table_5x7[j][k]);/*显示5x7的ASCII字到LCD上，y为页地址，x为列地址，最后为数据*/
??DisplayByte_5x7_2:
        ; Setup parameters for call to function HalLcd_HW_Write
        MOV     R0,?V0 + 2
        MOV     R1,?V0 + 3
        MOV     A,R0
        MOV     B,#0x5
        MUL     AB
        XCH     A,R0
        MOV     R2,B
        MOV     B,#0x0
        MUL     AB
        ADD     A,R2
        MOV     R2,A
        MOV     B,#0x5
        MOV     A,?V0 + 3
        MUL     AB
        ADD     A,R2
        MOV     R1,A
        MOV     A,#ascii_table_5x7 & 0xff
        ADD     A,R0
        MOV     R0,A
        MOV     A,#(ascii_table_5x7 >> 8) & 0xff
        ADDC    A,R1
        MOV     R1,A
        MOV     A,R0
        ADD     A,R6
        MOV     DPL,A
        MOV     A,R1
        ADDC    A,R7
        MOV     DPH,A
        CLR     A
        MOVC    A,@A+DPTR
        MOV     R1,A
        LCALL   ??HalLcd_HW_Write?relay
//  819 		}
        MOV     A,R6
        ADD     A,#0x1
        MOV     R6,A
        MOV     A,R7
        ADDC    A,#0x0
        MOV     R7,A
??DisplayByte_5x7_1:
        CLR     C
        MOV     A,R6
        SUBB    A,#0x5
        MOV     A,R7
        SUBB    A,#0x0
        MOV     C,0xD0 /* PSW */.2
        XRL     A,PSW
        RLC     A
        JC      ??DisplayByte_5x7_2
//  820 		//第六列写入0，即清除上一次留下来的数据
//  821 		HalLcd_HW_Write(0x00);
        ; Setup parameters for call to function HalLcd_HW_Write
        MOV     R1,#0x0
        LCALL   ??HalLcd_HW_Write?relay
//  822 		column+=6;
        MOV     A,#0x6
        ADD     A,?V0 + 0
        MOV     ?V0 + 0,A
        SJMP    ??DisplayByte_5x7_3
//  823 	}else if(text==0x00){/*不需要显示，清空指定位置*/
??DisplayByte_5x7_0:
        MOV     A,?V0 + 4
        JNZ     ??DisplayByte_5x7_3
//  824 		set_ddram_line_col(page,column);
        ; Setup parameters for call to function set_ddram_line_col
        MOV     R2,?V0 + 0
        MOV     R1,?V0 + 1
        LCALL   ??set_ddram_line_col?relay
//  825 		for(k=0;k<5;k++){
        MOV     R6,#0x0
        MOV     R7,#0x0
        SJMP    ??DisplayByte_5x7_4
//  826 			HalLcd_HW_Write(0x00); //清空指定的字符位置
??DisplayByte_5x7_5:
        ; Setup parameters for call to function HalLcd_HW_Write
        MOV     R1,#0x0
        LCALL   ??HalLcd_HW_Write?relay
//  827 		}
        MOV     A,R6
        ADD     A,#0x1
        MOV     R6,A
        MOV     A,R7
        ADDC    A,#0x0
        MOV     R7,A
??DisplayByte_5x7_4:
        CLR     C
        MOV     A,R6
        SUBB    A,#0x5
        MOV     A,R7
        SUBB    A,#0x0
        MOV     C,0xD0 /* PSW */.2
        XRL     A,PSW
        RLC     A
        JC      ??DisplayByte_5x7_5
//  828 	}
//  829 
//  830 }
??DisplayByte_5x7_3:
        MOV     R7,#0x5
        LJMP    ?BANKED_LEAVE_XDATA
        CFI EndBlock cfiBlock13
//  831 
//  832 /**************************************************************************************************
//  833  * @fn      HalLcd_HW_WriteChar
//  834  *
//  835  * @brief   Write one char to the display
//  836  *
//  837  * @param   uint8 line - line number that the char will be displayed
//  838  *          uint8 col - colum where the char will be displayed
//  839  *
//  840  * @return  None
//  841  **************************************************************************************************/

        RSEG BANKED_CODE:CODE:NOROOT(0)
//  842 void HalLcd_HW_WriteChar(uint8 line, uint8 col, char text)
HalLcd_HW_WriteChar:
        CFI Block cfiBlock14 Using cfiCommon0
        CFI Function HalLcd_HW_WriteChar
        CODE
//  843 {
        FUNCALL HalLcd_HW_WriteChar, DisplayByte_5x7
        LOCFRAME ISTACK, 0, STACK
        LOCFRAME PSTACK, 0, STACK
        LOCFRAME XSTACK, 9, STACK
        LOCFRAME IOVERLAY, 0, STATIC
        LOCFRAME DOVERLAY, 0, STATIC
        ARGFRAME ISTACK, 0, STACK
        ARGFRAME PSTACK, 0, STACK
        ARGFRAME XSTACK, 9, STACK
        ARGFRAME IOVERLAY, 0, STATIC
        ARGFRAME DOVERLAY, 0, STATIC
        MOV     A,#-0x9
        LCALL   ?BANKED_ENTER_XDATA
        CFI DPH0 load(1, XDATA, add(CFA_XSP16, literal(-1)))
        CFI DPL0 load(1, XDATA, add(CFA_XSP16, literal(-2)))
        CFI ?BRET_EXT load(1, XDATA, add(CFA_XSP16, literal(-3)))
        CFI ?RET_HIGH load(1, XDATA, add(CFA_XSP16, literal(-4)))
        CFI ?RET_LOW load(1, XDATA, add(CFA_XSP16, literal(-5)))
        CFI R7 load(1, XDATA, add(CFA_XSP16, literal(-6)))
        CFI V0 load(1, XDATA, add(CFA_XSP16, literal(-7)))
        CFI VB load(1, XDATA, add(CFA_XSP16, literal(-8)))
        CFI R6 load(1, XDATA, add(CFA_XSP16, literal(-9)))
        CFI CFA_SP SP+0
        CFI CFA_XSP16 add(XSP16, 9)
        ; Saved register size: 9
        ; Auto size: 0
        MOV     A,R1
        MOV     R7,A
        MOV     ?V0 + 0,R2
        MOV     A,R3
        MOV     R6,A
//  844   //吧这个函数内容屏蔽掉，添加自己的
//  845   /*if (col < HAL_LCD_MAX_CHARS)
//  846   {
//  847     SET_DDRAM_ADDR((line - 1) * HAL_LCD_MAX_CHARS + col);
//  848     HalLcd_HW_Write(text);
//  849   }
//  850   else
//  851   {
//  852     return;
//  853   }*/
//  854   
//  855   //以下是我加的
//  856   	uint8 column = 1+col*6;
        MOV     B,#0x6
        MOV     A,?V0 + 0
        MUL     AB
        ADD     A,#0x1
        MOV     R2,A
//  857 	uint8 page = line-1;
        MOV     A,#-0x1
        ADD     A,R7
        MOV     R1,A
//  858 	if(col > 21)/*超出部分不显示*/
        MOV     A,?V0 + 0
        CLR     C
        SUBB    A,#0x16
        JNC     ??HalLcd_HW_WriteChar_0
//  859 		return;
//  860 	DisplayByte_5x7(page,column,text);
        ; Setup parameters for call to function DisplayByte_5x7
        MOV     A,R6
        MOV     R3,A
        LCALL   ??DisplayByte_5x7?relay
//  861 }
??HalLcd_HW_WriteChar_0:
        MOV     R7,#0x1
        LJMP    ?BANKED_LEAVE_XDATA
        CFI EndBlock cfiBlock14
//  862 
//  863 /**************************************************************************************************
//  864  * @fn          halLcdWriteLine
//  865  *
//  866  * @brief       Write one line on display
//  867  *
//  868  * @param       uint8 line - display line
//  869  *              char *pText - text buffer to write
//  870  *
//  871  * @return      none
//  872  **************************************************************************************************/

        RSEG BANKED_CODE:CODE:NOROOT(0)
//  873 void HalLcd_HW_WriteLine(uint8 line, const char *pText)
HalLcd_HW_WriteLine:
        CFI Block cfiBlock15 Using cfiCommon0
        CFI Function HalLcd_HW_WriteLine
        CODE
//  874 {
        FUNCALL HalLcd_HW_WriteLine, osal_strlen
        LOCFRAME ISTACK, 0, STACK
        LOCFRAME PSTACK, 0, STACK
        LOCFRAME XSTACK, 11, STACK
        LOCFRAME IOVERLAY, 0, STATIC
        LOCFRAME DOVERLAY, 0, STATIC
        ARGFRAME ISTACK, 0, STACK
        ARGFRAME PSTACK, 0, STACK
        ARGFRAME XSTACK, 11, STACK
        ARGFRAME IOVERLAY, 0, STATIC
        ARGFRAME DOVERLAY, 0, STATIC
        FUNCALL HalLcd_HW_WriteLine, HalLcd_HW_WriteChar
        LOCFRAME ISTACK, 0, STACK
        LOCFRAME PSTACK, 0, STACK
        LOCFRAME XSTACK, 11, STACK
        LOCFRAME IOVERLAY, 0, STATIC
        LOCFRAME DOVERLAY, 0, STATIC
        ARGFRAME ISTACK, 0, STACK
        ARGFRAME PSTACK, 0, STACK
        ARGFRAME XSTACK, 11, STACK
        ARGFRAME IOVERLAY, 0, STATIC
        ARGFRAME DOVERLAY, 0, STATIC
        FUNCALL HalLcd_HW_WriteLine, HalLcd_HW_WriteChar
        LOCFRAME ISTACK, 0, STACK
        LOCFRAME PSTACK, 0, STACK
        LOCFRAME XSTACK, 11, STACK
        LOCFRAME IOVERLAY, 0, STATIC
        LOCFRAME DOVERLAY, 0, STATIC
        ARGFRAME ISTACK, 0, STACK
        ARGFRAME PSTACK, 0, STACK
        ARGFRAME XSTACK, 11, STACK
        ARGFRAME IOVERLAY, 0, STATIC
        ARGFRAME DOVERLAY, 0, STATIC
        MOV     A,#-0xb
        LCALL   ?BANKED_ENTER_XDATA
        CFI DPH0 load(1, XDATA, add(CFA_XSP16, literal(-1)))
        CFI DPL0 load(1, XDATA, add(CFA_XSP16, literal(-2)))
        CFI ?BRET_EXT load(1, XDATA, add(CFA_XSP16, literal(-3)))
        CFI ?RET_HIGH load(1, XDATA, add(CFA_XSP16, literal(-4)))
        CFI ?RET_LOW load(1, XDATA, add(CFA_XSP16, literal(-5)))
        CFI R7 load(1, XDATA, add(CFA_XSP16, literal(-6)))
        CFI V2 load(1, XDATA, add(CFA_XSP16, literal(-7)))
        CFI V1 load(1, XDATA, add(CFA_XSP16, literal(-8)))
        CFI V0 load(1, XDATA, add(CFA_XSP16, literal(-9)))
        CFI VB load(1, XDATA, add(CFA_XSP16, literal(-10)))
        CFI R6 load(1, XDATA, add(CFA_XSP16, literal(-11)))
        CFI CFA_SP SP+0
        CFI CFA_XSP16 add(XSP16, 11)
        ; Saved register size: 11
        ; Auto size: 0
        MOV     ?V0 + 1,R1
        MOV     A,R2
        MOV     R6,A
        MOV     A,R3
        MOV     R7,A
//  875   //吧这个函数内容屏蔽掉
//  876   //我屏蔽的uint8 count;
//  877   //我屏蔽的uint8 totalLength = (uint8)osal_strlen( (char *)pText );
//  878 
//  879   /* Write the content first */
//  880   //我屏蔽的for (count=0; count<totalLength; count++)
//  881   //我屏蔽的{
//  882     //我屏蔽的HalLcd_HW_WriteChar(line, count, (*(pText++)));
//  883   //我屏蔽的}
//  884 
//  885   /* Write blank spaces to rest of the line */
//  886   //我屏蔽的for(count=totalLength; count<HAL_LCD_MAX_CHARS;count++)
//  887   //我屏蔽的{
//  888   //我屏蔽的  HalLcd_HW_WriteChar(line, count, ' ');
//  889   //我屏蔽的}
//  890   
//  891   //以下是我加的
//  892      uint8 count; 
//  893      uint8 totalLength = (uint8)osal_strlen( (char *)pText );
        ; Setup parameters for call to function osal_strlen
        MOV     A,R6
        MOV     R2,A
        MOV     A,R7
        MOV     R3,A
        LCALL   ??osal_strlen?relay
        MOV     A,R2
        MOV     ?V0 + 2,A
//  894      for (count=0; count<totalLength; count++)
        MOV     ?V0 + 0,#0x0
        SJMP    ??HalLcd_HW_WriteLine_0
//  895      {
//  896         HalLcd_HW_WriteChar(line,count,*pText);
??HalLcd_HW_WriteLine_1:
        ; Setup parameters for call to function HalLcd_HW_WriteChar
        MOV     DPL,R6
        MOV     DPH,R7
        MOVX    A,@DPTR
        MOV     R3,A
        MOV     R2,?V0 + 0
        MOV     R1,?V0 + 1
        LCALL   ??HalLcd_HW_WriteChar?relay
//  897         pText++;
        MOV     DPL,R6
        MOV     DPH,R7
        INC     DPTR
        MOV     R6,DPL
        MOV     R7,DPH
//  898      }  
        INC     ?V0 + 0
??HalLcd_HW_WriteLine_0:
        MOV     A,?V0 + 0
        CLR     C
        SUBB    A,?V0 + 2
        JC      ??HalLcd_HW_WriteLine_1
//  899      /* Write blank spaces to rest of the line 这行中超出字符串范围的区域清屏
//  900      以免上次这行中超出这次字符长度的字符还存在*/  
//  901      for(count=totalLength; count<21;count++)
        MOV     ?V0 + 0,?V0 + 2
        SJMP    ??HalLcd_HW_WriteLine_2
//  902   {
//  903     HalLcd_HW_WriteChar(line, count, 0x00);
??HalLcd_HW_WriteLine_3:
        ; Setup parameters for call to function HalLcd_HW_WriteChar
        MOV     R3,#0x0
        MOV     R2,?V0 + 0
        MOV     R1,?V0 + 1
        LCALL   ??HalLcd_HW_WriteChar?relay
//  904   }
        INC     ?V0 + 0
??HalLcd_HW_WriteLine_2:
        MOV     A,?V0 + 0
        CLR     C
        SUBB    A,#0x15
        JC      ??HalLcd_HW_WriteLine_3
//  905 }
        MOV     R7,#0x3
        LJMP    ?BANKED_LEAVE_XDATA
        CFI EndBlock cfiBlock15
//  906 
//  907 /**************************************************************************************************
//  908  * @fn      HalLcd_HW_WaitUs
//  909  *
//  910  * @brief   wait for x us. @ 32MHz MCU clock it takes 32 "nop"s for 1 us delay.
//  911  *
//  912  * @param   x us. range[0-65536]
//  913  *
//  914  * @return  None
//  915  **************************************************************************************************/

        RSEG BANKED_CODE:CODE:NOROOT(0)
//  916 void HalLcd_HW_WaitUs(uint16 microSecs)
HalLcd_HW_WaitUs:
        CFI Block cfiBlock16 Using cfiCommon0
        CFI Function HalLcd_HW_WaitUs
        CODE
//  917 {
        ; Saved register size: 0
        ; Auto size: 0
        SJMP    ??HalLcd_HW_WaitUs_0
//  918   while(microSecs--)
//  919   {
//  920     /* 32 NOPs == 1 usecs */
//  921     asm("nop"); asm("nop"); asm("nop"); asm("nop"); asm("nop");
??HalLcd_HW_WaitUs_1:
        nop
        nop
        nop
        nop
        nop
//  922     asm("nop"); asm("nop"); asm("nop"); asm("nop"); asm("nop");
        nop
        nop
        nop
        nop
        nop
//  923     asm("nop"); asm("nop"); asm("nop"); asm("nop"); asm("nop");
        nop
        nop
        nop
        nop
        nop
//  924     asm("nop"); asm("nop"); asm("nop"); asm("nop"); asm("nop");
        nop
        nop
        nop
        nop
        nop
//  925     asm("nop"); asm("nop"); asm("nop"); asm("nop"); asm("nop");
        nop
        nop
        nop
        nop
        nop
//  926     asm("nop"); asm("nop"); asm("nop"); asm("nop"); asm("nop");
        nop
        nop
        nop
        nop
        nop
//  927     asm("nop"); asm("nop");
        nop
        nop
//  928   }
??HalLcd_HW_WaitUs_0:
        MOV     A,R2
        MOV     R0,A
        MOV     A,R3
        MOV     R1,A
        MOV     A,R0
        ADD     A,#-0x1
        MOV     R2,A
        MOV     A,R1
        ADDC    A,#-0x1
        MOV     R3,A
        MOV     A,R0
        ORL     A,R1
        JNZ     ??HalLcd_HW_WaitUs_1
//  929 }
        LJMP    ?BRET
        CFI EndBlock cfiBlock16
//  930 

        RSEG CODE_C:CODE:REORDER:NOROOT(0)
        DATA8
//  931 __code const uint8 ascii_table_5x7[][5] = {
ascii_table_5x7:
        DB 0
        DB 0
        DB 0
        DB 0
        DB 0
        DB 0
        DB 0
        DB 79
        DB 0
        DB 0
        DB 0
        DB 7
        DB 0
        DB 7
        DB 0
        DB 20
        DB 127
        DB 20
        DB 127
        DB 20
        DB 36
        DB 42
        DB 127
        DB 42
        DB 18
        DB 35
        DB 19
        DB 8
        DB 100
        DB 98
        DB 54
        DB 73
        DB 85
        DB 34
        DB 80
        DB 0
        DB 5
        DB 7
        DB 0
        DB 0
        DB 0
        DB 28
        DB 34
        DB 65
        DB 0
        DB 0
        DB 65
        DB 34
        DB 28
        DB 0
        DB 20
        DB 8
        DB 62
        DB 8
        DB 20
        DB 8
        DB 8
        DB 62
        DB 8
        DB 8
        DB 0
        DB 80
        DB 48
        DB 0
        DB 0
        DB 8
        DB 8
        DB 8
        DB 8
        DB 8
        DB 0
        DB 96
        DB 96
        DB 0
        DB 0
        DB 32
        DB 16
        DB 8
        DB 4
        DB 2
        DB 62
        DB 81
        DB 73
        DB 69
        DB 62
        DB 0
        DB 66
        DB 127
        DB 64
        DB 0
        DB 66
        DB 97
        DB 81
        DB 73
        DB 70
        DB 33
        DB 65
        DB 69
        DB 75
        DB 49
        DB 24
        DB 20
        DB 18
        DB 127
        DB 16
        DB 39
        DB 69
        DB 69
        DB 69
        DB 57
        DB 60
        DB 74
        DB 73
        DB 73
        DB 48
        DB 1
        DB 113
        DB 9
        DB 5
        DB 3
        DB 54
        DB 73
        DB 73
        DB 73
        DB 54
        DB 6
        DB 73
        DB 73
        DB 41
        DB 30
        DB 0
        DB 54
        DB 54
        DB 0
        DB 0
        DB 0
        DB 86
        DB 54
        DB 0
        DB 0
        DB 8
        DB 20
        DB 34
        DB 65
        DB 0
        DB 20
        DB 20
        DB 20
        DB 20
        DB 20
        DB 0
        DB 65
        DB 34
        DB 20
        DB 8
        DB 2
        DB 1
        DB 81
        DB 9
        DB 6
        DB 50
        DB 73
        DB 121
        DB 65
        DB 62
        DB 126
        DB 17
        DB 17
        DB 17
        DB 126
        DB 127
        DB 73
        DB 73
        DB 73
        DB 54
        DB 62
        DB 65
        DB 65
        DB 65
        DB 34
        DB 127
        DB 65
        DB 65
        DB 34
        DB 28
        DB 127
        DB 73
        DB 73
        DB 73
        DB 65
        DB 127
        DB 9
        DB 9
        DB 9
        DB 1
        DB 62
        DB 65
        DB 73
        DB 73
        DB 122
        DB 127
        DB 8
        DB 8
        DB 8
        DB 127
        DB 0
        DB 65
        DB 127
        DB 65
        DB 0
        DB 32
        DB 64
        DB 65
        DB 63
        DB 1
        DB 127
        DB 8
        DB 20
        DB 34
        DB 65
        DB 127
        DB 64
        DB 64
        DB 64
        DB 64
        DB 127
        DB 2
        DB 12
        DB 2
        DB 127
        DB 127
        DB 4
        DB 8
        DB 16
        DB 127
        DB 62
        DB 65
        DB 65
        DB 65
        DB 62
        DB 127
        DB 9
        DB 9
        DB 9
        DB 6
        DB 62
        DB 65
        DB 81
        DB 33
        DB 94
        DB 127
        DB 9
        DB 25
        DB 41
        DB 70
        DB 70
        DB 73
        DB 73
        DB 73
        DB 49
        DB 1
        DB 1
        DB 127
        DB 1
        DB 1
        DB 63
        DB 64
        DB 64
        DB 64
        DB 63
        DB 31
        DB 32
        DB 64
        DB 32
        DB 31
        DB 63
        DB 64
        DB 56
        DB 64
        DB 63
        DB 99
        DB 20
        DB 8
        DB 20
        DB 99
        DB 7
        DB 8
        DB 112
        DB 8
        DB 7
        DB 97
        DB 81
        DB 73
        DB 69
        DB 67
        DB 0
        DB 127
        DB 65
        DB 65
        DB 0
        DB 2
        DB 4
        DB 8
        DB 16
        DB 32
        DB 0
        DB 65
        DB 65
        DB 127
        DB 0
        DB 4
        DB 2
        DB 1
        DB 2
        DB 4
        DB 64
        DB 64
        DB 64
        DB 64
        DB 64
        DB 1
        DB 2
        DB 4
        DB 0
        DB 0
        DB 32
        DB 84
        DB 84
        DB 84
        DB 120
        DB 127
        DB 72
        DB 72
        DB 72
        DB 48
        DB 56
        DB 68
        DB 68
        DB 68
        DB 68
        DB 48
        DB 72
        DB 72
        DB 72
        DB 127
        DB 56
        DB 84
        DB 84
        DB 84
        DB 88
        DB 0
        DB 8
        DB 126
        DB 9
        DB 2
        DB 72
        DB 84
        DB 84
        DB 84
        DB 60
        DB 127
        DB 8
        DB 8
        DB 8
        DB 112
        DB 0
        DB 0
        DB 122
        DB 0
        DB 0
        DB 32
        DB 64
        DB 64
        DB 61
        DB 0
        DB 127
        DB 32
        DB 40
        DB 68
        DB 0
        DB 0
        DB 65
        DB 127
        DB 64
        DB 0
        DB 124
        DB 4
        DB 56
        DB 4
        DB 124
        DB 124
        DB 8
        DB 4
        DB 4
        DB 120
        DB 56
        DB 68
        DB 68
        DB 68
        DB 56
        DB 124
        DB 20
        DB 20
        DB 20
        DB 8
        DB 8
        DB 20
        DB 20
        DB 20
        DB 124
        DB 124
        DB 8
        DB 4
        DB 4
        DB 8
        DB 72
        DB 84
        DB 84
        DB 84
        DB 36
        DB 4
        DB 4
        DB 63
        DB 68
        DB 36
        DB 60
        DB 64
        DB 64
        DB 64
        DB 60
        DB 28
        DB 32
        DB 64
        DB 32
        DB 28
        DB 60
        DB 64
        DB 48
        DB 64
        DB 60
        DB 68
        DB 40
        DB 16
        DB 40
        DB 68
        DB 4
        DB 72
        DB 48
        DB 8
        DB 4
        DB 68
        DB 100
        DB 84
        DB 76
        DB 68
        DB 8
        DB 54
        DB 65
        DB 65
        DB 0
        DB 0
        DB 0
        DB 119
        DB 0
        DB 0
        DB 0
        DB 65
        DB 65
        DB 54
        DB 8
        DB 4
        DB 2
        DB 2
        DB 2
        DB 1

        RSEG BANK_RELAYS:CODE:REORDER:NOROOT(0)
??HalLcdInit?relay:
        LCALL   ?BDISPATCH
        DATA
        DC24    HalLcdInit

        RSEG BANK_RELAYS:CODE:REORDER:NOROOT(0)
??HalLcdWriteString?relay:
        LCALL   ?BDISPATCH
        DATA
        DC24    HalLcdWriteString

        RSEG BANK_RELAYS:CODE:REORDER:NOROOT(0)
??HalLcdWriteValue?relay:
        LCALL   ?BDISPATCH
        DATA
        DC24    HalLcdWriteValue

        RSEG BANK_RELAYS:CODE:REORDER:NOROOT(0)
??HalLcdWriteScreen?relay:
        LCALL   ?BDISPATCH
        DATA
        DC24    HalLcdWriteScreen

        RSEG BANK_RELAYS:CODE:REORDER:NOROOT(0)
??HalLcdWriteStringValue?relay:
        LCALL   ?BDISPATCH
        DATA
        DC24    HalLcdWriteStringValue

        RSEG BANK_RELAYS:CODE:REORDER:NOROOT(0)
??HalLcdWriteStringValueValue?relay:
        LCALL   ?BDISPATCH
        DATA
        DC24    HalLcdWriteStringValueValue

        RSEG BANK_RELAYS:CODE:REORDER:NOROOT(0)
??HalLcdDisplayPercentBar?relay:
        LCALL   ?BDISPATCH
        DATA
        DC24    HalLcdDisplayPercentBar

        RSEG BANK_RELAYS:CODE:REORDER:NOROOT(0)
??halLcd_ConfigIO?relay:
        LCALL   ?BDISPATCH
        DATA
        DC24    halLcd_ConfigIO

        RSEG BANK_RELAYS:CODE:REORDER:NOROOT(0)
??HalLcd_HW_Control?relay:
        LCALL   ?BDISPATCH
        DATA
        DC24    HalLcd_HW_Control

        RSEG BANK_RELAYS:CODE:REORDER:NOROOT(0)
??HalLcd_HW_Write?relay:
        LCALL   ?BDISPATCH
        DATA
        DC24    HalLcd_HW_Write

        RSEG BANK_RELAYS:CODE:REORDER:NOROOT(0)
??HalLcd_HW_Clear?relay:
        LCALL   ?BDISPATCH
        DATA
        DC24    HalLcd_HW_Clear

        RSEG BANK_RELAYS:CODE:REORDER:NOROOT(0)
??HalLcd_HW_Init?relay:
        LCALL   ?BDISPATCH
        DATA
        DC24    HalLcd_HW_Init

        RSEG BANK_RELAYS:CODE:REORDER:NOROOT(0)
??set_ddram_line_col?relay:
        LCALL   ?BDISPATCH
        DATA
        DC24    set_ddram_line_col

        RSEG BANK_RELAYS:CODE:REORDER:NOROOT(0)
??DisplayByte_5x7?relay:
        LCALL   ?BDISPATCH
        DATA
        DC24    DisplayByte_5x7

        RSEG BANK_RELAYS:CODE:REORDER:NOROOT(0)
??HalLcd_HW_WriteChar?relay:
        LCALL   ?BDISPATCH
        DATA
        DC24    HalLcd_HW_WriteChar

        RSEG BANK_RELAYS:CODE:REORDER:NOROOT(0)
??HalLcd_HW_WriteLine?relay:
        LCALL   ?BDISPATCH
        DATA
        DC24    HalLcd_HW_WriteLine

        RSEG BANK_RELAYS:CODE:REORDER:NOROOT(0)
??HalLcd_HW_WaitUs?relay:
        LCALL   ?BDISPATCH
        DATA
        DC24    HalLcd_HW_WaitUs

        RSEG XDATA_ROM_C:CONST:REORDER:NOROOT(0)
        DATA8
`?<Constant "Texas Instruments">`:
        DB "Texas Instruments"

        RSEG XDATA_ROM_C:CONST:REORDER:NOROOT(0)
        DATA8
`?<Constant "[          ]  ">`:
        DB "[          ]  "

        END
//  932   {0x00,0x00,0x00,0x00,0x00},//space
//  933   {0x00,0x00,0x4f,0x00,0x00},//!
//  934   {0x00,0x07,0x00,0x07,0x00},//"
//  935   {0x14,0x7f,0x14,0x7f,0x14},//#
//  936   {0x24,0x2a,0x7f,0x2a,0x12},//$
//  937   {0x23,0x13,0x08,0x64,0x62},//%
//  938   {0x36,0x49,0x55,0x22,0x50},//&
//  939   {0x00,0x05,0x07,0x00,0x00},//]
//  940   {0x00,0x1c,0x22,0x41,0x00},//(
//  941   {0x00,0x41,0x22,0x1c,0x00},//)
//  942   {0x14,0x08,0x3e,0x08,0x14},//*
//  943   {0x08,0x08,0x3e,0x08,0x08},//+
//  944   {0x00,0x50,0x30,0x00,0x00},//,
//  945   {0x08,0x08,0x08,0x08,0x08},//-
//  946   {0x00,0x60,0x60,0x00,0x00},//.
//  947   {0x20,0x10,0x08,0x04,0x02},///
//  948   {0x3e,0x51,0x49,0x45,0x3e},//0
//  949   {0x00,0x42,0x7f,0x40,0x00},//1
//  950   {0x42,0x61,0x51,0x49,0x46},//2
//  951   {0x21,0x41,0x45,0x4b,0x31},//3
//  952   {0x18,0x14,0x12,0x7f,0x10},//4
//  953   {0x27,0x45,0x45,0x45,0x39},//5
//  954   {0x3c,0x4a,0x49,0x49,0x30},//6
//  955   {0x01,0x71,0x09,0x05,0x03},//7
//  956   {0x36,0x49,0x49,0x49,0x36},//8
//  957   {0x06,0x49,0x49,0x29,0x1e},//9
//  958   {0x00,0x36,0x36,0x00,0x00},//:
//  959   {0x00,0x56,0x36,0x00,0x00},//;
//  960   {0x08,0x14,0x22,0x41,0x00},//<
//  961   {0x14,0x14,0x14,0x14,0x14},//=
//  962   {0x00,0x41,0x22,0x14,0x08},//>
//  963   {0x02,0x01,0x51,0x09,0x06},//?
//  964   {0x32,0x49,0x79,0x41,0x3e},//@
//  965   {0x7e,0x11,0x11,0x11,0x7e},//A
//  966   {0x7f,0x49,0x49,0x49,0x36},//B
//  967   {0x3e,0x41,0x41,0x41,0x22},//C
//  968   {0x7f,0x41,0x41,0x22,0x1c},//D
//  969   {0x7f,0x49,0x49,0x49,0x41},//E
//  970   {0x7f,0x09,0x09,0x09,0x01},//F
//  971   {0x3e,0x41,0x49,0x49,0x7a},//G
//  972   {0x7f,0x08,0x08,0x08,0x7f},//H
//  973   {0x00,0x41,0x7f,0x41,0x00},//I
//  974   {0x20,0x40,0x41,0x3f,0x01},//J
//  975   {0x7f,0x08,0x14,0x22,0x41},//K
//  976   {0x7f,0x40,0x40,0x40,0x40},//L
//  977   {0x7f,0x02,0x0c,0x02,0x7f},//M
//  978   {0x7f,0x04,0x08,0x10,0x7f},//N
//  979   {0x3e,0x41,0x41,0x41,0x3e},//O
//  980   {0x7f,0x09,0x09,0x09,0x06},//P
//  981   {0x3e,0x41,0x51,0x21,0x5e},//Q
//  982   {0x7f,0x09,0x19,0x29,0x46},//R
//  983   {0x46,0x49,0x49,0x49,0x31},//S
//  984   {0x01,0x01,0x7f,0x01,0x01},//T
//  985   {0x3f,0x40,0x40,0x40,0x3f},//U
//  986   {0x1f,0x20,0x40,0x20,0x1f},//V
//  987   {0x3f,0x40,0x38,0x40,0x3f},//W
//  988   {0x63,0x14,0x08,0x14,0x63},//X
//  989   {0x07,0x08,0x70,0x08,0x07},//Y
//  990   {0x61,0x51,0x49,0x45,0x43},//Z
//  991   {0x00,0x7f,0x41,0x41,0x00},//[
//  992   {0x02,0x04,0x08,0x10,0x20},// 斜杠
//  993   {0x00,0x41,0x41,0x7f,0x00},//]
//  994   {0x04,0x02,0x01,0x02,0x04},//^
//  995   {0x40,0x40,0x40,0x40,0x40},//_
//  996   {0x01,0x02,0x04,0x00,0x00},//`
//  997   {0x20,0x54,0x54,0x54,0x78},//a
//  998   {0x7f,0x48,0x48,0x48,0x30},//b
//  999   {0x38,0x44,0x44,0x44,0x44},//c
// 1000   {0x30,0x48,0x48,0x48,0x7f},//d
// 1001   {0x38,0x54,0x54,0x54,0x58},//e
// 1002   {0x00,0x08,0x7e,0x09,0x02},//f
// 1003   {0x48,0x54,0x54,0x54,0x3c},//g
// 1004   {0x7f,0x08,0x08,0x08,0x70},//h
// 1005   {0x00,0x00,0x7a,0x00,0x00},//i
// 1006   {0x20,0x40,0x40,0x3d,0x00},//j
// 1007   {0x7f,0x20,0x28,0x44,0x00},//k
// 1008   {0x00,0x41,0x7f,0x40,0x00},//l
// 1009   {0x7c,0x04,0x38,0x04,0x7c},//m
// 1010   {0x7c,0x08,0x04,0x04,0x78},//n
// 1011   {0x38,0x44,0x44,0x44,0x38},//o
// 1012   {0x7c,0x14,0x14,0x14,0x08},//p
// 1013   {0x08,0x14,0x14,0x14,0x7c},//q
// 1014   {0x7c,0x08,0x04,0x04,0x08},//r
// 1015   {0x48,0x54,0x54,0x54,0x24},//s
// 1016   {0x04,0x04,0x3f,0x44,0x24},//t
// 1017   {0x3c,0x40,0x40,0x40,0x3c},//u
// 1018   {0x1c,0x20,0x40,0x20,0x1c},//v
// 1019   {0x3c,0x40,0x30,0x40,0x3c},//w
// 1020   {0x44,0x28,0x10,0x28,0x44},//x
// 1021   {0x04,0x48,0x30,0x08,0x04},//y
// 1022   {0x44,0x64,0x54,0x4c,0x44},//z
// 1023   {0x08,0x36,0x41,0x41,0x00},//{
// 1024   {0x00,0x00,0x77,0x00,0x00},//|
// 1025   {0x00,0x41,0x41,0x36,0x08},//}
// 1026   {0x04,0x02,0x02,0x02,0x01},//~
// 1027 };
// 1028 
// 1029 #endif
// 1030 
// 1031 
// 1032 /**************************************************************************************************
// 1033 **************************************************************************************************/
// 1034 
// 1035 
// 1036 
// 
// 2 058 bytes in segment BANKED_CODE
//   102 bytes in segment BANK_RELAYS
//   475 bytes in segment CODE_C
//     6 bytes in segment SFR_AN
//    33 bytes in segment XDATA_ROM_C
//     2 bytes in segment XDATA_Z
// 
// 2 635 bytes of CODE  memory
//    33 bytes of CONST memory
//     0 bytes of DATA  memory (+ 6 bytes shared)
//     2 bytes of XDATA memory
//
//Errors: none
//Warnings: none
