###############################################################################
#                                                                             #
# IAR C/C++ Compiler V8.10.3.10338/W32 for 8051         25/Aug/2018  23:10:09 #
# Copyright 2004-2011 IAR Systems AB.                                         #
#                                                                             #
#    Core               =  plain                                              #
#    Code model         =  banked                                             #
#    Data model         =  large                                              #
#    Calling convention =  xdata reentrant                                    #
#    Constant location  =  data_rom                                           #
#    Dptr setup         =  1,16                                               #
#    Source file        =  F:\work\iot-hardware\logger\logger\Components\mt\M #
#                          T_TASK.c                                           #
#    Command line       =  -f F:\work\iot-hardware\logger\logger\Projects\zst #
#                          ack\Samples\GenericApp\CC2530DB\..\..\..\Tools\CC2 #
#                          530DB\f8wEndev.cfg (-DCPU32MHZ -DROOT=__near_func  #
#                          -DMAC_CFG_TX_DATA_MAX=3 -DMAC_CFG_TX_MAX=6         #
#                          -DMAC_CFG_RX_MAX=3) -f F:\work\iot-hardware\logger #
#                          \logger\Projects\zstack\Samples\GenericApp\CC2530D #
#                          B\..\..\..\Tools\CC2530DB\f8wConfig.cfg            #
#                          (-DZIGBEEPRO -DSECURE=0 -DZG_SECURE_DYNAMIC=0      #
#                          -DREFLECTOR -DDEFAULT_CHANLIST=0x00000800          #
#                          -DZDAPP_CONFIG_PAN_ID=0xFFFF                       #
#                          -DNWK_START_DELAY=100 -DEXTENDED_JOINING_RANDOM_MA #
#                          SK=0x007F -DBEACON_REQUEST_DELAY=100               #
#                          -DBEACON_REQ_DELAY_MASK=0x00FF                     #
#                          -DLINK_STATUS_JITTER_MASK=0x007F                   #
#                          -DROUTE_EXPIRY_TIME=30 -DAPSC_ACK_WAIT_DURATION_PO #
#                          LLED=3000 -DNWK_INDIRECT_MSG_TIMEOUT=7             #
#                          -DMAX_RREQ_ENTRIES=8 -DAPSC_MAX_FRAME_RETRIES=3    #
#                          -DNWK_MAX_DATA_RETRIES=2                           #
#                          -DMAX_POLL_FAILURE_RETRIES=2 -DMAX_BCAST=9         #
#                          -DAPS_MAX_GROUPS=16 -DMAX_RTG_ENTRIES=40           #
#                          -DNWK_MAX_BINDING_ENTRIES=4                        #
#                          -DMAX_BINDING_CLUSTER_IDS=4 "-DDEFAULT_KEY={0x01,  #
#                          0x03, 0x05, 0x07, 0x09, 0x0B, 0x0D, 0x0F, 0x00,    #
#                          0x02, 0x04, 0x06, 0x08, 0x0A, 0x0C, 0x0D}"         #
#                          -DMAC_MAX_FRAME_SIZE=116                           #
#                          -DZDNWKMGR_MIN_TRANSMISSIONS=20 "-DCONST=const     #
#                          __code" -DGENERIC=__generic                        #
#                          -DRFD_RCVC_ALWAYS_ON=FALSE -DPOLL_RATE=1000        #
#                          -DQUEUED_POLL_RATE=100 -DRESPONSE_POLL_RATE=100)   #
#                          -DREJOIN_POLL_RATE=440 F:\work\iot-hardware\logger #
#                          \logger\Components\mt\MT_TASK.c -D NWK_AUTO_POLL   #
#                          -D ZTOOL_P1 -D MT_TASK -D MT_SYS_FUNC -D           #
#                          MT_ZDO_FUNC -D LCD_SUPPORTED=DEBUG -D              #
#                          xPOWER_SAVING -lC F:\work\iot-hardware\logger\logg #
#                          er\Projects\zstack\Samples\GenericApp\CC2530DB\End #
#                          DeviceEB\List\ -lA F:\work\iot-hardware\logger\log #
#                          ger\Projects\zstack\Samples\GenericApp\CC2530DB\En #
#                          dDeviceEB\List\ --diag_suppress Pe001,Pa010 -o     #
#                          F:\work\iot-hardware\logger\logger\Projects\zstack #
#                          \Samples\GenericApp\CC2530DB\EndDeviceEB\Obj\ -e   #
#                          --no_cse --no_unroll --no_inline --no_code_motion  #
#                          --no_tbaa --debug --core=plain --dptr=16,1         #
#                          --data_model=large --code_model=banked             #
#                          --calling_convention=xdata_reentrant               #
#                          --place_constants=data_rom --nr_virtual_regs 16    #
#                          -I F:\work\iot-hardware\logger\logger\Projects\zst #
#                          ack\Samples\GenericApp\CC2530DB\ -I                #
#                          F:\work\iot-hardware\logger\logger\Projects\zstack #
#                          \Samples\GenericApp\CC2530DB\..\Source\ -I         #
#                          F:\work\iot-hardware\logger\logger\Projects\zstack #
#                          \Samples\GenericApp\CC2530DB\..\..\..\ZMain\TI2530 #
#                          DB\ -I F:\work\iot-hardware\logger\logger\Projects #
#                          \zstack\Samples\GenericApp\CC2530DB\..\..\..\..\.. #
#                          \Components\hal\include\ -I                        #
#                          F:\work\iot-hardware\logger\logger\Projects\zstack #
#                          \Samples\GenericApp\CC2530DB\..\..\..\..\..\Compon #
#                          ents\hal\target\CC2530EB\ -I                       #
#                          F:\work\iot-hardware\logger\logger\Projects\zstack #
#                          \Samples\GenericApp\CC2530DB\..\..\..\..\..\Compon #
#                          ents\mac\include\ -I F:\work\iot-hardware\logger\l #
#                          ogger\Projects\zstack\Samples\GenericApp\CC2530DB\ #
#                          ..\..\..\..\..\Components\mac\high_level\ -I       #
#                          F:\work\iot-hardware\logger\logger\Projects\zstack #
#                          \Samples\GenericApp\CC2530DB\..\..\..\..\..\Compon #
#                          ents\mac\low_level\srf04\ -I                       #
#                          F:\work\iot-hardware\logger\logger\Projects\zstack #
#                          \Samples\GenericApp\CC2530DB\..\..\..\..\..\Compon #
#                          ents\mac\low_level\srf04\single_chip\ -I           #
#                          F:\work\iot-hardware\logger\logger\Projects\zstack #
#                          \Samples\GenericApp\CC2530DB\..\..\..\..\..\Compon #
#                          ents\mt\ -I F:\work\iot-hardware\logger\logger\Pro #
#                          jects\zstack\Samples\GenericApp\CC2530DB\..\..\..\ #
#                          ..\..\Components\osal\include\ -I                  #
#                          F:\work\iot-hardware\logger\logger\Projects\zstack #
#                          \Samples\GenericApp\CC2530DB\..\..\..\..\..\Compon #
#                          ents\services\saddr\ -I F:\work\iot-hardware\logge #
#                          r\logger\Projects\zstack\Samples\GenericApp\CC2530 #
#                          DB\..\..\..\..\..\Components\services\sdata\ -I    #
#                          F:\work\iot-hardware\logger\logger\Projects\zstack #
#                          \Samples\GenericApp\CC2530DB\..\..\..\..\..\Compon #
#                          ents\stack\af\ -I F:\work\iot-hardware\logger\logg #
#                          er\Projects\zstack\Samples\GenericApp\CC2530DB\..\ #
#                          ..\..\..\..\Components\stack\nwk\ -I               #
#                          F:\work\iot-hardware\logger\logger\Projects\zstack #
#                          \Samples\GenericApp\CC2530DB\..\..\..\..\..\Compon #
#                          ents\stack\sapi\ -I F:\work\iot-hardware\logger\lo #
#                          gger\Projects\zstack\Samples\GenericApp\CC2530DB\. #
#                          .\..\..\..\..\Components\stack\sec\ -I             #
#                          F:\work\iot-hardware\logger\logger\Projects\zstack #
#                          \Samples\GenericApp\CC2530DB\..\..\..\..\..\Compon #
#                          ents\stack\sys\ -I F:\work\iot-hardware\logger\log #
#                          ger\Projects\zstack\Samples\GenericApp\CC2530DB\.. #
#                          \..\..\..\..\Components\stack\zdo\ -I              #
#                          F:\work\iot-hardware\logger\logger\Projects\zstack #
#                          \Samples\GenericApp\CC2530DB\..\..\..\..\..\Compon #
#                          ents\zmac\ -I F:\work\iot-hardware\logger\logger\P #
#                          rojects\zstack\Samples\GenericApp\CC2530DB\..\..\. #
#                          .\..\..\Components\zmac\f8w\ -Ol                   #
#                          --require_prototypes                               #
#    List file          =  F:\work\iot-hardware\logger\logger\Projects\zstack #
#                          \Samples\GenericApp\CC2530DB\EndDeviceEB\List\MT_T #
#                          ASK.lst                                            #
#    Object file        =  F:\work\iot-hardware\logger\logger\Projects\zstack #
#                          \Samples\GenericApp\CC2530DB\EndDeviceEB\Obj\MT_TA #
#                          SK.r51                                             #
#                                                                             #
#                                                                             #
###############################################################################

F:\work\iot-hardware\logger\logger\Components\mt\MT_TASK.c
      1          /***************************************************************************************************
      2            Filename:       MT_TASK.c
      3            Revised:        $Date: 2011-06-07 15:36:01 -0700 (Tue, 07 Jun 2011) $
      4            Revision:       $Revision: 26245 $
      5          
      6            Description:    MonitorTest Task handling routines
      7          
      8            Copyright 2007-2011 Texas Instruments Incorporated. All rights reserved.
      9          
     10            IMPORTANT: Your use of this Software is limited to those specific rights
     11            granted under the terms of a software license agreement between the user
     12            who downloaded the software, his/her employer (which must be your employer)
     13            and Texas Instruments Incorporated (the "License").  You may not use this
     14            Software unless you agree to abide by the terms of the License. The License
     15            limits your use, and you acknowledge, that the Software may not be modified,
     16            copied or distributed unless embedded on a Texas Instruments microcontroller
     17            or used solely and exclusively in conjunction with a Texas Instruments radio
     18            frequency transceiver, which is integrated into your product.  Other than for
     19            the foregoing purpose, you may not use, reproduce, copy, prepare derivative
     20            works of, modify, distribute, perform, display or sell this Software and/or
     21            its documentation for any purpose.
     22          
     23            YOU FURTHER ACKNOWLEDGE AND AGREE THAT THE SOFTWARE AND DOCUMENTATION ARE
     24            PROVIDED “AS IS” WITHOUT WARRANTY OF ANY KIND, EITHER EXPRESS OR IMPLIED,
     25            INCLUDING WITHOUT LIMITATION, ANY WARRANTY OF MERCHANTABILITY, TITLE,
     26            NON-INFRINGEMENT AND FITNESS FOR A PARTICULAR PURPOSE. IN NO EVENT SHALL
     27            TEXAS INSTRUMENTS OR ITS LICENSORS BE LIABLE OR OBLIGATED UNDER CONTRACT,
     28            NEGLIGENCE, STRICT LIABILITY, CONTRIBUTION, BREACH OF WARRANTY, OR OTHER
     29            LEGAL EQUITABLE THEORY ANY DIRECT OR INDIRECT DAMAGES OR EXPENSES
     30            INCLUDING BUT NOT LIMITED TO ANY INCIDENTAL, SPECIAL, INDIRECT, PUNITIVE
     31            OR CONSEQUENTIAL DAMAGES, LOST PROFITS OR LOST DATA, COST OF PROCUREMENT
     32            OF SUBSTITUTE GOODS, TECHNOLOGY, SERVICES, OR ANY CLAIMS BY THIRD PARTIES
     33            (INCLUDING BUT NOT LIMITED TO ANY DEFENSE THEREOF), OR OTHER SIMILAR COSTS.
     34          
     35            Should you have any questions regarding your right to use this Software,
     36            contact Texas Instruments Incorporated at www.TI.com.
     37          
     38           ***************************************************************************************************/
     39          
     40          /***************************************************************************************************
     41           * INCLUDES
     42           ***************************************************************************************************/
     43          #include "ZComDef.h"
     44          #include "MT_TASK.h"
     45          #include "MT.h"
     46          #include "MT_DEBUG.h"
     47          #include "MT_UART.h"
     48          #include "MT_UTIL.h"
     49          #include "MT_SYS.h"
     50          
     51          #if !defined( NONWK )
     52          #include "MT_ZDO.h"
     53          #include "MT_AF.h"
     54          #endif  /* NONWK */
     55          
     56          #include "hal_uart.h"
     57          #include "OSAL_Memory.h"
     58          
     59          /***************************************************************************************************
     60           * LOCAL FUNCTIONS
     61           ***************************************************************************************************/
     62          
     63          static void MT_ProcessIncomingCommand( mtOSALSerialData_t *msg );
     64          
     65          /***************************************************************************************************
     66           * GLOBALS
     67           ***************************************************************************************************/
     68          

   \                                 In  segment XDATA_Z, align 1, keep-with-next
     69          uint8 MT_TaskID;
   \                     MT_TaskID:
   \   000000                DS 1
   \   000001                REQUIRE __INIT_XDATA_Z
     70          
     71          /***************************************************************************************************
     72           * @fn      MT_TaskInit
     73           *
     74           * @brief  MonitorTest Task Initialization.  This function is put into the
     75           *         task table.
     76           *
     77           * @param   task_id - task ID of the MT Task
     78           *
     79           * @return  void
     80           ***************************************************************************************************/

   \                                 In  segment BANKED_CODE, align 1, keep-with-next
     81          void MT_TaskInit(uint8 task_id)
   \                     MT_TaskInit:
     82          {
   \   000000   74F7         MOV     A,#-0x9
   \   000002   12....       LCALL   ?BANKED_ENTER_XDATA
   \   000005                ; Saved register size: 9
   \   000005                ; Auto size: 0
   \   000005   E9           MOV     A,R1
   \   000006   FE           MOV     R6,A
     83            MT_TaskID = task_id;
   \   000007   EE           MOV     A,R6
   \   000008   90....       MOV     DPTR,#MT_TaskID
   \   00000B   F0           MOVX    @DPTR,A
     84          
     85            /* Initialize the Serial port */
     86            MT_UartInit();
   \   00000C                ; Setup parameters for call to function MT_UartInit
   \   00000C   12....       LCALL   ??MT_UartInit?relay
     87          
     88            /* Register taskID - Do this after UartInit() because it will reset the taskID */
     89            MT_UartRegisterTaskID(task_id);
   \   00000F                ; Setup parameters for call to function MT_UartRegisterTaskID
   \   00000F   EE           MOV     A,R6
   \   000010   F9           MOV     R1,A
   \   000011   12....       LCALL   ??MT_UartRegisterTaskID?relay
     90          
     91            osal_set_event(task_id, MT_SECONDARY_INIT_EVENT);
   \   000014                ; Setup parameters for call to function osal_set_event
   \   000014   7A10         MOV     R2,#0x10
   \   000016   7B00         MOV     R3,#0x0
   \   000018   EE           MOV     A,R6
   \   000019   F9           MOV     R1,A
   \   00001A   12....       LCALL   ??osal_set_event?relay
   \   00001D   E9           MOV     A,R1
     92          }
   \   00001E   7F01         MOV     R7,#0x1
   \   000020   02....       LJMP    ?BANKED_LEAVE_XDATA
     93          
     94          /**************************************************************************************************
     95           * @fn      MT_ProcessEvent
     96           *
     97           * @brief   MonitorTest Task Event Processor.  This task is put into the task table.
     98           *
     99           * @param   task_id - task ID of the MT Task
    100           * @param   events - event(s) for the MT Task
    101           *
    102           * @return  Bit mask of the unprocessed MT Task events.
    103           **************************************************************************************************/

   \                                 In  segment BANKED_CODE, align 1, keep-with-next
    104          UINT16 MT_ProcessEvent(uint8 task_id, uint16 events)
   \                     MT_ProcessEvent:
    105          {
   \   000000   74F2         MOV     A,#-0xe
   \   000002   12....       LCALL   ?BANKED_ENTER_XDATA
   \   000005                ; Saved register size: 14
   \   000005                ; Auto size: 0
   \   000005   89..         MOV     ?V0 + 2,R1
   \   000007   EA           MOV     A,R2
   \   000008   FE           MOV     R6,A
   \   000009   EB           MOV     A,R3
   \   00000A   FF           MOV     R7,A
    106            /* Could be multiple events, so switch won't work */
    107            if ( events & SYS_EVENT_MSG )
   \   00000B   EE           MOV     A,R6
   \   00000C   5400         ANL     A,#0x0
   \   00000E   F8           MOV     R0,A
   \   00000F   EF           MOV     A,R7
   \   000010   5480         ANL     A,#0x80
   \   000012   F9           MOV     R1,A
   \   000013   E8           MOV     A,R0
   \   000014   49           ORL     A,R1
   \   000015   602F         JZ      ??MT_ProcessEvent_0
    108            {
    109              uint8 *msg_ptr = osal_msg_receive(task_id);
   \   000017                ; Setup parameters for call to function osal_msg_receive
   \   000017   A9..         MOV     R1,?V0 + 2
   \   000019   12....       LCALL   ??osal_msg_receive?relay
   \   00001C   8A..         MOV     ?V0 + 4,R2
   \   00001E   8B..         MOV     ?V0 + 5,R3
   \   000020   85....       MOV     ?V0 + 0,?V0 + 4
   \   000023   85....       MOV     ?V0 + 1,?V0 + 5
    110          
    111              if (msg_ptr != NULL)
   \   000026   E5..         MOV     A,?V0 + 0
   \   000028   45..         ORL     A,?V0 + 1
   \   00002A   600F         JZ      ??MT_ProcessEvent_1
    112              {
    113                MT_ProcessIncomingCommand((mtOSALSerialData_t *)msg_ptr);
   \   00002C                ; Setup parameters for call to function MT_ProcessIncomingCommand
   \   00002C   AA..         MOV     R2,?V0 + 0
   \   00002E   AB..         MOV     R3,?V0 + 1
   \   000030   12....       LCALL   ??MT_ProcessIncomingCommand?relay
    114          
    115                osal_msg_deallocate(msg_ptr);
   \   000033                ; Setup parameters for call to function osal_msg_deallocate
   \   000033   AA..         MOV     R2,?V0 + 0
   \   000035   AB..         MOV     R3,?V0 + 1
   \   000037   12....       LCALL   ??osal_msg_deallocate?relay
   \   00003A   E9           MOV     A,R1
    116              }
    117          
    118              /* Return unproccessed events */
    119              return (events ^ SYS_EVENT_MSG);
   \                     ??MT_ProcessEvent_1:
   \   00003B   EE           MOV     A,R6
   \   00003C   6400         XRL     A,#0x0
   \   00003E   FA           MOV     R2,A
   \   00003F   EF           MOV     A,R7
   \   000040   6480         XRL     A,#0x80
   \   000042   FB           MOV     R3,A
   \   000043   02....       LJMP    ??MT_ProcessEvent_2 & 0xFFFF
    120            }
    121          
    122            if ( events & MT_SECONDARY_INIT_EVENT )
   \                     ??MT_ProcessEvent_0:
   \   000046   EE           MOV     A,R6
   \   000047   5410         ANL     A,#0x10
   \   000049   600E         JZ      ??MT_ProcessEvent_3
    123            {
    124              MT_Init();
   \   00004B                ; Setup parameters for call to function MT_Init
   \   00004B   12....       LCALL   ??MT_Init?relay
    125              /* Return unproccessed events */
    126              return (events ^ MT_SECONDARY_INIT_EVENT);
   \   00004E   EE           MOV     A,R6
   \   00004F   6410         XRL     A,#0x10
   \   000051   FA           MOV     R2,A
   \   000052   EF           MOV     A,R7
   \   000053   6400         XRL     A,#0x0
   \   000055   FB           MOV     R3,A
   \   000056   02....       LJMP    ??MT_ProcessEvent_2 & 0xFFFF
    127            }
    128          
    129            if ( events & MT_ZTOOL_SERIAL_RCV_BUFFER_FULL )
   \                     ??MT_ProcessEvent_3:
   \   000059   EE           MOV     A,R6
   \   00005A   5402         ANL     A,#0x2
   \   00005C   600B         JZ      ??MT_ProcessEvent_4
    130            {
    131              /* Return unproccessed events */
    132              return (events ^ MT_ZTOOL_SERIAL_RCV_BUFFER_FULL);
   \   00005E   EE           MOV     A,R6
   \   00005F   6402         XRL     A,#0x2
   \   000061   FA           MOV     R2,A
   \   000062   EF           MOV     A,R7
   \   000063   6400         XRL     A,#0x0
   \   000065   FB           MOV     R3,A
   \   000066   02....       LJMP    ??MT_ProcessEvent_2 & 0xFFFF
    133            }
    134          
    135          #if !defined( NONWK )
    136            if ( events & MT_AF_EXEC_EVT )
   \                     ??MT_ProcessEvent_4:
   \   000069   EE           MOV     A,R6
   \   00006A   5408         ANL     A,#0x8
   \   00006C   600D         JZ      ??MT_ProcessEvent_5
    137            {
    138              MT_AfExec();
   \   00006E                ; Setup parameters for call to function MT_AfExec
   \   00006E   12....       LCALL   ??MT_AfExec?relay
    139              return (events ^ MT_AF_EXEC_EVT);
   \   000071   EE           MOV     A,R6
   \   000072   6408         XRL     A,#0x8
   \   000074   FA           MOV     R2,A
   \   000075   EF           MOV     A,R7
   \   000076   6400         XRL     A,#0x0
   \   000078   FB           MOV     R3,A
   \   000079   807A         SJMP    ??MT_ProcessEvent_2
    140            }
    141          #endif  /* NONWK */
    142          
    143            /* Handle MT_SYS_OSAL_START_TIMER callbacks */
    144          #if defined MT_SYS_FUNC
    145            if ( events & (MT_SYS_OSAL_EVENT_MASK))
   \                     ??MT_ProcessEvent_5:
   \   00007B   EE           MOV     A,R6
   \   00007C   5400         ANL     A,#0x0
   \   00007E   F8           MOV     R0,A
   \   00007F   EF           MOV     A,R7
   \   000080   540F         ANL     A,#0xf
   \   000082   F9           MOV     R1,A
   \   000083   E8           MOV     A,R0
   \   000084   49           ORL     A,R1
   \   000085   606A         JZ      ??MT_ProcessEvent_6
    146            {
    147              if (events & MT_SYS_OSAL_EVENT_0)
   \   000087   EE           MOV     A,R6
   \   000088   5400         ANL     A,#0x0
   \   00008A   F8           MOV     R0,A
   \   00008B   EF           MOV     A,R7
   \   00008C   5408         ANL     A,#0x8
   \   00008E   F9           MOV     R1,A
   \   00008F   E8           MOV     A,R0
   \   000090   49           ORL     A,R1
   \   000091   600D         JZ      ??MT_ProcessEvent_7
    148              {
    149                MT_SysOsalTimerExpired(0x00);
   \   000093                ; Setup parameters for call to function MT_SysOsalTimerExpired
   \   000093   7900         MOV     R1,#0x0
   \   000095   12....       LCALL   ??MT_SysOsalTimerExpired?relay
    150                events ^= MT_SYS_OSAL_EVENT_0;
   \   000098   7400         MOV     A,#0x0
   \   00009A   6E           XRL     A,R6
   \   00009B   FE           MOV     R6,A
   \   00009C   7408         MOV     A,#0x8
   \   00009E   6F           XRL     A,R7
   \   00009F   FF           MOV     R7,A
    151              }
    152          
    153              if (events & MT_SYS_OSAL_EVENT_1)
   \                     ??MT_ProcessEvent_7:
   \   0000A0   EE           MOV     A,R6
   \   0000A1   5400         ANL     A,#0x0
   \   0000A3   F8           MOV     R0,A
   \   0000A4   EF           MOV     A,R7
   \   0000A5   5404         ANL     A,#0x4
   \   0000A7   F9           MOV     R1,A
   \   0000A8   E8           MOV     A,R0
   \   0000A9   49           ORL     A,R1
   \   0000AA   600D         JZ      ??MT_ProcessEvent_8
    154              {
    155                MT_SysOsalTimerExpired(0x01);
   \   0000AC                ; Setup parameters for call to function MT_SysOsalTimerExpired
   \   0000AC   7901         MOV     R1,#0x1
   \   0000AE   12....       LCALL   ??MT_SysOsalTimerExpired?relay
    156                events ^= MT_SYS_OSAL_EVENT_1;
   \   0000B1   7400         MOV     A,#0x0
   \   0000B3   6E           XRL     A,R6
   \   0000B4   FE           MOV     R6,A
   \   0000B5   7404         MOV     A,#0x4
   \   0000B7   6F           XRL     A,R7
   \   0000B8   FF           MOV     R7,A
    157              }
    158          
    159              if (events & MT_SYS_OSAL_EVENT_2)
   \                     ??MT_ProcessEvent_8:
   \   0000B9   EE           MOV     A,R6
   \   0000BA   5400         ANL     A,#0x0
   \   0000BC   F8           MOV     R0,A
   \   0000BD   EF           MOV     A,R7
   \   0000BE   5402         ANL     A,#0x2
   \   0000C0   F9           MOV     R1,A
   \   0000C1   E8           MOV     A,R0
   \   0000C2   49           ORL     A,R1
   \   0000C3   600D         JZ      ??MT_ProcessEvent_9
    160              {
    161                MT_SysOsalTimerExpired(0x02);
   \   0000C5                ; Setup parameters for call to function MT_SysOsalTimerExpired
   \   0000C5   7902         MOV     R1,#0x2
   \   0000C7   12....       LCALL   ??MT_SysOsalTimerExpired?relay
    162                events ^= MT_SYS_OSAL_EVENT_2;
   \   0000CA   7400         MOV     A,#0x0
   \   0000CC   6E           XRL     A,R6
   \   0000CD   FE           MOV     R6,A
   \   0000CE   7402         MOV     A,#0x2
   \   0000D0   6F           XRL     A,R7
   \   0000D1   FF           MOV     R7,A
    163              }
    164          
    165              if (events & MT_SYS_OSAL_EVENT_3)
   \                     ??MT_ProcessEvent_9:
   \   0000D2   EE           MOV     A,R6
   \   0000D3   5400         ANL     A,#0x0
   \   0000D5   F8           MOV     R0,A
   \   0000D6   EF           MOV     A,R7
   \   0000D7   5401         ANL     A,#0x1
   \   0000D9   F9           MOV     R1,A
   \   0000DA   E8           MOV     A,R0
   \   0000DB   49           ORL     A,R1
   \   0000DC   600D         JZ      ??MT_ProcessEvent_10
    166              {
    167                MT_SysOsalTimerExpired(0x03);
   \   0000DE                ; Setup parameters for call to function MT_SysOsalTimerExpired
   \   0000DE   7903         MOV     R1,#0x3
   \   0000E0   12....       LCALL   ??MT_SysOsalTimerExpired?relay
    168                events ^= MT_SYS_OSAL_EVENT_3;
   \   0000E3   7400         MOV     A,#0x0
   \   0000E5   6E           XRL     A,R6
   \   0000E6   FE           MOV     R6,A
   \   0000E7   7401         MOV     A,#0x1
   \   0000E9   6F           XRL     A,R7
   \   0000EA   FF           MOV     R7,A
    169              }
    170          
    171              return events;
   \                     ??MT_ProcessEvent_10:
   \   0000EB   EE           MOV     A,R6
   \   0000EC   FA           MOV     R2,A
   \   0000ED   EF           MOV     A,R7
   \   0000EE   FB           MOV     R3,A
   \   0000EF   8004         SJMP    ??MT_ProcessEvent_2
    172            }
    173          #endif
    174          
    175            /* Discard or make more handlers */
    176            return 0;
   \                     ??MT_ProcessEvent_6:
   \   0000F1   7A00         MOV     R2,#0x0
   \   0000F3   7B00         MOV     R3,#0x0
   \                     ??MT_ProcessEvent_2:
   \   0000F5   7F06         MOV     R7,#0x6
   \   0000F7   02....       LJMP    ?BANKED_LEAVE_XDATA
    177          
    178          } /* MT_ProcessEvent() */
    179          
    180          /***************************************************************************************************
    181           * @fn      MT_ProcessIncomingCommand
    182           *
    183           * @brief
    184           *
    185           *   Process Event Messages.
    186           *
    187           * @param   *msg - pointer to event message
    188           *
    189           * @return
    190           ***************************************************************************************************/

   \                                 In  segment BANKED_CODE, align 1, keep-with-next
    191          static void MT_ProcessIncomingCommand( mtOSALSerialData_t *msg )
   \                     MT_ProcessIncomingCommand:
    192          {
   \   000000   74F5         MOV     A,#-0xb
   \   000002   12....       LCALL   ?BANKED_ENTER_XDATA
   \   000005                ; Saved register size: 11
   \   000005                ; Auto size: 0
    193            uint8 len, *msg_ptr = msg->msg;
   \   000005   8A82         MOV     DPL,R2
   \   000007   8B83         MOV     DPH,R3
   \   000009   A3           INC     DPTR
   \   00000A   A3           INC     DPTR
   \   00000B   E0           MOVX    A,@DPTR
   \   00000C   FE           MOV     R6,A
   \   00000D   A3           INC     DPTR
   \   00000E   E0           MOVX    A,@DPTR
   \   00000F   FF           MOV     R7,A
    194          
    195            /* Use the first byte of the message as the command ID */
    196            switch ( msg->hdr.event )
   \   000010   8A82         MOV     DPL,R2
   \   000012   8B83         MOV     DPH,R3
   \   000014   E0           MOVX    A,@DPTR
   \   000015   14           DEC     A
   \   000016   6011         JZ      ??MT_ProcessIncomingCommand_0
   \   000018   14           DEC     A
   \   000019   6017         JZ      ??MT_ProcessIncomingCommand_1
   \   00001B   24FE         ADD     A,#-0x2
   \   00001D   6018         JZ      ??MT_ProcessIncomingCommand_2
   \   00001F   24FE         ADD     A,#-0x2
   \   000021   6064         JZ      ??MT_ProcessIncomingCommand_3
   \   000023   24E2         ADD     A,#-0x1e
   \   000025   6065         JZ      ??MT_ProcessIncomingCommand_4
   \   000027   8078         SJMP    ??MT_ProcessIncomingCommand_5
    197            {
    198              case CMD_SERIAL_MSG:
    199                MT_ProcessIncoming(msg_ptr);
   \                     ??MT_ProcessIncomingCommand_0:
   \   000029                ; Setup parameters for call to function MT_ProcessIncoming
   \   000029   EE           MOV     A,R6
   \   00002A   FA           MOV     R2,A
   \   00002B   EF           MOV     A,R7
   \   00002C   FB           MOV     R3,A
   \   00002D   12....       LCALL   ??MT_ProcessIncoming?relay
    200                break;
   \   000030   806F         SJMP    ??MT_ProcessIncomingCommand_5
    201          
    202              case CMD_DEBUG_MSG:
    203                MT_ProcessDebugMsg( (mtDebugMsg_t *)msg );
   \                     ??MT_ProcessIncomingCommand_1:
   \   000032                ; Setup parameters for call to function MT_ProcessDebugMsg
   \   000032   12....       LCALL   ??MT_ProcessDebugMsg?relay
    204                break;
   \   000035   806A         SJMP    ??MT_ProcessIncomingCommand_5
    205          
    206              case CB_FUNC:
    207                /*
    208                  Build SPI message here instead of redundantly calling MT_BuildSPIMsg
    209                  because we have copied data already in the allocated message
    210                */
    211          
    212                /* msg_ptr is the beginning of the intended SPI message */
    213                len = SPI_0DATA_MSG_LEN + msg_ptr[DATALEN_FIELD];
   \                     ??MT_ProcessIncomingCommand_2:
   \   000037   8E82         MOV     DPL,R6
   \   000039   8F83         MOV     DPH,R7
   \   00003B   A3           INC     DPTR
   \   00003C   A3           INC     DPTR
   \   00003D   A3           INC     DPTR
   \   00003E   E0           MOVX    A,@DPTR
   \   00003F   2405         ADD     A,#0x5
   \   000041   F5..         MOV     ?V0 + 2,A
    214          
    215                /*
    216                  FCS goes to the last byte in the message and is calculated over all
    217                  the bytes except FCS and SOP
    218                */
    219                msg_ptr[len-1] = MT_UartCalcFCS(msg_ptr + 1, (uint8)(len-2));
   \   000043                ; Setup parameters for call to function MT_UartCalcFCS
   \   000043   74FE         MOV     A,#-0x2
   \   000045   25..         ADD     A,?V0 + 2
   \   000047   F9           MOV     R1,A
   \   000048   8E82         MOV     DPL,R6
   \   00004A   8F83         MOV     DPH,R7
   \   00004C   A3           INC     DPTR
   \   00004D   AA82         MOV     R2,DPL
   \   00004F   AB83         MOV     R3,DPH
   \   000051   12....       LCALL   ??MT_UartCalcFCS?relay
   \   000054   E9           MOV     A,R1
   \   000055   C0E0         PUSH    A
   \   000057   85....       MOV     ?V0 + 0,?V0 + 2
   \   00005A   75..00       MOV     ?V0 + 1,#0x0
   \   00005D   EE           MOV     A,R6
   \   00005E   25..         ADD     A,?V0 + 0
   \   000060   F8           MOV     R0,A
   \   000061   EF           MOV     A,R7
   \   000062   35..         ADDC    A,?V0 + 1
   \   000064   F9           MOV     R1,A
   \   000065   E8           MOV     A,R0
   \   000066   24FF         ADD     A,#-0x1
   \   000068   F582         MOV     DPL,A
   \   00006A   E9           MOV     A,R1
   \   00006B   34FF         ADDC    A,#-0x1
   \   00006D   F583         MOV     DPH,A
   \   00006F   D0E0         POP     A
   \   000071   F0           MOVX    @DPTR,A
    220          
    221          #ifdef MT_UART_DEFAULT_PORT
    222                HalUARTWrite ( MT_UART_DEFAULT_PORT, msg_ptr, len );
   \   000072                ; Setup parameters for call to function HalUARTWrite
   \   000072   85....       MOV     ?V0 + 0,?V0 + 2
   \   000075   75..00       MOV     ?V0 + 1,#0x0
   \   000078   AC..         MOV     R4,?V0 + 0
   \   00007A   AD..         MOV     R5,?V0 + 1
   \   00007C   EE           MOV     A,R6
   \   00007D   FA           MOV     R2,A
   \   00007E   EF           MOV     A,R7
   \   00007F   FB           MOV     R3,A
   \   000080   7900         MOV     R1,#0x0
   \   000082   12....       LCALL   ??HalUARTWrite?relay
    223          #endif
    224                break;
   \   000085   801A         SJMP    ??MT_ProcessIncomingCommand_5
    225          
    226              case CMD_DEBUG_STR:
    227                MT_ProcessDebugStr( (mtDebugStr_t *)msg );
   \                     ??MT_ProcessIncomingCommand_3:
   \   000087                ; Setup parameters for call to function MT_ProcessDebugStr
   \   000087   12....       LCALL   ??MT_ProcessDebugStr?relay
    228                break;
   \   00008A   8015         SJMP    ??MT_ProcessIncomingCommand_5
    229          
    230          #if !defined ( NONWK )
    231              case MT_SYS_APP_RSP_MSG:
    232                len = SPI_0DATA_MSG_LEN + msg_ptr[DATALEN_FIELD];
   \                     ??MT_ProcessIncomingCommand_4:
   \   00008C   8E82         MOV     DPL,R6
   \   00008E   8F83         MOV     DPH,R7
   \   000090   A3           INC     DPTR
   \   000091   A3           INC     DPTR
   \   000092   A3           INC     DPTR
   \   000093   E0           MOVX    A,@DPTR
   \   000094   2405         ADD     A,#0x5
   \   000096   F5..         MOV     ?V0 + 2,A
    233                MTProcessAppRspMsg( msg_ptr, len );
   \   000098                ; Setup parameters for call to function MTProcessAppRspMsg
   \   000098   A9..         MOV     R1,?V0 + 2
   \   00009A   EE           MOV     A,R6
   \   00009B   FA           MOV     R2,A
   \   00009C   EF           MOV     A,R7
   \   00009D   FB           MOV     R3,A
   \   00009E   12....       LCALL   ??MTProcessAppRspMsg?relay
    234                break;
    235          #endif  // NONWK
    236          
    237          #if defined (MT_UTIL_FUNC)
    238          #if defined ZCL_KEY_ESTABLISH
    239              case ZCL_KEY_ESTABLISH_IND:
    240                MT_UtilKeyEstablishInd((keyEstablishmentInd_t *)msg);
    241                break;
    242          #endif
    243          #endif
    244          #ifdef MT_ZDO_CB_FUNC
    245              case ZDO_STATE_CHANGE:
    246                MT_ZdoStateChangeCB((osal_event_hdr_t *)msg);
    247                break;
    248          #endif
    249          
    250              default:
    251                break;
    252            }
    253          }
   \                     ??MT_ProcessIncomingCommand_5:
   \   0000A1   7F03         MOV     R7,#0x3
   \   0000A3   02....       LJMP    ?BANKED_LEAVE_XDATA
    254          
    255          #ifdef MT_TASK
    256          /***************************************************************************************************
    257           * @fn      MT_TransportAlloc
    258           *
    259           * @brief   Allocate memory for transport msg
    260           *
    261           * @param   uint8 cmd0 - The first byte of the MT command id containing the command type and subsystem.
    262           *          uint8 len - length
    263           *
    264           * @return  pointer the allocated memory or NULL if fail to allocate the memory
    265           ***************************************************************************************************/

   \                                 In  segment BANKED_CODE, align 1, keep-with-next
    266          uint8 *MT_TransportAlloc(uint8 cmd0, uint8 len)
   \                     MT_TransportAlloc:
    267          {
   \   000000   74F6         MOV     A,#-0xa
   \   000002   12....       LCALL   ?BANKED_ENTER_XDATA
   \   000005                ; Saved register size: 10
   \   000005                ; Auto size: 0
   \   000005   EA           MOV     A,R2
   \   000006   FE           MOV     R6,A
    268            uint8 *p;
    269          
    270            (void)cmd0;  // Intentionally unreferenced parameter
    271          
    272            /* Allocate a buffer of data length + SOP+CMD+FCS (5 bytes) */
    273            p = osal_msg_allocate(len + SPI_0DATA_MSG_LEN);
   \   000007                ; Setup parameters for call to function osal_msg_allocate
   \   000007   8E..         MOV     ?V0 + 0,R6
   \   000009   75..00       MOV     ?V0 + 1,#0x0
   \   00000C   E5..         MOV     A,?V0 + 0
   \   00000E   2405         ADD     A,#0x5
   \   000010   FA           MOV     R2,A
   \   000011   E5..         MOV     A,?V0 + 1
   \   000013   3400         ADDC    A,#0x0
   \   000015   FB           MOV     R3,A
   \   000016   12....       LCALL   ??osal_msg_allocate?relay
   \   000019   8A..         MOV     ?V0 + 0,R2
   \   00001B   8B..         MOV     ?V0 + 1,R3
   \   00001D   AA..         MOV     R2,?V0 + 0
   \   00001F   AB..         MOV     R3,?V0 + 1
    274          
    275            if (p)
   \   000021   EA           MOV     A,R2
   \   000022   4B           ORL     A,R3
   \   000023   600B         JZ      ??MT_TransportAlloc_0
    276            {
    277              p++; /* Save space for SOP_VALUE, msg structure */
   \   000025   8A82         MOV     DPL,R2
   \   000027   8B83         MOV     DPH,R3
   \   000029   A3           INC     DPTR
   \   00002A   AA82         MOV     R2,DPL
   \   00002C   AB83         MOV     R3,DPH
    278              return p;
   \   00002E   8004         SJMP    ??MT_TransportAlloc_1
    279            }
    280            else
    281            {
    282              return NULL;
   \                     ??MT_TransportAlloc_0:
   \   000030   7A00         MOV     R2,#0x0
   \   000032   7B00         MOV     R3,#0x0
   \                     ??MT_TransportAlloc_1:
   \   000034   7F02         MOV     R7,#0x2
   \   000036   02....       LJMP    ?BANKED_LEAVE_XDATA
    283            }
    284          }
    285          
    286          /***************************************************************************************************
    287           * @fn      MT_TransportSend
    288           *
    289           * @brief   Fill in SOP and FCS then send out the msg
    290           *
    291           * @param   uint8 *pBuf - pointer to the message that contains CMD, length, data and FCS
    292           *
    293           * @return  None
    294           ***************************************************************************************************/

   \                                 In  segment BANKED_CODE, align 1, keep-with-next
    295          void MT_TransportSend(uint8 *pBuf)
   \                     MT_TransportSend:
    296          {
   \   000000   74F5         MOV     A,#-0xb
   \   000002   12....       LCALL   ?BANKED_ENTER_XDATA
   \   000005                ; Saved register size: 11
   \   000005                ; Auto size: 0
    297            uint8 *msgPtr;
    298            uint8 dataLen = pBuf[0]; /* Data length is on byte #1 from the pointer */
   \   000005   8A82         MOV     DPL,R2
   \   000007   8B83         MOV     DPH,R3
   \   000009   E0           MOVX    A,@DPTR
   \   00000A   F5..         MOV     ?V0 + 2,A
    299          
    300            /* Move back to the SOP */
    301            msgPtr = pBuf-1;
   \   00000C   EA           MOV     A,R2
   \   00000D   24FF         ADD     A,#-0x1
   \   00000F   FE           MOV     R6,A
   \   000010   EB           MOV     A,R3
   \   000011   34FF         ADDC    A,#-0x1
   \   000013   FF           MOV     R7,A
    302          
    303            /* Insert SOP */
    304            msgPtr[0] = MT_UART_SOF;
   \   000014   8E82         MOV     DPL,R6
   \   000016   8F83         MOV     DPH,R7
   \   000018   74FE         MOV     A,#-0x2
   \   00001A   F0           MOVX    @DPTR,A
    305          
    306            /* Insert FCS */
    307            msgPtr[SPI_0DATA_MSG_LEN - 1 + dataLen] = MT_UartCalcFCS (pBuf, (3 + dataLen));
   \   00001B                ; Setup parameters for call to function MT_UartCalcFCS
   \   00001B   7403         MOV     A,#0x3
   \   00001D   25..         ADD     A,?V0 + 2
   \   00001F   F9           MOV     R1,A
   \   000020   12....       LCALL   ??MT_UartCalcFCS?relay
   \   000023   E9           MOV     A,R1
   \   000024   C0E0         PUSH    A
   \   000026   85....       MOV     ?V0 + 0,?V0 + 2
   \   000029   75..00       MOV     ?V0 + 1,#0x0
   \   00002C   EE           MOV     A,R6
   \   00002D   25..         ADD     A,?V0 + 0
   \   00002F   F582         MOV     DPL,A
   \   000031   EF           MOV     A,R7
   \   000032   35..         ADDC    A,?V0 + 1
   \   000034   F583         MOV     DPH,A
   \   000036   A3           INC     DPTR
   \   000037   A3           INC     DPTR
   \   000038   A3           INC     DPTR
   \   000039   A3           INC     DPTR
   \   00003A   D0E0         POP     A
   \   00003C   F0           MOVX    @DPTR,A
    308          
    309            /* Send to UART */
    310          #ifdef MT_UART_DEFAULT_PORT
    311            HalUARTWrite(MT_UART_DEFAULT_PORT, msgPtr, dataLen + SPI_0DATA_MSG_LEN);
   \   00003D                ; Setup parameters for call to function HalUARTWrite
   \   00003D   85....       MOV     ?V0 + 0,?V0 + 2
   \   000040   75..00       MOV     ?V0 + 1,#0x0
   \   000043   E5..         MOV     A,?V0 + 0
   \   000045   2405         ADD     A,#0x5
   \   000047   FC           MOV     R4,A
   \   000048   E5..         MOV     A,?V0 + 1
   \   00004A   3400         ADDC    A,#0x0
   \   00004C   FD           MOV     R5,A
   \   00004D   EE           MOV     A,R6
   \   00004E   FA           MOV     R2,A
   \   00004F   EF           MOV     A,R7
   \   000050   FB           MOV     R3,A
   \   000051   7900         MOV     R1,#0x0
   \   000053   12....       LCALL   ??HalUARTWrite?relay
    312          #endif
    313          
    314            /* Deallocate */
    315            osal_msg_deallocate(msgPtr);
   \   000056                ; Setup parameters for call to function osal_msg_deallocate
   \   000056   EE           MOV     A,R6
   \   000057   FA           MOV     R2,A
   \   000058   EF           MOV     A,R7
   \   000059   FB           MOV     R3,A
   \   00005A   12....       LCALL   ??osal_msg_deallocate?relay
   \   00005D   E9           MOV     A,R1
    316          }
   \   00005E   7F03         MOV     R7,#0x3
   \   000060   02....       LJMP    ?BANKED_LEAVE_XDATA

   \                                 In  segment BANK_RELAYS, align 1
   \                     ??MT_TaskInit?relay:
   \   000000   12....       LCALL   ?BDISPATCH
   \   000003   ......       DC24    MT_TaskInit

   \                                 In  segment BANK_RELAYS, align 1
   \                     ??MT_ProcessEvent?relay:
   \   000000   12....       LCALL   ?BDISPATCH
   \   000003   ......       DC24    MT_ProcessEvent

   \                                 In  segment BANK_RELAYS, align 1
   \                     ??MT_ProcessIncomingCommand?relay:
   \   000000   12....       LCALL   ?BDISPATCH
   \   000003   ......       DC24    MT_ProcessIncomingCommand

   \                                 In  segment BANK_RELAYS, align 1
   \                     ??MT_TransportAlloc?relay:
   \   000000   12....       LCALL   ?BDISPATCH
   \   000003   ......       DC24    MT_TransportAlloc

   \                                 In  segment BANK_RELAYS, align 1
   \                     ??MT_TransportSend?relay:
   \   000000   12....       LCALL   ?BDISPATCH
   \   000003   ......       DC24    MT_TransportSend
    317          #endif /* MT_TASK */
    318          /***************************************************************************************************
    319           ***************************************************************************************************/

   Maximum stack usage in bytes:

     Function                       ISTACK PSTACK XSTACK
     --------                       ------ ------ ------
     MT_ProcessEvent                    0      0     14
       -> osal_msg_receive              0      0     28
       -> MT_ProcessIncomingCommand     0      0     28
       -> osal_msg_deallocate           0      0     28
       -> MT_Init                       0      0     28
       -> MT_AfExec                     0      0     28
       -> MT_SysOsalTimerExpired        0      0     28
       -> MT_SysOsalTimerExpired        0      0     28
       -> MT_SysOsalTimerExpired        0      0     28
       -> MT_SysOsalTimerExpired        0      0     28
     MT_ProcessIncomingCommand          1      0     25
       -> MT_ProcessIncoming            0      0     22
       -> MT_ProcessDebugMsg            0      0     22
       -> MT_UartCalcFCS                0      0     22
       -> HalUARTWrite                  0      0     22
       -> MT_ProcessDebugStr            0      0     22
       -> MTProcessAppRspMsg            0      0     22
     MT_TaskInit                        0      0      9
       -> MT_UartInit                   0      0     18
       -> MT_UartRegisterTaskID         0      0     18
       -> osal_set_event                0      0     18
     MT_TransportAlloc                  0      0     10
       -> osal_msg_allocate             0      0     20
     MT_TransportSend                   1      0     11
       -> MT_UartCalcFCS                0      0     22
       -> HalUARTWrite                  0      0     22
       -> osal_msg_deallocate           0      0     22


   Segment part sizes:

     Function/Label                    Bytes
     --------------                    -----
     MT_TaskID                            1
     MT_TaskInit                         35
     MT_ProcessEvent                    250
     MT_ProcessIncomingCommand          166
     MT_TransportAlloc                   57
     MT_TransportSend                    99
     ??MT_TaskInit?relay                  6
     ??MT_ProcessEvent?relay              6
     ??MT_ProcessIncomingCommand?relay    6
     ??MT_TransportAlloc?relay            6
     ??MT_TransportSend?relay             6

 
 607 bytes in segment BANKED_CODE
  30 bytes in segment BANK_RELAYS
   1 byte  in segment XDATA_Z
 
 637 bytes of CODE  memory
   1 byte  of XDATA memory

Errors: none
Warnings: none
