///////////////////////////////////////////////////////////////////////////////
//                                                                            /
// IAR C/C++ Compiler V8.10.3.10338/W32 for 8051        25/Aug/2018  23:10:09 /
// Copyright 2004-2011 IAR Systems AB.                                        /
//                                                                            /
//    Core               =  plain                                             /
//    Code model         =  banked                                            /
//    Data model         =  large                                             /
//    Calling convention =  xdata reentrant                                   /
//    Constant location  =  data_rom                                          /
//    Dptr setup         =  1,16                                              /
//    Source file        =  F:\work\iot-hardware\logger\logger\Components\mt\ /
//                          MT_ZDO.c                                          /
//    Command line       =  -f F:\work\iot-hardware\logger\logger\Projects\zs /
//                          tack\Samples\GenericApp\CC2530DB\..\..\..\Tools\C /
//                          C2530DB\f8wEndev.cfg (-DCPU32MHZ                  /
//                          -DROOT=__near_func -DMAC_CFG_TX_DATA_MAX=3        /
//                          -DMAC_CFG_TX_MAX=6 -DMAC_CFG_RX_MAX=3) -f         /
//                          F:\work\iot-hardware\logger\logger\Projects\zstac /
//                          k\Samples\GenericApp\CC2530DB\..\..\..\Tools\CC25 /
//                          30DB\f8wConfig.cfg (-DZIGBEEPRO -DSECURE=0        /
//                          -DZG_SECURE_DYNAMIC=0 -DREFLECTOR                 /
//                          -DDEFAULT_CHANLIST=0x00000800                     /
//                          -DZDAPP_CONFIG_PAN_ID=0xFFFF                      /
//                          -DNWK_START_DELAY=100 -DEXTENDED_JOINING_RANDOM_M /
//                          ASK=0x007F -DBEACON_REQUEST_DELAY=100             /
//                          -DBEACON_REQ_DELAY_MASK=0x00FF                    /
//                          -DLINK_STATUS_JITTER_MASK=0x007F                  /
//                          -DROUTE_EXPIRY_TIME=30 -DAPSC_ACK_WAIT_DURATION_P /
//                          OLLED=3000 -DNWK_INDIRECT_MSG_TIMEOUT=7           /
//                          -DMAX_RREQ_ENTRIES=8 -DAPSC_MAX_FRAME_RETRIES=3   /
//                          -DNWK_MAX_DATA_RETRIES=2                          /
//                          -DMAX_POLL_FAILURE_RETRIES=2 -DMAX_BCAST=9        /
//                          -DAPS_MAX_GROUPS=16 -DMAX_RTG_ENTRIES=40          /
//                          -DNWK_MAX_BINDING_ENTRIES=4                       /
//                          -DMAX_BINDING_CLUSTER_IDS=4                       /
//                          "-DDEFAULT_KEY={0x01, 0x03, 0x05, 0x07, 0x09,     /
//                          0x0B, 0x0D, 0x0F, 0x00, 0x02, 0x04, 0x06, 0x08,   /
//                          0x0A, 0x0C, 0x0D}" -DMAC_MAX_FRAME_SIZE=116       /
//                          -DZDNWKMGR_MIN_TRANSMISSIONS=20 "-DCONST=const    /
//                          __code" -DGENERIC=__generic                       /
//                          -DRFD_RCVC_ALWAYS_ON=FALSE -DPOLL_RATE=1000       /
//                          -DQUEUED_POLL_RATE=100 -DRESPONSE_POLL_RATE=100)  /
//                          -DREJOIN_POLL_RATE=440 F:\work\iot-hardware\logge /
//                          r\logger\Components\mt\MT_ZDO.c -D NWK_AUTO_POLL  /
//                          -D ZTOOL_P1 -D MT_TASK -D MT_SYS_FUNC -D          /
//                          MT_ZDO_FUNC -D LCD_SUPPORTED=DEBUG -D             /
//                          xPOWER_SAVING -lC F:\work\iot-hardware\logger\log /
//                          ger\Projects\zstack\Samples\GenericApp\CC2530DB\E /
//                          ndDeviceEB\List\ -lA F:\work\iot-hardware\logger\ /
//                          logger\Projects\zstack\Samples\GenericApp\CC2530D /
//                          B\EndDeviceEB\List\ --diag_suppress Pe001,Pa010   /
//                          -o F:\work\iot-hardware\logger\logger\Projects\zs /
//                          tack\Samples\GenericApp\CC2530DB\EndDeviceEB\Obj\ /
//                           -e --no_cse --no_unroll --no_inline              /
//                          --no_code_motion --no_tbaa --debug --core=plain   /
//                          --dptr=16,1 --data_model=large                    /
//                          --code_model=banked --calling_convention=xdata_re /
//                          entrant --place_constants=data_rom                /
//                          --nr_virtual_regs 16 -I                           /
//                          F:\work\iot-hardware\logger\logger\Projects\zstac /
//                          k\Samples\GenericApp\CC2530DB\ -I                 /
//                          F:\work\iot-hardware\logger\logger\Projects\zstac /
//                          k\Samples\GenericApp\CC2530DB\..\Source\ -I       /
//                          F:\work\iot-hardware\logger\logger\Projects\zstac /
//                          k\Samples\GenericApp\CC2530DB\..\..\..\ZMain\TI25 /
//                          30DB\ -I F:\work\iot-hardware\logger\logger\Proje /
//                          cts\zstack\Samples\GenericApp\CC2530DB\..\..\..\. /
//                          .\..\Components\hal\include\ -I                   /
//                          F:\work\iot-hardware\logger\logger\Projects\zstac /
//                          k\Samples\GenericApp\CC2530DB\..\..\..\..\..\Comp /
//                          onents\hal\target\CC2530EB\ -I                    /
//                          F:\work\iot-hardware\logger\logger\Projects\zstac /
//                          k\Samples\GenericApp\CC2530DB\..\..\..\..\..\Comp /
//                          onents\mac\include\ -I F:\work\iot-hardware\logge /
//                          r\logger\Projects\zstack\Samples\GenericApp\CC253 /
//                          0DB\..\..\..\..\..\Components\mac\high_level\ -I  /
//                          F:\work\iot-hardware\logger\logger\Projects\zstac /
//                          k\Samples\GenericApp\CC2530DB\..\..\..\..\..\Comp /
//                          onents\mac\low_level\srf04\ -I                    /
//                          F:\work\iot-hardware\logger\logger\Projects\zstac /
//                          k\Samples\GenericApp\CC2530DB\..\..\..\..\..\Comp /
//                          onents\mac\low_level\srf04\single_chip\ -I        /
//                          F:\work\iot-hardware\logger\logger\Projects\zstac /
//                          k\Samples\GenericApp\CC2530DB\..\..\..\..\..\Comp /
//                          onents\mt\ -I F:\work\iot-hardware\logger\logger\ /
//                          Projects\zstack\Samples\GenericApp\CC2530DB\..\.. /
//                          \..\..\..\Components\osal\include\ -I             /
//                          F:\work\iot-hardware\logger\logger\Projects\zstac /
//                          k\Samples\GenericApp\CC2530DB\..\..\..\..\..\Comp /
//                          onents\services\saddr\ -I                         /
//                          F:\work\iot-hardware\logger\logger\Projects\zstac /
//                          k\Samples\GenericApp\CC2530DB\..\..\..\..\..\Comp /
//                          onents\services\sdata\ -I                         /
//                          F:\work\iot-hardware\logger\logger\Projects\zstac /
//                          k\Samples\GenericApp\CC2530DB\..\..\..\..\..\Comp /
//                          onents\stack\af\ -I F:\work\iot-hardware\logger\l /
//                          ogger\Projects\zstack\Samples\GenericApp\CC2530DB /
//                          \..\..\..\..\..\Components\stack\nwk\ -I          /
//                          F:\work\iot-hardware\logger\logger\Projects\zstac /
//                          k\Samples\GenericApp\CC2530DB\..\..\..\..\..\Comp /
//                          onents\stack\sapi\ -I F:\work\iot-hardware\logger /
//                          \logger\Projects\zstack\Samples\GenericApp\CC2530 /
//                          DB\..\..\..\..\..\Components\stack\sec\ -I        /
//                          F:\work\iot-hardware\logger\logger\Projects\zstac /
//                          k\Samples\GenericApp\CC2530DB\..\..\..\..\..\Comp /
//                          onents\stack\sys\ -I F:\work\iot-hardware\logger\ /
//                          logger\Projects\zstack\Samples\GenericApp\CC2530D /
//                          B\..\..\..\..\..\Components\stack\zdo\ -I         /
//                          F:\work\iot-hardware\logger\logger\Projects\zstac /
//                          k\Samples\GenericApp\CC2530DB\..\..\..\..\..\Comp /
//                          onents\zmac\ -I F:\work\iot-hardware\logger\logge /
//                          r\Projects\zstack\Samples\GenericApp\CC2530DB\..\ /
//                          ..\..\..\..\Components\zmac\f8w\ -Ol              /
//                          --require_prototypes                              /
//    List file          =  F:\work\iot-hardware\logger\logger\Projects\zstac /
//                          k\Samples\GenericApp\CC2530DB\EndDeviceEB\List\MT /
//                          _ZDO.s51                                          /
//                                                                            /
//                                                                            /
///////////////////////////////////////////////////////////////////////////////

        NAME MT_ZDO

        RTMODEL "__SystemLibrary", "CLib"
        RTMODEL "__calling_convention", "xdata_reentrant"
        RTMODEL "__code_model", "banked"
        RTMODEL "__core", "plain"
        RTMODEL "__data_model", "large"
        RTMODEL "__dptr_size", "16"
        RTMODEL "__extended_stack", "disabled"
        RTMODEL "__location_for_constants", "data"
        RTMODEL "__number_of_dptrs", "1"
        RTMODEL "__rt_version", "1"

        RSEG DOVERLAY:DATA:NOROOT(0)
        RSEG IOVERLAY:IDATA:NOROOT(0)
        RSEG ISTACK:IDATA:NOROOT(0)
        RSEG PSTACK:XDATA:NOROOT(0)
        RSEG XSTACK:XDATA:NOROOT(0)

        EXTERN ?ALLOC_XSTACK8
        EXTERN ?BANKED_ENTER_XDATA
        EXTERN ?BANKED_LEAVE_XDATA
        EXTERN ?BDISPATCH
        EXTERN ?BRET
        EXTERN ?DEALLOC_XSTACK8
        EXTERN ?PUSH_XSTACK_I_ONE
        EXTERN ?PUSH_XSTACK_I_THREE
        EXTERN ?PUSH_XSTACK_I_TWO
        EXTERN ?V0
        EXTERN ?XSP
        EXTERN ?XSTACK_DISP0_8
        EXTERN __INIT_XDATA_Z

        PUBLIC ??MT_ZdoActiveEpRequest?relay
        FUNCTION ??MT_ZdoActiveEpRequest?relay,0203H
        PUBLIC ??MT_ZdoBeaconIndCB?relay
        FUNCTION ??MT_ZdoBeaconIndCB?relay,0203H
        PUBLIC ??MT_ZdoBindRequest?relay
        FUNCTION ??MT_ZdoBindRequest?relay,0203H
        PUBLIC ??MT_ZdoCommandProcessing?relay
        FUNCTION ??MT_ZdoCommandProcessing?relay,0203H
        PUBLIC ??MT_ZdoComplexDescRequest?relay
        FUNCTION ??MT_ZdoComplexDescRequest?relay,0203H
        PUBLIC ??MT_ZdoEndDevAnnce?relay
        FUNCTION ??MT_ZdoEndDevAnnce?relay,0203H
        PUBLIC ??MT_ZdoEndDevBindRequest?relay
        FUNCTION ??MT_ZdoEndDevBindRequest?relay,0203H
        PUBLIC ??MT_ZdoIEEEAddrRequest?relay
        FUNCTION ??MT_ZdoIEEEAddrRequest?relay,0203H
        PUBLIC ??MT_ZdoInit?relay
        FUNCTION ??MT_ZdoInit?relay,0203H
        PUBLIC ??MT_ZdoJoinCnfCB?relay
        FUNCTION ??MT_ZdoJoinCnfCB?relay,0203H
        PUBLIC ??MT_ZdoJoinReq?relay
        FUNCTION ??MT_ZdoJoinReq?relay,0203H
        PUBLIC ??MT_ZdoMatchDescRequest?relay
        FUNCTION ??MT_ZdoMatchDescRequest?relay,0203H
        PUBLIC ??MT_ZdoNWKAddressRequest?relay
        FUNCTION ??MT_ZdoNWKAddressRequest?relay,0203H
        PUBLIC ??MT_ZdoNetworkDiscoveryReq?relay
        FUNCTION ??MT_ZdoNetworkDiscoveryReq?relay,0203H
        PUBLIC ??MT_ZdoNodeDescRequest?relay
        FUNCTION ??MT_ZdoNodeDescRequest?relay,0203H
        PUBLIC ??MT_ZdoNwkDiscoveryCnfCB?relay
        FUNCTION ??MT_ZdoNwkDiscoveryCnfCB?relay,0203H
        PUBLIC ??MT_ZdoPowerDescRequest?relay
        FUNCTION ??MT_ZdoPowerDescRequest?relay,0203H
        PUBLIC ??MT_ZdoRegisterForZDOMsg?relay
        FUNCTION ??MT_ZdoRegisterForZDOMsg?relay,0203H
        PUBLIC ??MT_ZdoRemoveRegisteredCB?relay
        FUNCTION ??MT_ZdoRemoveRegisteredCB?relay,0203H
        PUBLIC ??MT_ZdoSendMsgCB?relay
        FUNCTION ??MT_ZdoSendMsgCB?relay,0203H
        PUBLIC ??MT_ZdoServiceDiscRequest?relay
        FUNCTION ??MT_ZdoServiceDiscRequest?relay,0203H
        PUBLIC ??MT_ZdoSimpleDescRequest?relay
        FUNCTION ??MT_ZdoSimpleDescRequest?relay,0203H
        PUBLIC ??MT_ZdoStartupFromApp?relay
        FUNCTION ??MT_ZdoStartupFromApp?relay,0203H
        PUBLIC ??MT_ZdoUnbindRequest?relay
        FUNCTION ??MT_ZdoUnbindRequest?relay,0203H
        PUBLIC ??MT_ZdoUserDescRequest?relay
        FUNCTION ??MT_ZdoUserDescRequest?relay,0203H
        PUBLIC ??MT_ZdoUserDescSet?relay
        FUNCTION ??MT_ZdoUserDescSet?relay,0203H
        PUBLIC MT_ZdoActiveEpRequest
        FUNCTION MT_ZdoActiveEpRequest,021203H
        ARGFRAME XSTACK, 9, STACK
        ARGFRAME IOVERLAY, 0, STATIC
        ARGFRAME DOVERLAY, 0, STATIC
        LOCFRAME ISTACK, 1, STACK
        LOCFRAME XSTACK, 21, STACK
        PUBLIC MT_ZdoBeaconIndCB
        FUNCTION MT_ZdoBeaconIndCB,021603H
        ARGFRAME XSTACK, 9, STACK
        ARGFRAME IOVERLAY, 0, STATIC
        ARGFRAME DOVERLAY, 0, STATIC
        LOCFRAME ISTACK, 1, STACK
        LOCFRAME XSTACK, 14, STACK
        PUBLIC MT_ZdoBindRequest
        FUNCTION MT_ZdoBindRequest,021203H
        ARGFRAME XSTACK, 9, STACK
        ARGFRAME IOVERLAY, 0, STATIC
        ARGFRAME DOVERLAY, 0, STATIC
        LOCFRAME ISTACK, 1, STACK
        LOCFRAME XSTACK, 43, STACK
        PUBLIC MT_ZdoCommandProcessing
        FUNCTION MT_ZdoCommandProcessing,021203H
        ARGFRAME XSTACK, 0, STACK
        LOCFRAME XSTACK, 9, STACK
        PUBLIC MT_ZdoComplexDescRequest
        FUNCTION MT_ZdoComplexDescRequest,021203H
        ARGFRAME XSTACK, 9, STACK
        ARGFRAME IOVERLAY, 0, STATIC
        ARGFRAME DOVERLAY, 0, STATIC
        LOCFRAME ISTACK, 1, STACK
        LOCFRAME XSTACK, 21, STACK
        PUBLIC MT_ZdoEndDevAnnce
        FUNCTION MT_ZdoEndDevAnnce,021203H
        ARGFRAME XSTACK, 9, STACK
        ARGFRAME IOVERLAY, 0, STATIC
        ARGFRAME DOVERLAY, 0, STATIC
        LOCFRAME ISTACK, 1, STACK
        LOCFRAME XSTACK, 12, STACK
        PUBLIC MT_ZdoEndDevBindRequest
        FUNCTION MT_ZdoEndDevBindRequest,021203H
        ARGFRAME XSTACK, 9, STACK
        ARGFRAME IOVERLAY, 0, STATIC
        ARGFRAME DOVERLAY, 0, STATIC
        LOCFRAME ISTACK, 1, STACK
        LOCFRAME XSTACK, 95, STACK
        PUBLIC MT_ZdoIEEEAddrRequest
        FUNCTION MT_ZdoIEEEAddrRequest,021203H
        ARGFRAME XSTACK, 9, STACK
        ARGFRAME IOVERLAY, 0, STATIC
        ARGFRAME DOVERLAY, 0, STATIC
        LOCFRAME ISTACK, 1, STACK
        LOCFRAME XSTACK, 10, STACK
        PUBLIC MT_ZdoInit
        FUNCTION MT_ZdoInit,0203H
        ARGFRAME XSTACK, 0, STACK
        PUBLIC MT_ZdoJoinCnfCB
        FUNCTION MT_ZdoJoinCnfCB,021603H
        ARGFRAME XSTACK, 0, STACK
        LOCFRAME ISTACK, 1, STACK
        LOCFRAME XSTACK, 14, STACK
        PUBLIC MT_ZdoJoinReq
        FUNCTION MT_ZdoJoinReq,021203H
        ARGFRAME XSTACK, 9, STACK
        ARGFRAME IOVERLAY, 0, STATIC
        ARGFRAME DOVERLAY, 0, STATIC
        LOCFRAME ISTACK, 1, STACK
        LOCFRAME XSTACK, 17, STACK
        PUBLIC MT_ZdoMatchDescRequest
        FUNCTION MT_ZdoMatchDescRequest,021203H
        ARGFRAME XSTACK, 9, STACK
        ARGFRAME IOVERLAY, 0, STATIC
        ARGFRAME DOVERLAY, 0, STATIC
        LOCFRAME ISTACK, 1, STACK
        LOCFRAME XSTACK, 97, STACK
        PUBLIC MT_ZdoNWKAddressRequest
        FUNCTION MT_ZdoNWKAddressRequest,021203H
        ARGFRAME XSTACK, 9, STACK
        ARGFRAME IOVERLAY, 0, STATIC
        ARGFRAME DOVERLAY, 0, STATIC
        LOCFRAME ISTACK, 1, STACK
        LOCFRAME XSTACK, 10, STACK
        PUBLIC MT_ZdoNetworkDiscoveryReq
        FUNCTION MT_ZdoNetworkDiscoveryReq,021203H
        ARGFRAME XSTACK, 9, STACK
        ARGFRAME IOVERLAY, 0, STATIC
        ARGFRAME DOVERLAY, 0, STATIC
        LOCFRAME ISTACK, 1, STACK
        LOCFRAME XSTACK, 17, STACK
        PUBLIC MT_ZdoNodeDescRequest
        FUNCTION MT_ZdoNodeDescRequest,021203H
        ARGFRAME XSTACK, 9, STACK
        ARGFRAME IOVERLAY, 0, STATIC
        ARGFRAME DOVERLAY, 0, STATIC
        LOCFRAME ISTACK, 1, STACK
        LOCFRAME XSTACK, 21, STACK
        PUBLIC MT_ZdoNwkDiscoveryCnfCB
        FUNCTION MT_ZdoNwkDiscoveryCnfCB,021603H
        ARGFRAME XSTACK, 0, STACK
        LOCFRAME XSTACK, 9, STACK
        PUBLIC MT_ZdoPowerDescRequest
        FUNCTION MT_ZdoPowerDescRequest,021203H
        ARGFRAME XSTACK, 9, STACK
        ARGFRAME IOVERLAY, 0, STATIC
        ARGFRAME DOVERLAY, 0, STATIC
        LOCFRAME ISTACK, 1, STACK
        LOCFRAME XSTACK, 21, STACK
        PUBLIC MT_ZdoRegisterForZDOMsg
        FUNCTION MT_ZdoRegisterForZDOMsg,021203H
        ARGFRAME XSTACK, 9, STACK
        ARGFRAME IOVERLAY, 0, STATIC
        ARGFRAME DOVERLAY, 0, STATIC
        LOCFRAME ISTACK, 1, STACK
        LOCFRAME XSTACK, 10, STACK
        PUBLIC MT_ZdoRemoveRegisteredCB
        FUNCTION MT_ZdoRemoveRegisteredCB,021203H
        ARGFRAME XSTACK, 9, STACK
        ARGFRAME IOVERLAY, 0, STATIC
        ARGFRAME DOVERLAY, 0, STATIC
        LOCFRAME ISTACK, 1, STACK
        LOCFRAME XSTACK, 10, STACK
        PUBLIC MT_ZdoSendMsgCB
        FUNCTION MT_ZdoSendMsgCB,021203H
        ARGFRAME XSTACK, 0, STACK
        LOCFRAME ISTACK, 1, STACK
        LOCFRAME XSTACK, 18, STACK
        PUBLIC MT_ZdoServiceDiscRequest
        FUNCTION MT_ZdoServiceDiscRequest,021203H
        ARGFRAME XSTACK, 9, STACK
        ARGFRAME IOVERLAY, 0, STATIC
        ARGFRAME DOVERLAY, 0, STATIC
        LOCFRAME ISTACK, 1, STACK
        LOCFRAME XSTACK, 10, STACK
        PUBLIC MT_ZdoSimpleDescRequest
        FUNCTION MT_ZdoSimpleDescRequest,021203H
        ARGFRAME XSTACK, 9, STACK
        ARGFRAME IOVERLAY, 0, STATIC
        ARGFRAME DOVERLAY, 0, STATIC
        LOCFRAME ISTACK, 1, STACK
        LOCFRAME XSTACK, 21, STACK
        PUBLIC MT_ZdoStartupFromApp
        FUNCTION MT_ZdoStartupFromApp,021203H
        ARGFRAME XSTACK, 9, STACK
        ARGFRAME IOVERLAY, 0, STATIC
        ARGFRAME DOVERLAY, 0, STATIC
        LOCFRAME ISTACK, 1, STACK
        LOCFRAME XSTACK, 11, STACK
        PUBLIC MT_ZdoUnbindRequest
        FUNCTION MT_ZdoUnbindRequest,021203H
        ARGFRAME XSTACK, 9, STACK
        ARGFRAME IOVERLAY, 0, STATIC
        ARGFRAME DOVERLAY, 0, STATIC
        LOCFRAME ISTACK, 1, STACK
        LOCFRAME XSTACK, 43, STACK
        PUBLIC MT_ZdoUserDescRequest
        FUNCTION MT_ZdoUserDescRequest,021203H
        ARGFRAME XSTACK, 9, STACK
        ARGFRAME IOVERLAY, 0, STATIC
        ARGFRAME DOVERLAY, 0, STATIC
        LOCFRAME ISTACK, 1, STACK
        LOCFRAME XSTACK, 21, STACK
        PUBLIC MT_ZdoUserDescSet
        FUNCTION MT_ZdoUserDescSet,021203H
        ARGFRAME XSTACK, 9, STACK
        ARGFRAME IOVERLAY, 0, STATIC
        ARGFRAME DOVERLAY, 0, STATIC
        LOCFRAME ISTACK, 1, STACK
        LOCFRAME XSTACK, 45, STACK
        PUBLIC _zdoCallbackSub
        PUBLIC pBeaconIndBuf
        
        CFI Names cfiNames0
        CFI StackFrame CFA_SP SP IDATA
        CFI StackFrame CFA_PSP16 PSP16 XDATA
        CFI StackFrame CFA_XSP16 XSP16 XDATA
        CFI StaticOverlayFrame CFA_IOVERLAY IOVERLAY
        CFI StaticOverlayFrame CFA_DOVERLAY DOVERLAY
        CFI Resource `PSW.CY`:1, `B.BR0`:1, `B.BR1`:1, `B.BR2`:1, `B.BR3`:1
        CFI Resource `B.BR4`:1, `B.BR5`:1, `B.BR6`:1, `B.BR7`:1, `VB.BR8`:1
        CFI Resource `VB.BR9`:1, `VB.BR10`:1, `VB.BR11`:1, `VB.BR12`:1
        CFI Resource `VB.BR13`:1, `VB.BR14`:1, `VB.BR15`:1, VB:8, B:8, A:8
        CFI Resource PSW:8, DPL0:8, DPH0:8, R0:8, R1:8, R2:8, R3:8, R4:8, R5:8
        CFI Resource R6:8, R7:8, V0:8, V1:8, V2:8, V3:8, V4:8, V5:8, V6:8, V7:8
        CFI Resource V8:8, V9:8, V10:8, V11:8, V12:8, V13:8, V14:8, V15:8, SP:8
        CFI Resource PSPH:8, PSPL:8, PSP16:16, XSPH:8, XSPL:8, XSP16:16
        CFI VirtualResource ?RET:24
        CFI Resource ?BRET_EXT:8
        CFI VirtualResource ?RET_HIGH:8, ?RET_LOW:8
        CFI ResourceParts PSP16 PSPH, PSPL
        CFI ResourceParts XSP16 XSPH, XSPL
        CFI ResourceParts ?RET ?BRET_EXT, ?RET_HIGH, ?RET_LOW
        CFI EndNames cfiNames0
        
        CFI Common cfiCommon0 Using cfiNames0
        CFI CodeAlign 1
        CFI DataAlign -1
        CFI ReturnAddress ?RET CODE
        CFI CFA_DOVERLAY Used
        CFI CFA_IOVERLAY Used
        CFI CFA_SP SP+-3
        CFI CFA_PSP16 PSP16+0
        CFI CFA_XSP16 XSP16+0
        CFI `PSW.CY` SameValue
        CFI `B.BR0` SameValue
        CFI `B.BR1` SameValue
        CFI `B.BR2` SameValue
        CFI `B.BR3` SameValue
        CFI `B.BR4` SameValue
        CFI `B.BR5` SameValue
        CFI `B.BR6` SameValue
        CFI `B.BR7` SameValue
        CFI `VB.BR8` SameValue
        CFI `VB.BR9` SameValue
        CFI `VB.BR10` SameValue
        CFI `VB.BR11` SameValue
        CFI `VB.BR12` SameValue
        CFI `VB.BR13` SameValue
        CFI `VB.BR14` SameValue
        CFI `VB.BR15` SameValue
        CFI VB SameValue
        CFI B Undefined
        CFI A Undefined
        CFI PSW SameValue
        CFI DPL0 SameValue
        CFI DPH0 SameValue
        CFI R0 Undefined
        CFI R1 Undefined
        CFI R2 Undefined
        CFI R3 Undefined
        CFI R4 Undefined
        CFI R5 Undefined
        CFI R6 SameValue
        CFI R7 SameValue
        CFI V0 SameValue
        CFI V1 SameValue
        CFI V2 SameValue
        CFI V3 SameValue
        CFI V4 SameValue
        CFI V5 SameValue
        CFI V6 SameValue
        CFI V7 SameValue
        CFI V8 SameValue
        CFI V9 SameValue
        CFI V10 SameValue
        CFI V11 SameValue
        CFI V12 SameValue
        CFI V13 SameValue
        CFI V14 SameValue
        CFI V15 SameValue
        CFI PSPH Undefined
        CFI PSPL Undefined
        CFI XSPH Undefined
        CFI XSPL Undefined
        CFI ?RET Concat
        CFI ?BRET_EXT Frame(CFA_SP, 3)
        CFI ?RET_HIGH Frame(CFA_SP, 2)
        CFI ?RET_LOW Frame(CFA_SP, 1)
        CFI EndCommon cfiCommon0
        
ZDP_NwkAddrReq      SYMBOL "ZDP_NwkAddrReq"
MT_BuildAndSendZToolResponse SYMBOL "MT_BuildAndSendZToolResponse"
ZDP_IEEEAddrReq     SYMBOL "ZDP_IEEEAddrReq"
ZDP_NWKAddrOfInterestReq SYMBOL "ZDP_NWKAddrOfInterestReq"
ZDP_SimpleDescReq   SYMBOL "ZDP_SimpleDescReq"
ZDP_MatchDescReq    SYMBOL "ZDP_MatchDescReq"
ZDP_DeviceAnnce     SYMBOL "ZDP_DeviceAnnce"
osal_memcpy         SYMBOL "osal_memcpy"
ZDP_UserDescSet     SYMBOL "ZDP_UserDescSet"
ZDP_ServerDiscReq   SYMBOL "ZDP_ServerDiscReq"
ZDP_EndDeviceBindReq SYMBOL "ZDP_EndDeviceBindReq"
sAddrExtCpy         SYMBOL "sAddrExtCpy"
ZDP_BindUnbindReq   SYMBOL "ZDP_BindUnbindReq"
ZDOInitDevice       SYMBOL "ZDOInitDevice"
osal_build_uint32   SYMBOL "osal_build_uint32"
ZDApp_NetworkDiscoveryReq SYMBOL "ZDApp_NetworkDiscoveryReq"
ZDO_RegisterForZdoCB SYMBOL "ZDO_RegisterForZdoCB"
ZDApp_JoinReq       SYMBOL "ZDApp_JoinReq"
ZDO_DeregisterForZdoCB SYMBOL "ZDO_DeregisterForZdoCB"
osal_mem_alloc      SYMBOL "osal_mem_alloc"
osal_mem_free       SYMBOL "osal_mem_free"
ZDO_RegisterForZDOMsg SYMBOL "ZDO_RegisterForZDOMsg"
ZDO_RemoveRegisteredCB SYMBOL "ZDO_RemoveRegisteredCB"
??MT_BuildAndSendZToolResponse?relay SYMBOL "?relay", MT_BuildAndSendZToolResponse
??ZDApp_JoinReq?relay SYMBOL "?relay", ZDApp_JoinReq
??ZDApp_NetworkDiscoveryReq?relay SYMBOL "?relay", ZDApp_NetworkDiscoveryReq
??ZDOInitDevice?relay SYMBOL "?relay", ZDOInitDevice
??ZDO_DeregisterForZdoCB?relay SYMBOL "?relay", ZDO_DeregisterForZdoCB
??ZDO_RegisterForZDOMsg?relay SYMBOL "?relay", ZDO_RegisterForZDOMsg
??ZDO_RegisterForZdoCB?relay SYMBOL "?relay", ZDO_RegisterForZdoCB
??ZDO_RemoveRegisteredCB?relay SYMBOL "?relay", ZDO_RemoveRegisteredCB
??ZDP_BindUnbindReq?relay SYMBOL "?relay", ZDP_BindUnbindReq
??ZDP_DeviceAnnce?relay SYMBOL "?relay", ZDP_DeviceAnnce
??ZDP_EndDeviceBindReq?relay SYMBOL "?relay", ZDP_EndDeviceBindReq
??ZDP_IEEEAddrReq?relay SYMBOL "?relay", ZDP_IEEEAddrReq
??ZDP_MatchDescReq?relay SYMBOL "?relay", ZDP_MatchDescReq
??ZDP_NWKAddrOfInterestReq?relay SYMBOL "?relay", ZDP_NWKAddrOfInterestReq
??ZDP_NwkAddrReq?relay SYMBOL "?relay", ZDP_NwkAddrReq
??ZDP_ServerDiscReq?relay SYMBOL "?relay", ZDP_ServerDiscReq
??ZDP_SimpleDescReq?relay SYMBOL "?relay", ZDP_SimpleDescReq
??ZDP_UserDescSet?relay SYMBOL "?relay", ZDP_UserDescSet
??osal_build_uint32?relay SYMBOL "?relay", osal_build_uint32
??osal_mem_alloc?relay SYMBOL "?relay", osal_mem_alloc
??osal_mem_free?relay SYMBOL "?relay", osal_mem_free
??osal_memcpy?relay SYMBOL "?relay", osal_memcpy
??sAddrExtCpy?relay SYMBOL "?relay", sAddrExtCpy
MT_ZdoActiveEpRequest SYMBOL "MT_ZdoActiveEpRequest"
??MT_ZdoActiveEpRequest?relay SYMBOL "?relay", MT_ZdoActiveEpRequest
MT_ZdoBeaconIndCB   SYMBOL "MT_ZdoBeaconIndCB"
??MT_ZdoBeaconIndCB?relay SYMBOL "?relay", MT_ZdoBeaconIndCB
MT_ZdoBindRequest   SYMBOL "MT_ZdoBindRequest"
??MT_ZdoBindRequest?relay SYMBOL "?relay", MT_ZdoBindRequest
MT_ZdoCommandProcessing SYMBOL "MT_ZdoCommandProcessing"
??MT_ZdoCommandProcessing?relay SYMBOL "?relay", MT_ZdoCommandProcessing
MT_ZdoComplexDescRequest SYMBOL "MT_ZdoComplexDescRequest"
??MT_ZdoComplexDescRequest?relay SYMBOL "?relay", MT_ZdoComplexDescRequest
MT_ZdoEndDevAnnce   SYMBOL "MT_ZdoEndDevAnnce"
??MT_ZdoEndDevAnnce?relay SYMBOL "?relay", MT_ZdoEndDevAnnce
MT_ZdoEndDevBindRequest SYMBOL "MT_ZdoEndDevBindRequest"
??MT_ZdoEndDevBindRequest?relay SYMBOL "?relay", MT_ZdoEndDevBindRequest
MT_ZdoIEEEAddrRequest SYMBOL "MT_ZdoIEEEAddrRequest"
??MT_ZdoIEEEAddrRequest?relay SYMBOL "?relay", MT_ZdoIEEEAddrRequest
MT_ZdoInit          SYMBOL "MT_ZdoInit"
??MT_ZdoInit?relay  SYMBOL "?relay", MT_ZdoInit
MT_ZdoJoinCnfCB     SYMBOL "MT_ZdoJoinCnfCB"
??MT_ZdoJoinCnfCB?relay SYMBOL "?relay", MT_ZdoJoinCnfCB
MT_ZdoJoinReq       SYMBOL "MT_ZdoJoinReq"
??MT_ZdoJoinReq?relay SYMBOL "?relay", MT_ZdoJoinReq
MT_ZdoMatchDescRequest SYMBOL "MT_ZdoMatchDescRequest"
??MT_ZdoMatchDescRequest?relay SYMBOL "?relay", MT_ZdoMatchDescRequest
MT_ZdoNWKAddressRequest SYMBOL "MT_ZdoNWKAddressRequest"
??MT_ZdoNWKAddressRequest?relay SYMBOL "?relay", MT_ZdoNWKAddressRequest
MT_ZdoNetworkDiscoveryReq SYMBOL "MT_ZdoNetworkDiscoveryReq"
??MT_ZdoNetworkDiscoveryReq?relay SYMBOL "?relay", MT_ZdoNetworkDiscoveryReq
MT_ZdoNodeDescRequest SYMBOL "MT_ZdoNodeDescRequest"
??MT_ZdoNodeDescRequest?relay SYMBOL "?relay", MT_ZdoNodeDescRequest
MT_ZdoNwkDiscoveryCnfCB SYMBOL "MT_ZdoNwkDiscoveryCnfCB"
??MT_ZdoNwkDiscoveryCnfCB?relay SYMBOL "?relay", MT_ZdoNwkDiscoveryCnfCB
MT_ZdoPowerDescRequest SYMBOL "MT_ZdoPowerDescRequest"
??MT_ZdoPowerDescRequest?relay SYMBOL "?relay", MT_ZdoPowerDescRequest
MT_ZdoRegisterForZDOMsg SYMBOL "MT_ZdoRegisterForZDOMsg"
??MT_ZdoRegisterForZDOMsg?relay SYMBOL "?relay", MT_ZdoRegisterForZDOMsg
MT_ZdoRemoveRegisteredCB SYMBOL "MT_ZdoRemoveRegisteredCB"
??MT_ZdoRemoveRegisteredCB?relay SYMBOL "?relay", MT_ZdoRemoveRegisteredCB
MT_ZdoSendMsgCB     SYMBOL "MT_ZdoSendMsgCB"
??MT_ZdoSendMsgCB?relay SYMBOL "?relay", MT_ZdoSendMsgCB
MT_ZdoServiceDiscRequest SYMBOL "MT_ZdoServiceDiscRequest"
??MT_ZdoServiceDiscRequest?relay SYMBOL "?relay", MT_ZdoServiceDiscRequest
MT_ZdoSimpleDescRequest SYMBOL "MT_ZdoSimpleDescRequest"
??MT_ZdoSimpleDescRequest?relay SYMBOL "?relay", MT_ZdoSimpleDescRequest
MT_ZdoStartupFromApp SYMBOL "MT_ZdoStartupFromApp"
??MT_ZdoStartupFromApp?relay SYMBOL "?relay", MT_ZdoStartupFromApp
MT_ZdoUnbindRequest SYMBOL "MT_ZdoUnbindRequest"
??MT_ZdoUnbindRequest?relay SYMBOL "?relay", MT_ZdoUnbindRequest
MT_ZdoUserDescRequest SYMBOL "MT_ZdoUserDescRequest"
??MT_ZdoUserDescRequest?relay SYMBOL "?relay", MT_ZdoUserDescRequest
MT_ZdoUserDescSet   SYMBOL "MT_ZdoUserDescSet"
??MT_ZdoUserDescSet?relay SYMBOL "?relay", MT_ZdoUserDescSet

        EXTERN ZDP_NwkAddrReq
        FUNCTION ZDP_NwkAddrReq,0202H
        ARGFRAME ISTACK, 0, STACK
        ARGFRAME PSTACK, 0, STACK
        ARGFRAME XSTACK, 10, STACK
        ARGFRAME IOVERLAY, 0, STATIC
        ARGFRAME DOVERLAY, 0, STATIC
        EXTERN MT_BuildAndSendZToolResponse
        FUNCTION MT_BuildAndSendZToolResponse,0202H
        ARGFRAME ISTACK, 0, STACK
        ARGFRAME PSTACK, 0, STACK
        ARGFRAME XSTACK, 89, STACK
        ARGFRAME IOVERLAY, 0, STATIC
        ARGFRAME DOVERLAY, 0, STATIC
        EXTERN ZDP_IEEEAddrReq
        FUNCTION ZDP_IEEEAddrReq,0202H
        ARGFRAME ISTACK, 0, STACK
        ARGFRAME PSTACK, 0, STACK
        ARGFRAME XSTACK, 10, STACK
        ARGFRAME IOVERLAY, 0, STATIC
        ARGFRAME DOVERLAY, 0, STATIC
        EXTERN ZDP_NWKAddrOfInterestReq
        FUNCTION ZDP_NWKAddrOfInterestReq,0202H
        ARGFRAME ISTACK, 0, STACK
        ARGFRAME PSTACK, 0, STACK
        ARGFRAME XSTACK, 21, STACK
        ARGFRAME IOVERLAY, 0, STATIC
        ARGFRAME DOVERLAY, 0, STATIC
        EXTERN ZDP_SimpleDescReq
        FUNCTION ZDP_SimpleDescReq,0202H
        ARGFRAME ISTACK, 0, STACK
        ARGFRAME PSTACK, 0, STACK
        ARGFRAME XSTACK, 21, STACK
        ARGFRAME IOVERLAY, 0, STATIC
        ARGFRAME DOVERLAY, 0, STATIC
        EXTERN ZDP_MatchDescReq
        FUNCTION ZDP_MatchDescReq,0202H
        ARGFRAME ISTACK, 0, STACK
        ARGFRAME PSTACK, 0, STACK
        ARGFRAME XSTACK, 97, STACK
        ARGFRAME IOVERLAY, 0, STATIC
        ARGFRAME DOVERLAY, 0, STATIC
        EXTERN ZDP_DeviceAnnce
        FUNCTION ZDP_DeviceAnnce,0202H
        ARGFRAME ISTACK, 0, STACK
        ARGFRAME PSTACK, 0, STACK
        ARGFRAME XSTACK, 12, STACK
        ARGFRAME IOVERLAY, 0, STATIC
        ARGFRAME DOVERLAY, 0, STATIC
        EXTERN osal_memcpy
        FUNCTION osal_memcpy,0202H
        ARGFRAME ISTACK, 0, STACK
        ARGFRAME PSTACK, 0, STACK
        ARGFRAME XSTACK, 45, STACK
        ARGFRAME IOVERLAY, 0, STATIC
        ARGFRAME DOVERLAY, 0, STATIC
        EXTERN ZDP_UserDescSet
        FUNCTION ZDP_UserDescSet,0202H
        ARGFRAME ISTACK, 0, STACK
        ARGFRAME PSTACK, 0, STACK
        ARGFRAME XSTACK, 44, STACK
        ARGFRAME IOVERLAY, 0, STATIC
        ARGFRAME DOVERLAY, 0, STATIC
        EXTERN ZDP_ServerDiscReq
        FUNCTION ZDP_ServerDiscReq,0202H
        ARGFRAME ISTACK, 0, STACK
        ARGFRAME PSTACK, 0, STACK
        ARGFRAME XSTACK, 10, STACK
        ARGFRAME IOVERLAY, 0, STATIC
        ARGFRAME DOVERLAY, 0, STATIC
        EXTERN ZDP_EndDeviceBindReq
        FUNCTION ZDP_EndDeviceBindReq,0202H
        ARGFRAME ISTACK, 0, STACK
        ARGFRAME PSTACK, 0, STACK
        ARGFRAME XSTACK, 95, STACK
        ARGFRAME IOVERLAY, 0, STATIC
        ARGFRAME DOVERLAY, 0, STATIC
        EXTERN sAddrExtCpy
        FUNCTION sAddrExtCpy,0202H
        ARGFRAME ISTACK, 0, STACK
        ARGFRAME PSTACK, 0, STACK
        ARGFRAME XSTACK, 35, STACK
        ARGFRAME IOVERLAY, 0, STATIC
        ARGFRAME DOVERLAY, 0, STATIC
        EXTERN ZDP_BindUnbindReq
        FUNCTION ZDP_BindUnbindReq,0202H
        ARGFRAME ISTACK, 0, STACK
        ARGFRAME PSTACK, 0, STACK
        ARGFRAME XSTACK, 43, STACK
        ARGFRAME IOVERLAY, 0, STATIC
        ARGFRAME DOVERLAY, 0, STATIC
        EXTERN ZDOInitDevice
        FUNCTION ZDOInitDevice,0202H
        ARGFRAME ISTACK, 0, STACK
        ARGFRAME PSTACK, 0, STACK
        ARGFRAME XSTACK, 11, STACK
        ARGFRAME IOVERLAY, 0, STATIC
        ARGFRAME DOVERLAY, 0, STATIC
        EXTERN osal_build_uint32
        FUNCTION osal_build_uint32,0202H
        ARGFRAME ISTACK, 0, STACK
        ARGFRAME PSTACK, 0, STACK
        ARGFRAME XSTACK, 17, STACK
        ARGFRAME IOVERLAY, 0, STATIC
        ARGFRAME DOVERLAY, 0, STATIC
        EXTERN ZDApp_NetworkDiscoveryReq
        FUNCTION ZDApp_NetworkDiscoveryReq,0202H
        ARGFRAME ISTACK, 0, STACK
        ARGFRAME PSTACK, 0, STACK
        ARGFRAME XSTACK, 17, STACK
        ARGFRAME IOVERLAY, 0, STATIC
        ARGFRAME DOVERLAY, 0, STATIC
        EXTERN ZDO_RegisterForZdoCB
        FUNCTION ZDO_RegisterForZdoCB,0202H
        ARGFRAME ISTACK, 0, STACK
        ARGFRAME PSTACK, 0, STACK
        ARGFRAME XSTACK, 17, STACK
        ARGFRAME IOVERLAY, 0, STATIC
        ARGFRAME DOVERLAY, 0, STATIC
        EXTERN ZDApp_JoinReq
        FUNCTION ZDApp_JoinReq,0202H
        ARGFRAME ISTACK, 0, STACK
        ARGFRAME PSTACK, 0, STACK
        ARGFRAME XSTACK, 17, STACK
        ARGFRAME IOVERLAY, 0, STATIC
        ARGFRAME DOVERLAY, 0, STATIC
        EXTERN ZDO_DeregisterForZdoCB
        FUNCTION ZDO_DeregisterForZdoCB,0202H
        ARGFRAME ISTACK, 0, STACK
        ARGFRAME PSTACK, 0, STACK
        ARGFRAME XSTACK, 14, STACK
        ARGFRAME IOVERLAY, 0, STATIC
        ARGFRAME DOVERLAY, 0, STATIC
        EXTERN osal_mem_alloc
        FUNCTION osal_mem_alloc,0202H
        ARGFRAME ISTACK, 0, STACK
        ARGFRAME PSTACK, 0, STACK
        ARGFRAME XSTACK, 15, STACK
        ARGFRAME IOVERLAY, 0, STATIC
        ARGFRAME DOVERLAY, 0, STATIC
        EXTERN osal_mem_free
        FUNCTION osal_mem_free,0202H
        ARGFRAME ISTACK, 0, STACK
        ARGFRAME PSTACK, 0, STACK
        ARGFRAME XSTACK, 15, STACK
        ARGFRAME IOVERLAY, 0, STATIC
        ARGFRAME DOVERLAY, 0, STATIC
        EXTERN ZDO_RegisterForZDOMsg
        FUNCTION ZDO_RegisterForZDOMsg,0202H
        ARGFRAME ISTACK, 0, STACK
        ARGFRAME PSTACK, 0, STACK
        ARGFRAME XSTACK, 10, STACK
        ARGFRAME IOVERLAY, 0, STATIC
        ARGFRAME DOVERLAY, 0, STATIC
        EXTERN ZDO_RemoveRegisteredCB
        FUNCTION ZDO_RemoveRegisteredCB,0202H
        ARGFRAME ISTACK, 0, STACK
        ARGFRAME PSTACK, 0, STACK
        ARGFRAME XSTACK, 10, STACK
        ARGFRAME IOVERLAY, 0, STATIC
        ARGFRAME DOVERLAY, 0, STATIC
        EXTERN ??MT_BuildAndSendZToolResponse?relay
        FUNCTION ??MT_BuildAndSendZToolResponse?relay,00H
        EXTERN ??ZDApp_JoinReq?relay
        FUNCTION ??ZDApp_JoinReq?relay,00H
        EXTERN ??ZDApp_NetworkDiscoveryReq?relay
        FUNCTION ??ZDApp_NetworkDiscoveryReq?relay,00H
        EXTERN ??ZDOInitDevice?relay
        FUNCTION ??ZDOInitDevice?relay,00H
        EXTERN ??ZDO_DeregisterForZdoCB?relay
        FUNCTION ??ZDO_DeregisterForZdoCB?relay,00H
        EXTERN ??ZDO_RegisterForZDOMsg?relay
        FUNCTION ??ZDO_RegisterForZDOMsg?relay,00H
        EXTERN ??ZDO_RegisterForZdoCB?relay
        FUNCTION ??ZDO_RegisterForZdoCB?relay,00H
        EXTERN ??ZDO_RemoveRegisteredCB?relay
        FUNCTION ??ZDO_RemoveRegisteredCB?relay,00H
        EXTERN ??ZDP_BindUnbindReq?relay
        FUNCTION ??ZDP_BindUnbindReq?relay,00H
        EXTERN ??ZDP_DeviceAnnce?relay
        FUNCTION ??ZDP_DeviceAnnce?relay,00H
        EXTERN ??ZDP_EndDeviceBindReq?relay
        FUNCTION ??ZDP_EndDeviceBindReq?relay,00H
        EXTERN ??ZDP_IEEEAddrReq?relay
        FUNCTION ??ZDP_IEEEAddrReq?relay,00H
        EXTERN ??ZDP_MatchDescReq?relay
        FUNCTION ??ZDP_MatchDescReq?relay,00H
        EXTERN ??ZDP_NWKAddrOfInterestReq?relay
        FUNCTION ??ZDP_NWKAddrOfInterestReq?relay,00H
        EXTERN ??ZDP_NwkAddrReq?relay
        FUNCTION ??ZDP_NwkAddrReq?relay,00H
        EXTERN ??ZDP_ServerDiscReq?relay
        FUNCTION ??ZDP_ServerDiscReq?relay,00H
        EXTERN ??ZDP_SimpleDescReq?relay
        FUNCTION ??ZDP_SimpleDescReq?relay,00H
        EXTERN ??ZDP_UserDescSet?relay
        FUNCTION ??ZDP_UserDescSet?relay,00H
        EXTERN ??osal_build_uint32?relay
        FUNCTION ??osal_build_uint32?relay,00H
        EXTERN ??osal_mem_alloc?relay
        FUNCTION ??osal_mem_alloc?relay,00H
        EXTERN ??osal_mem_free?relay
        FUNCTION ??osal_mem_free?relay,00H
        EXTERN ??osal_memcpy?relay
        FUNCTION ??osal_memcpy?relay,00H
        EXTERN ??sAddrExtCpy?relay
        FUNCTION ??sAddrExtCpy?relay,00H
        EXTERN MT_TaskID

// F:\work\iot-hardware\logger\logger\Components\mt\MT_ZDO.c
//    1 /**************************************************************************************************
//    2   Filename:       MT_ZDO.c
//    3   Revised:        $Date: 2012-02-16 16:04:32 -0800 (Thu, 16 Feb 2012) $
//    4   Revision:       $Revision: 29348 $
//    5 
//    6   Description:    MonitorTest functions for the ZDO layer.
//    7 
//    8 
//    9   Copyright 2004-2012 Texas Instruments Incorporated. All rights reserved.
//   10 
//   11   IMPORTANT: Your use of this Software is limited to those specific rights
//   12   granted under the terms of a software license agreement between the user
//   13   who downloaded the software, his/her employer (which must be your employer)
//   14   and Texas Instruments Incorporated (the "License"). You may not use this
//   15   Software unless you agree to abide by the terms of the License. The License
//   16   limits your use, and you acknowledge, that the Software may not be modified,
//   17   copied or distributed unless embedded on a Texas Instruments microcontroller
//   18   or used solely and exclusively in conjunction with a Texas Instruments radio
//   19   frequency transceiver, which is integrated into your product. Other than for
//   20   the foregoing purpose, you may not use, reproduce, copy, prepare derivative
//   21   works of, modify, distribute, perform, display or sell this Software and/or
//   22   its documentation for any purpose.
//   23 
//   24   YOU FURTHER ACKNOWLEDGE AND AGREE THAT THE SOFTWARE AND DOCUMENTATION ARE
//   25   PROVIDED “AS IS” WITHOUT WARRANTY OF ANY KIND, EITHER EXPRESS OR IMPLIED,
//   26   INCLUDING WITHOUT LIMITATION, ANY WARRANTY OF MERCHANTABILITY, TITLE,
//   27   NON-INFRINGEMENT AND FITNESS FOR A PARTICULAR PURPOSE. IN NO EVENT SHALL
//   28   TEXAS INSTRUMENTS OR ITS LICENSORS BE LIABLE OR OBLIGATED UNDER CONTRACT,
//   29   NEGLIGENCE, STRICT LIABILITY, CONTRIBUTION, BREACH OF WARRANTY, OR OTHER
//   30   LEGAL EQUITABLE THEORY ANY DIRECT OR INDIRECT DAMAGES OR EXPENSES
//   31   INCLUDING BUT NOT LIMITED TO ANY INCIDENTAL, SPECIAL, INDIRECT, PUNITIVE
//   32   OR CONSEQUENTIAL DAMAGES, LOST PROFITS OR LOST DATA, COST OF PROCUREMENT
//   33   OF SUBSTITUTE GOODS, TECHNOLOGY, SERVICES, OR ANY CLAIMS BY THIRD PARTIES
//   34   (INCLUDING BUT NOT LIMITED TO ANY DEFENSE THEREOF), OR OTHER SIMILAR COSTS.
//   35 
//   36   Should you have any questions regarding your right to use this Software,
//   37   contact Texas Instruments Incorporated at www.TI.com.
//   38 **************************************************************************************************/
//   39 
//   40 #ifdef MT_ZDO_FUNC
//   41 
//   42 /**************************************************************************************************
//   43  * INCLUDES
//   44  **************************************************************************************************/
//   45 #include "ZComDef.h"
//   46 #include "OSAL.h"
//   47 #include "OSAL_Nv.h"
//   48 #include "MT.h"
//   49 #include "MT_ZDO.h"
//   50 #include "APSMEDE.h"
//   51 #include "ZDConfig.h"
//   52 #include "ZDProfile.h"
//   53 #include "ZDObject.h"
//   54 #include "ZDApp.h"
//   55 
//   56 #if !defined( WIN32 )
//   57   #include "OnBoard.h"
//   58 #endif
//   59 
//   60 #if defined ( MT_SYS_KEY_MANAGEMENT )
//   61   #include "ZDSecMgr.h"
//   62 #endif
//   63 
//   64 #include "nwk_util.h"
//   65 
//   66 /**************************************************************************************************
//   67  * CONSTANTS
//   68  **************************************************************************************************/
//   69 #define MT_ZDO_END_DEVICE_ANNCE_IND_LEN   0x0D
//   70 #define MT_ZDO_ADDR_RSP_LEN               0x0D
//   71 #define MT_ZDO_BIND_UNBIND_RSP_LEN        0x03
//   72 #define MT_ZDO_BEACON_IND_LEN             21
//   73 #define MT_ZDO_BEACON_IND_PACK_LEN        (MT_UART_TX_BUFF_MAX - SPI_0DATA_MSG_LEN)
//   74 #define MT_ZDO_JOIN_CNF_LEN               5
//   75 
//   76 // Message must pack nwk addr, entire (not just pointer to) ieee addr, and packet cost, so the
//   77 // sizeof(zdoConcentratorInd_t) is not usable.
//   78 #define MT_ZDO_CONCENTRATOR_IND_LEN      (2 + Z_EXTADDR_LEN + 1)
//   79 
//   80 #define MTZDO_RESPONSE_BUFFER_LEN   100
//   81 
//   82 #define MTZDO_MAX_MATCH_CLUSTERS    16
//   83 #define MTZDO_MAX_ED_BIND_CLUSTERS  15
//   84 
//   85 // Conversion from ZDO Cluster Id to the RPC AREQ Id is direct as follows:
//   86 #define MT_ZDO_CID_TO_AREQ_ID(CId)  ((uint8)(CId) | 0x80)
//   87 
//   88 #define MT_ZDO_STATUS_LEN   1
//   89 
//   90 /**************************************************************************************************
//   91  * GLOBAL VARIABLES
//   92  **************************************************************************************************/

        RSEG XDATA_Z:XDATA:NOROOT(0)
        DATA32
//   93 uint32 _zdoCallbackSub;
_zdoCallbackSub:
        DS 4
        REQUIRE __INIT_XDATA_Z

        RSEG XDATA_Z:XDATA:NOROOT(0)
        DATA16
//   94 uint8 *pBeaconIndBuf = NULL;
pBeaconIndBuf:
        DS 2
        REQUIRE __INIT_XDATA_Z
//   95 
//   96 /**************************************************************************************************
//   97  * LOCAL VARIABLES
//   98  **************************************************************************************************/
//   99 
//  100 /**************************************************************************************************
//  101  * LOCAL FUNCTIONS
//  102  **************************************************************************************************/
//  103 #if defined (MT_ZDO_FUNC)
//  104 void MT_ZdoNWKAddressRequest(uint8 *pBuf);
//  105 void MT_ZdoIEEEAddrRequest(uint8 *pBuf);
//  106 void MT_ZdoNodeDescRequest(uint8 *pBuf);
//  107 void MT_ZdoPowerDescRequest(uint8 *pBuf);
//  108 void MT_ZdoSimpleDescRequest(uint8 *pBuf);
//  109 void MT_ZdoActiveEpRequest(uint8 *pBuf);
//  110 void MT_ZdoMatchDescRequest(uint8 *pBuf);
//  111 void MT_ZdoComplexDescRequest(uint8 *pBuf);
//  112 void MT_ZdoUserDescRequest(uint8 *pBuf);
//  113 void MT_ZdoEndDevAnnce(uint8 *pBuf);
//  114 void MT_ZdoUserDescSet(uint8 *pBuf);
//  115 void MT_ZdoServiceDiscRequest(uint8 *pBuf);
//  116 void MT_ZdoEndDevBindRequest(uint8 *pBuf);
//  117 void MT_ZdoBindRequest(uint8 *pBuf);
//  118 void MT_ZdoUnbindRequest(uint8 *pBuf);
//  119 void MT_ZdoMgmtNwkDiscRequest(uint8 *pBuf);
//  120 #if defined ( MT_SYS_KEY_MANAGEMENT )
//  121 void MT_ZdoSetLinkKey(uint8 *pBuf);
//  122 void MT_ZdoRemoveLinkKey(uint8 *pBuf);
//  123 void MT_ZdoGetLinkKey(uint8 *pBuf);
//  124 #endif /* MT_SYS_KEY_MANAGEMENT */
//  125 void MT_ZdoNetworkDiscoveryReq(uint8 *pBuf);
//  126 void MT_ZdoJoinReq(uint8 *pBuf);
//  127 /* Call back function */
//  128 void *MT_ZdoNwkDiscoveryCnfCB ( void *pStr );
//  129 void *MT_ZdoBeaconIndCB ( void *pStr );
//  130 void *MT_ZdoJoinCnfCB ( void *pStr );
//  131 #if defined (MT_ZDO_MGMT)
//  132 void MT_ZdoMgmtLqiRequest(uint8 *pBuf);
//  133 void MT_ZdoMgmtRtgRequest(uint8 *pBuf);
//  134 void MT_ZdoMgmtBindRequest(uint8 *pBuf);
//  135 void MT_ZdoMgmtLeaveRequest(uint8 *pBuf);
//  136 void MT_ZdoMgmtDirectJoinRequest(uint8 *pBuf);
//  137 void MT_ZdoMgmtPermitJoinRequest(uint8 *pBuf);
//  138 void MT_ZdoMgmtNwkUpdateRequest(uint8 *pBuf);
//  139 #endif /* MT_ZDO_MGMT */
//  140 void MT_ZdoStartupFromApp(uint8 *pBuf);
//  141 void MT_ZdoRegisterForZDOMsg(uint8 *pBuf);
//  142 void MT_ZdoRemoveRegisteredCB(uint8 *pBuf);
//  143 #endif /* MT_ZDO_FUNC */
//  144 
//  145 #if defined (MT_ZDO_CB_FUNC)
//  146 uint8 MT_ZdoHandleExceptions( afIncomingMSGPacket_t *pData, zdoIncomingMsg_t *inMsg );
//  147 void MT_ZdoAddrRspCB( ZDO_NwkIEEEAddrResp_t *pMsg, uint16 clusterID );
//  148 void MT_ZdoEndDevAnnceCB( ZDO_DeviceAnnce_t *pMsg, uint16 srcAddr );
//  149 void MT_ZdoBindUnbindRspCB( uint16 clusterID, uint16 srcAddr, uint8 status );
//  150 void* MT_ZdoSrcRtgCB( void *pStr );
//  151 static void *MT_ZdoConcentratorIndCB(void *pStr);
//  152 static void *MT_ZdoLeaveInd(void *vPtr);
//  153 #endif /* MT_ZDO_CB_FUNC */
//  154 
//  155 #if defined (MT_ZDO_FUNC)
//  156 /***************************************************************************************************
//  157  * @fn      MT_ZdoInit
//  158  *
//  159  * @brief   MT ZDO initialization
//  160  *
//  161  * @param   none
//  162  *
//  163  * @return  none
//  164  ***************************************************************************************************/

        RSEG BANKED_CODE:CODE:NOROOT(0)
//  165 void MT_ZdoInit(void)
MT_ZdoInit:
        CFI Block cfiBlock0 Using cfiCommon0
        CFI Function MT_ZdoInit
        CODE
//  166 {
        ; Saved register size: 0
        ; Auto size: 0
//  167 #ifdef MT_ZDO_CB_FUNC
//  168   /* Register with ZDO for indication callbacks */
//  169   ZDO_RegisterForZdoCB(ZDO_SRC_RTG_IND_CBID, &MT_ZdoSrcRtgCB);
//  170   ZDO_RegisterForZdoCB(ZDO_CONCENTRATOR_IND_CBID, &MT_ZdoConcentratorIndCB);
//  171   ZDO_RegisterForZdoCB(ZDO_LEAVE_IND_CBID, &MT_ZdoLeaveInd);
//  172 #endif
//  173 }
        LJMP    ?BRET
        CFI EndBlock cfiBlock0
//  174 
//  175 /***************************************************************************************************
//  176  * @fn      MT_ZdoCommandProcessing
//  177  *
//  178  * @brief
//  179  *
//  180  *   Process all the ZDO commands that are issued by test tool
//  181  *
//  182  * @param   pBuf - pointer to the msg buffer
//  183  *
//  184  *          | LEN  | CMD0  | CMD1  |  DATA  |
//  185  *          |  1   |   1   |   1   |  0-255 |
//  186  *
//  187  * @return  status
//  188  ***************************************************************************************************/

        RSEG BANKED_CODE:CODE:NOROOT(0)
//  189 uint8 MT_ZdoCommandProcessing(uint8* pBuf)
MT_ZdoCommandProcessing:
        CFI Block cfiBlock1 Using cfiCommon0
        CFI Function MT_ZdoCommandProcessing
        CODE
//  190 {
        FUNCALL MT_ZdoCommandProcessing, MT_ZdoNWKAddressRequest
        LOCFRAME ISTACK, 0, STACK
        LOCFRAME PSTACK, 0, STACK
        LOCFRAME XSTACK, 9, STACK
        LOCFRAME IOVERLAY, 0, STATIC
        LOCFRAME DOVERLAY, 0, STATIC
        ARGFRAME ISTACK, 0, STACK
        ARGFRAME PSTACK, 0, STACK
        ARGFRAME XSTACK, 9, STACK
        ARGFRAME IOVERLAY, 0, STATIC
        ARGFRAME DOVERLAY, 0, STATIC
        FUNCALL MT_ZdoCommandProcessing, MT_ZdoIEEEAddrRequest
        LOCFRAME ISTACK, 0, STACK
        LOCFRAME PSTACK, 0, STACK
        LOCFRAME XSTACK, 9, STACK
        LOCFRAME IOVERLAY, 0, STATIC
        LOCFRAME DOVERLAY, 0, STATIC
        ARGFRAME ISTACK, 0, STACK
        ARGFRAME PSTACK, 0, STACK
        ARGFRAME XSTACK, 9, STACK
        ARGFRAME IOVERLAY, 0, STATIC
        ARGFRAME DOVERLAY, 0, STATIC
        FUNCALL MT_ZdoCommandProcessing, MT_ZdoNodeDescRequest
        LOCFRAME ISTACK, 0, STACK
        LOCFRAME PSTACK, 0, STACK
        LOCFRAME XSTACK, 9, STACK
        LOCFRAME IOVERLAY, 0, STATIC
        LOCFRAME DOVERLAY, 0, STATIC
        ARGFRAME ISTACK, 0, STACK
        ARGFRAME PSTACK, 0, STACK
        ARGFRAME XSTACK, 9, STACK
        ARGFRAME IOVERLAY, 0, STATIC
        ARGFRAME DOVERLAY, 0, STATIC
        FUNCALL MT_ZdoCommandProcessing, MT_ZdoPowerDescRequest
        LOCFRAME ISTACK, 0, STACK
        LOCFRAME PSTACK, 0, STACK
        LOCFRAME XSTACK, 9, STACK
        LOCFRAME IOVERLAY, 0, STATIC
        LOCFRAME DOVERLAY, 0, STATIC
        ARGFRAME ISTACK, 0, STACK
        ARGFRAME PSTACK, 0, STACK
        ARGFRAME XSTACK, 9, STACK
        ARGFRAME IOVERLAY, 0, STATIC
        ARGFRAME DOVERLAY, 0, STATIC
        FUNCALL MT_ZdoCommandProcessing, MT_ZdoSimpleDescRequest
        LOCFRAME ISTACK, 0, STACK
        LOCFRAME PSTACK, 0, STACK
        LOCFRAME XSTACK, 9, STACK
        LOCFRAME IOVERLAY, 0, STATIC
        LOCFRAME DOVERLAY, 0, STATIC
        ARGFRAME ISTACK, 0, STACK
        ARGFRAME PSTACK, 0, STACK
        ARGFRAME XSTACK, 9, STACK
        ARGFRAME IOVERLAY, 0, STATIC
        ARGFRAME DOVERLAY, 0, STATIC
        FUNCALL MT_ZdoCommandProcessing, MT_ZdoActiveEpRequest
        LOCFRAME ISTACK, 0, STACK
        LOCFRAME PSTACK, 0, STACK
        LOCFRAME XSTACK, 9, STACK
        LOCFRAME IOVERLAY, 0, STATIC
        LOCFRAME DOVERLAY, 0, STATIC
        ARGFRAME ISTACK, 0, STACK
        ARGFRAME PSTACK, 0, STACK
        ARGFRAME XSTACK, 9, STACK
        ARGFRAME IOVERLAY, 0, STATIC
        ARGFRAME DOVERLAY, 0, STATIC
        FUNCALL MT_ZdoCommandProcessing, MT_ZdoMatchDescRequest
        LOCFRAME ISTACK, 0, STACK
        LOCFRAME PSTACK, 0, STACK
        LOCFRAME XSTACK, 9, STACK
        LOCFRAME IOVERLAY, 0, STATIC
        LOCFRAME DOVERLAY, 0, STATIC
        ARGFRAME ISTACK, 0, STACK
        ARGFRAME PSTACK, 0, STACK
        ARGFRAME XSTACK, 9, STACK
        ARGFRAME IOVERLAY, 0, STATIC
        ARGFRAME DOVERLAY, 0, STATIC
        FUNCALL MT_ZdoCommandProcessing, MT_ZdoComplexDescRequest
        LOCFRAME ISTACK, 0, STACK
        LOCFRAME PSTACK, 0, STACK
        LOCFRAME XSTACK, 9, STACK
        LOCFRAME IOVERLAY, 0, STATIC
        LOCFRAME DOVERLAY, 0, STATIC
        ARGFRAME ISTACK, 0, STACK
        ARGFRAME PSTACK, 0, STACK
        ARGFRAME XSTACK, 9, STACK
        ARGFRAME IOVERLAY, 0, STATIC
        ARGFRAME DOVERLAY, 0, STATIC
        FUNCALL MT_ZdoCommandProcessing, MT_ZdoUserDescRequest
        LOCFRAME ISTACK, 0, STACK
        LOCFRAME PSTACK, 0, STACK
        LOCFRAME XSTACK, 9, STACK
        LOCFRAME IOVERLAY, 0, STATIC
        LOCFRAME DOVERLAY, 0, STATIC
        ARGFRAME ISTACK, 0, STACK
        ARGFRAME PSTACK, 0, STACK
        ARGFRAME XSTACK, 9, STACK
        ARGFRAME IOVERLAY, 0, STATIC
        ARGFRAME DOVERLAY, 0, STATIC
        FUNCALL MT_ZdoCommandProcessing, MT_ZdoEndDevAnnce
        LOCFRAME ISTACK, 0, STACK
        LOCFRAME PSTACK, 0, STACK
        LOCFRAME XSTACK, 9, STACK
        LOCFRAME IOVERLAY, 0, STATIC
        LOCFRAME DOVERLAY, 0, STATIC
        ARGFRAME ISTACK, 0, STACK
        ARGFRAME PSTACK, 0, STACK
        ARGFRAME XSTACK, 9, STACK
        ARGFRAME IOVERLAY, 0, STATIC
        ARGFRAME DOVERLAY, 0, STATIC
        FUNCALL MT_ZdoCommandProcessing, MT_ZdoUserDescSet
        LOCFRAME ISTACK, 0, STACK
        LOCFRAME PSTACK, 0, STACK
        LOCFRAME XSTACK, 9, STACK
        LOCFRAME IOVERLAY, 0, STATIC
        LOCFRAME DOVERLAY, 0, STATIC
        ARGFRAME ISTACK, 0, STACK
        ARGFRAME PSTACK, 0, STACK
        ARGFRAME XSTACK, 9, STACK
        ARGFRAME IOVERLAY, 0, STATIC
        ARGFRAME DOVERLAY, 0, STATIC
        FUNCALL MT_ZdoCommandProcessing, MT_ZdoServiceDiscRequest
        LOCFRAME ISTACK, 0, STACK
        LOCFRAME PSTACK, 0, STACK
        LOCFRAME XSTACK, 9, STACK
        LOCFRAME IOVERLAY, 0, STATIC
        LOCFRAME DOVERLAY, 0, STATIC
        ARGFRAME ISTACK, 0, STACK
        ARGFRAME PSTACK, 0, STACK
        ARGFRAME XSTACK, 9, STACK
        ARGFRAME IOVERLAY, 0, STATIC
        ARGFRAME DOVERLAY, 0, STATIC
        FUNCALL MT_ZdoCommandProcessing, MT_ZdoEndDevBindRequest
        LOCFRAME ISTACK, 0, STACK
        LOCFRAME PSTACK, 0, STACK
        LOCFRAME XSTACK, 9, STACK
        LOCFRAME IOVERLAY, 0, STATIC
        LOCFRAME DOVERLAY, 0, STATIC
        ARGFRAME ISTACK, 0, STACK
        ARGFRAME PSTACK, 0, STACK
        ARGFRAME XSTACK, 9, STACK
        ARGFRAME IOVERLAY, 0, STATIC
        ARGFRAME DOVERLAY, 0, STATIC
        FUNCALL MT_ZdoCommandProcessing, MT_ZdoBindRequest
        LOCFRAME ISTACK, 0, STACK
        LOCFRAME PSTACK, 0, STACK
        LOCFRAME XSTACK, 9, STACK
        LOCFRAME IOVERLAY, 0, STATIC
        LOCFRAME DOVERLAY, 0, STATIC
        ARGFRAME ISTACK, 0, STACK
        ARGFRAME PSTACK, 0, STACK
        ARGFRAME XSTACK, 9, STACK
        ARGFRAME IOVERLAY, 0, STATIC
        ARGFRAME DOVERLAY, 0, STATIC
        FUNCALL MT_ZdoCommandProcessing, MT_ZdoUnbindRequest
        LOCFRAME ISTACK, 0, STACK
        LOCFRAME PSTACK, 0, STACK
        LOCFRAME XSTACK, 9, STACK
        LOCFRAME IOVERLAY, 0, STATIC
        LOCFRAME DOVERLAY, 0, STATIC
        ARGFRAME ISTACK, 0, STACK
        ARGFRAME PSTACK, 0, STACK
        ARGFRAME XSTACK, 9, STACK
        ARGFRAME IOVERLAY, 0, STATIC
        ARGFRAME DOVERLAY, 0, STATIC
        FUNCALL MT_ZdoCommandProcessing, MT_ZdoNetworkDiscoveryReq
        LOCFRAME ISTACK, 0, STACK
        LOCFRAME PSTACK, 0, STACK
        LOCFRAME XSTACK, 9, STACK
        LOCFRAME IOVERLAY, 0, STATIC
        LOCFRAME DOVERLAY, 0, STATIC
        ARGFRAME ISTACK, 0, STACK
        ARGFRAME PSTACK, 0, STACK
        ARGFRAME XSTACK, 9, STACK
        ARGFRAME IOVERLAY, 0, STATIC
        ARGFRAME DOVERLAY, 0, STATIC
        FUNCALL MT_ZdoCommandProcessing, MT_ZdoJoinReq
        LOCFRAME ISTACK, 0, STACK
        LOCFRAME PSTACK, 0, STACK
        LOCFRAME XSTACK, 9, STACK
        LOCFRAME IOVERLAY, 0, STATIC
        LOCFRAME DOVERLAY, 0, STATIC
        ARGFRAME ISTACK, 0, STACK
        ARGFRAME PSTACK, 0, STACK
        ARGFRAME XSTACK, 9, STACK
        ARGFRAME IOVERLAY, 0, STATIC
        ARGFRAME DOVERLAY, 0, STATIC
        FUNCALL MT_ZdoCommandProcessing, MT_ZdoStartupFromApp
        LOCFRAME ISTACK, 0, STACK
        LOCFRAME PSTACK, 0, STACK
        LOCFRAME XSTACK, 9, STACK
        LOCFRAME IOVERLAY, 0, STATIC
        LOCFRAME DOVERLAY, 0, STATIC
        ARGFRAME ISTACK, 0, STACK
        ARGFRAME PSTACK, 0, STACK
        ARGFRAME XSTACK, 9, STACK
        ARGFRAME IOVERLAY, 0, STATIC
        ARGFRAME DOVERLAY, 0, STATIC
        FUNCALL MT_ZdoCommandProcessing, MT_ZdoRegisterForZDOMsg
        LOCFRAME ISTACK, 0, STACK
        LOCFRAME PSTACK, 0, STACK
        LOCFRAME XSTACK, 9, STACK
        LOCFRAME IOVERLAY, 0, STATIC
        LOCFRAME DOVERLAY, 0, STATIC
        ARGFRAME ISTACK, 0, STACK
        ARGFRAME PSTACK, 0, STACK
        ARGFRAME XSTACK, 9, STACK
        ARGFRAME IOVERLAY, 0, STATIC
        ARGFRAME DOVERLAY, 0, STATIC
        FUNCALL MT_ZdoCommandProcessing, MT_ZdoRemoveRegisteredCB
        LOCFRAME ISTACK, 0, STACK
        LOCFRAME PSTACK, 0, STACK
        LOCFRAME XSTACK, 9, STACK
        LOCFRAME IOVERLAY, 0, STATIC
        LOCFRAME DOVERLAY, 0, STATIC
        ARGFRAME ISTACK, 0, STACK
        ARGFRAME PSTACK, 0, STACK
        ARGFRAME XSTACK, 9, STACK
        ARGFRAME IOVERLAY, 0, STATIC
        ARGFRAME DOVERLAY, 0, STATIC
        MOV     A,#-0x9
        LCALL   ?BANKED_ENTER_XDATA
        CFI DPH0 load(1, XDATA, add(CFA_XSP16, literal(-1)))
        CFI DPL0 load(1, XDATA, add(CFA_XSP16, literal(-2)))
        CFI ?BRET_EXT load(1, XDATA, add(CFA_XSP16, literal(-3)))
        CFI ?RET_HIGH load(1, XDATA, add(CFA_XSP16, literal(-4)))
        CFI ?RET_LOW load(1, XDATA, add(CFA_XSP16, literal(-5)))
        CFI R7 load(1, XDATA, add(CFA_XSP16, literal(-6)))
        CFI V0 load(1, XDATA, add(CFA_XSP16, literal(-7)))
        CFI VB load(1, XDATA, add(CFA_XSP16, literal(-8)))
        CFI R6 load(1, XDATA, add(CFA_XSP16, literal(-9)))
        CFI CFA_SP SP+0
        CFI CFA_XSP16 add(XSP16, 9)
        ; Saved register size: 9
        ; Auto size: 0
//  191   uint8 status = MT_RPC_SUCCESS;
        MOV     R6,#0x0
//  192 
//  193   switch (pBuf[MT_RPC_POS_CMD1])
        MOV     DPL,R2
        MOV     DPH,R3
        INC     DPTR
        INC     DPTR
        MOVX    A,@DPTR
        JZ      ??MT_ZdoCommandProcessing_0
        DEC     A
        JZ      ??MT_ZdoCommandProcessing_1
        DEC     A
        JZ      ??MT_ZdoCommandProcessing_2
        DEC     A
        JZ      ??MT_ZdoCommandProcessing_3
        DEC     A
        JZ      ??MT_ZdoCommandProcessing_4
        DEC     A
        JZ      ??MT_ZdoCommandProcessing_5
        DEC     A
        JZ      ??MT_ZdoCommandProcessing_6
        DEC     A
        JZ      ??MT_ZdoCommandProcessing_7
        DEC     A
        JZ      ??MT_ZdoCommandProcessing_8
        ADD     A,#-0x2
        JZ      ??MT_ZdoCommandProcessing_9
        DEC     A
        JZ      ??MT_ZdoCommandProcessing_10
        DEC     A
        JZ      ??MT_ZdoCommandProcessing_11
        ADD     A,#-0x14
        JZ      ??MT_ZdoCommandProcessing_12
        DEC     A
        JZ      ??MT_ZdoCommandProcessing_13
        DEC     A
        JZ      ??MT_ZdoCommandProcessing_14
        ADD     A,#-0x4
        JZ      ??MT_ZdoCommandProcessing_15
        DEC     A
        JZ      ??MT_ZdoCommandProcessing_16
        ADD     A,#-0x17
        JZ      ??MT_ZdoCommandProcessing_17
        DEC     A
        JZ      ??MT_ZdoCommandProcessing_18
        DEC     A
        JZ      ??MT_ZdoCommandProcessing_19
        SJMP    ??MT_ZdoCommandProcessing_20
//  194   {
//  195 #if defined ( ZDO_NWKADDR_REQUEST )
//  196     case MT_ZDO_NWK_ADDR_REQ:
//  197       MT_ZdoNWKAddressRequest(pBuf);
??MT_ZdoCommandProcessing_0:
        ; Setup parameters for call to function MT_ZdoNWKAddressRequest
        LCALL   ??MT_ZdoNWKAddressRequest?relay
//  198       break;
        SJMP    ??MT_ZdoCommandProcessing_21
//  199 #endif
//  200 
//  201 #if defined ( ZDO_IEEEADDR_REQUEST )
//  202     case MT_ZDO_IEEE_ADDR_REQ:
//  203       MT_ZdoIEEEAddrRequest(pBuf);
??MT_ZdoCommandProcessing_1:
        ; Setup parameters for call to function MT_ZdoIEEEAddrRequest
        LCALL   ??MT_ZdoIEEEAddrRequest?relay
//  204       break;
        SJMP    ??MT_ZdoCommandProcessing_21
//  205 #endif
//  206 
//  207 #if defined ( ZDO_NODEDESC_REQUEST )
//  208     case MT_ZDO_NODE_DESC_REQ:
//  209       MT_ZdoNodeDescRequest(pBuf);
??MT_ZdoCommandProcessing_2:
        ; Setup parameters for call to function MT_ZdoNodeDescRequest
        LCALL   ??MT_ZdoNodeDescRequest?relay
//  210       break;
        SJMP    ??MT_ZdoCommandProcessing_21
//  211 #endif
//  212 
//  213 #if defined ( ZDO_POWERDESC_REQUEST )
//  214     case MT_ZDO_POWER_DESC_REQ:
//  215       MT_ZdoPowerDescRequest(pBuf);
??MT_ZdoCommandProcessing_3:
        ; Setup parameters for call to function MT_ZdoPowerDescRequest
        LCALL   ??MT_ZdoPowerDescRequest?relay
//  216       break;
        SJMP    ??MT_ZdoCommandProcessing_21
//  217 #endif
//  218 
//  219 #if defined ( ZDO_SIMPLEDESC_REQUEST )
//  220     case MT_ZDO_SIMPLE_DESC_REQ:
//  221       MT_ZdoSimpleDescRequest(pBuf);
??MT_ZdoCommandProcessing_4:
        ; Setup parameters for call to function MT_ZdoSimpleDescRequest
        LCALL   ??MT_ZdoSimpleDescRequest?relay
//  222       break;
        SJMP    ??MT_ZdoCommandProcessing_21
//  223 #endif
//  224 
//  225 #if defined ( ZDO_ACTIVEEP_REQUEST )
//  226     case MT_ZDO_ACTIVE_EP_REQ:
//  227       MT_ZdoActiveEpRequest(pBuf);
??MT_ZdoCommandProcessing_5:
        ; Setup parameters for call to function MT_ZdoActiveEpRequest
        LCALL   ??MT_ZdoActiveEpRequest?relay
//  228       break;
        SJMP    ??MT_ZdoCommandProcessing_21
//  229 #endif
//  230 
//  231 #if defined ( ZDO_MATCH_REQUEST )
//  232     case MT_ZDO_MATCH_DESC_REQ:
//  233       MT_ZdoMatchDescRequest(pBuf);
??MT_ZdoCommandProcessing_6:
        ; Setup parameters for call to function MT_ZdoMatchDescRequest
        LCALL   ??MT_ZdoMatchDescRequest?relay
//  234       break;
        SJMP    ??MT_ZdoCommandProcessing_21
//  235 #endif
//  236 
//  237 #if defined ( ZDO_COMPLEXDESC_REQUEST )
//  238     case MT_ZDO_COMPLEX_DESC_REQ:
//  239       MT_ZdoComplexDescRequest(pBuf);
??MT_ZdoCommandProcessing_7:
        ; Setup parameters for call to function MT_ZdoComplexDescRequest
        LCALL   ??MT_ZdoComplexDescRequest?relay
//  240       break;
        SJMP    ??MT_ZdoCommandProcessing_21
//  241 #endif
//  242 
//  243 #if defined ( ZDO_USERDESC_REQUEST )
//  244     case MT_ZDO_USER_DESC_REQ:
//  245       MT_ZdoUserDescRequest(pBuf);
??MT_ZdoCommandProcessing_8:
        ; Setup parameters for call to function MT_ZdoUserDescRequest
        LCALL   ??MT_ZdoUserDescRequest?relay
//  246       break;
        SJMP    ??MT_ZdoCommandProcessing_21
//  247 #endif
//  248 
//  249 #if defined ( ZDO_ENDDEVICE_ANNCE )
//  250     case MT_ZDO_END_DEV_ANNCE:
//  251       MT_ZdoEndDevAnnce(pBuf);
??MT_ZdoCommandProcessing_9:
        ; Setup parameters for call to function MT_ZdoEndDevAnnce
        LCALL   ??MT_ZdoEndDevAnnce?relay
//  252       break;
        SJMP    ??MT_ZdoCommandProcessing_21
//  253 #endif
//  254 
//  255 #if defined ( ZDO_USERDESCSET_REQUEST )
//  256     case MT_ZDO_USER_DESC_SET:
//  257       MT_ZdoUserDescSet(pBuf);
??MT_ZdoCommandProcessing_10:
        ; Setup parameters for call to function MT_ZdoUserDescSet
        LCALL   ??MT_ZdoUserDescSet?relay
//  258       break;
        SJMP    ??MT_ZdoCommandProcessing_21
//  259 #endif
//  260 
//  261 #if defined ( ZDO_SERVERDISC_REQUEST )
//  262     case MT_ZDO_SERVICE_DISC_REQ:
//  263       MT_ZdoServiceDiscRequest(pBuf);
??MT_ZdoCommandProcessing_11:
        ; Setup parameters for call to function MT_ZdoServiceDiscRequest
        LCALL   ??MT_ZdoServiceDiscRequest?relay
//  264       break;
        SJMP    ??MT_ZdoCommandProcessing_21
//  265 #endif
//  266 
//  267 #if defined ( ZDO_ENDDEVICEBIND_REQUEST )
//  268     case MT_ZDO_END_DEV_BIND_REQ:
//  269       MT_ZdoEndDevBindRequest(pBuf);
??MT_ZdoCommandProcessing_12:
        ; Setup parameters for call to function MT_ZdoEndDevBindRequest
        LCALL   ??MT_ZdoEndDevBindRequest?relay
//  270       break;
        SJMP    ??MT_ZdoCommandProcessing_21
//  271 #endif
//  272 
//  273 #if defined ( ZDO_BIND_UNBIND_REQUEST )
//  274     case MT_ZDO_BIND_REQ:
//  275       MT_ZdoBindRequest(pBuf);
??MT_ZdoCommandProcessing_13:
        ; Setup parameters for call to function MT_ZdoBindRequest
        LCALL   ??MT_ZdoBindRequest?relay
//  276       break;
        SJMP    ??MT_ZdoCommandProcessing_21
//  277 #endif
//  278 
//  279 #if defined ( ZDO_BIND_UNBIND_REQUEST )
//  280     case MT_ZDO_UNBIND_REQ:
//  281       MT_ZdoUnbindRequest(pBuf);
??MT_ZdoCommandProcessing_14:
        ; Setup parameters for call to function MT_ZdoUnbindRequest
        LCALL   ??MT_ZdoUnbindRequest?relay
//  282       break;
        SJMP    ??MT_ZdoCommandProcessing_21
//  283 #endif
//  284 
//  285 #if defined ( MT_SYS_KEY_MANAGEMENT )
//  286     case MT_ZDO_SET_LINK_KEY:
//  287       MT_ZdoSetLinkKey(pBuf);
//  288       break;
//  289 
//  290     case MT_ZDO_REMOVE_LINK_KEY:
//  291       MT_ZdoRemoveLinkKey(pBuf);
//  292       break;
//  293 
//  294     case MT_ZDO_GET_LINK_KEY:
//  295       MT_ZdoGetLinkKey(pBuf);
//  296       break;
//  297 #endif // MT_SYS_KEY_MANAGEMENT
//  298 
//  299 #if defined ( ZDO_MANUAL_JOIN )
//  300     case MT_ZDO_NWK_DISCOVERY_REQ:
//  301       MT_ZdoNetworkDiscoveryReq(pBuf);
??MT_ZdoCommandProcessing_15:
        ; Setup parameters for call to function MT_ZdoNetworkDiscoveryReq
        LCALL   ??MT_ZdoNetworkDiscoveryReq?relay
//  302       break;
        SJMP    ??MT_ZdoCommandProcessing_21
//  303 
//  304     case MT_ZDO_JOIN_REQ:
//  305       MT_ZdoJoinReq(pBuf);
??MT_ZdoCommandProcessing_16:
        ; Setup parameters for call to function MT_ZdoJoinReq
        LCALL   ??MT_ZdoJoinReq?relay
//  306       break;
        SJMP    ??MT_ZdoCommandProcessing_21
//  307 #endif
//  308 
//  309 #if defined ( ZDO_MGMT_NWKDISC_REQUEST )
//  310     case MT_ZDO_MGMT_NWKDISC_REQ:
//  311       MT_ZdoMgmtNwkDiscRequest(pBuf);
//  312       break;
//  313 #endif
//  314 
//  315 #if defined ( ZDO_MGMT_LQI_REQUEST )
//  316     case MT_ZDO_MGMT_LQI_REQ:
//  317       MT_ZdoMgmtLqiRequest(pBuf);
//  318       break;
//  319 #endif
//  320 
//  321 #if defined ( ZDO_MGMT_RTG_REQUEST )
//  322     case MT_ZDO_MGMT_RTG_REQ:
//  323       MT_ZdoMgmtRtgRequest(pBuf);
//  324       break;
//  325 #endif
//  326 
//  327 #if defined ( ZDO_MGMT_BIND_REQUEST )
//  328     case MT_ZDO_MGMT_BIND_REQ:
//  329       MT_ZdoMgmtBindRequest(pBuf);
//  330       break;
//  331 #endif
//  332 
//  333 #if defined ( ZDO_MGMT_LEAVE_REQUEST )
//  334     case MT_ZDO_MGMT_LEAVE_REQ:
//  335       MT_ZdoMgmtLeaveRequest(pBuf);
//  336       break;
//  337 #endif
//  338 
//  339 #if defined ( ZDO_MGMT_JOINDIRECT_REQUEST )
//  340     case MT_ZDO_MGMT_DIRECT_JOIN_REQ:
//  341       MT_ZdoMgmtDirectJoinRequest(pBuf);
//  342       break;
//  343 #endif
//  344 
//  345 #if defined ( ZDO_MGMT_PERMIT_JOIN_REQUEST )
//  346     case MT_ZDO_MGMT_PERMIT_JOIN_REQ:
//  347       MT_ZdoMgmtPermitJoinRequest(pBuf);
//  348       break;
//  349 #endif
//  350 
//  351 #if defined ( ZDO_MGMT_NWKUPDATE_REQUEST )
//  352     case MT_ZDO_MGMT_NWK_UPDATE_REQ:
//  353       MT_ZdoMgmtNwkUpdateRequest(pBuf);
//  354       break;
//  355 #endif
//  356 
//  357 #if defined ( ZDO_NETWORKSTART_REQUEST )
//  358     case MT_ZDO_STARTUP_FROM_APP:
//  359       MT_ZdoStartupFromApp(pBuf);
??MT_ZdoCommandProcessing_19:
        ; Setup parameters for call to function MT_ZdoStartupFromApp
        LCALL   ??MT_ZdoStartupFromApp?relay
//  360       break;
        SJMP    ??MT_ZdoCommandProcessing_21
//  361 #endif
//  362 
//  363     case MT_ZDO_MSG_CB_REGISTER:
//  364       MT_ZdoRegisterForZDOMsg(pBuf);
??MT_ZdoCommandProcessing_17:
        ; Setup parameters for call to function MT_ZdoRegisterForZDOMsg
        LCALL   ??MT_ZdoRegisterForZDOMsg?relay
//  365       break;
        SJMP    ??MT_ZdoCommandProcessing_21
//  366 
//  367     case MT_ZDO_MSG_CB_REMOVE:
//  368       MT_ZdoRemoveRegisteredCB(pBuf);
??MT_ZdoCommandProcessing_18:
        ; Setup parameters for call to function MT_ZdoRemoveRegisteredCB
        LCALL   ??MT_ZdoRemoveRegisteredCB?relay
//  369       break;
        SJMP    ??MT_ZdoCommandProcessing_21
//  370 
//  371     default:
//  372       status = MT_RPC_ERR_COMMAND_ID;
??MT_ZdoCommandProcessing_20:
        MOV     R6,#0x2
//  373       break;
//  374   }
//  375 
//  376   return status;
??MT_ZdoCommandProcessing_21:
        MOV     A,R6
        MOV     R1,A
        MOV     R7,#0x1
        LJMP    ?BANKED_LEAVE_XDATA
        CFI EndBlock cfiBlock1
//  377 }
//  378 
//  379 /***************************************************************************************************
//  380  * @fn      MT_ZdoNwkAddrReq
//  381  *
//  382  * @brief   Handle a nwk address request.
//  383  *
//  384  * @param   pData  - MT message data
//  385  *
//  386  * @return  void
//  387  ***************************************************************************************************/

        RSEG BANKED_CODE:CODE:NOROOT(0)
//  388 void MT_ZdoNWKAddressRequest(uint8 *pBuf)
MT_ZdoNWKAddressRequest:
        CFI Block cfiBlock2 Using cfiCommon0
        CFI Function MT_ZdoNWKAddressRequest
        CODE
//  389 {
        FUNCALL MT_ZdoNWKAddressRequest, ZDP_NwkAddrReq
        LOCFRAME ISTACK, 0, STACK
        LOCFRAME PSTACK, 0, STACK
        LOCFRAME XSTACK, 10, STACK
        LOCFRAME IOVERLAY, 0, STATIC
        LOCFRAME DOVERLAY, 0, STATIC
        ARGFRAME ISTACK, 0, STACK
        ARGFRAME PSTACK, 0, STACK
        ARGFRAME XSTACK, 10, STACK
        ARGFRAME IOVERLAY, 0, STATIC
        ARGFRAME DOVERLAY, 0, STATIC
        FUNCALL MT_ZdoNWKAddressRequest, MT_BuildAndSendZToolResponse
        LOCFRAME ISTACK, 0, STACK
        LOCFRAME PSTACK, 0, STACK
        LOCFRAME XSTACK, 10, STACK
        LOCFRAME IOVERLAY, 0, STATIC
        LOCFRAME DOVERLAY, 0, STATIC
        ARGFRAME ISTACK, 0, STACK
        ARGFRAME PSTACK, 0, STACK
        ARGFRAME XSTACK, 10, STACK
        ARGFRAME IOVERLAY, 0, STATIC
        ARGFRAME DOVERLAY, 0, STATIC
        MOV     A,#-0x9
        LCALL   ?BANKED_ENTER_XDATA
        CFI DPH0 load(1, XDATA, add(CFA_XSP16, literal(-1)))
        CFI DPL0 load(1, XDATA, add(CFA_XSP16, literal(-2)))
        CFI ?BRET_EXT load(1, XDATA, add(CFA_XSP16, literal(-3)))
        CFI ?RET_HIGH load(1, XDATA, add(CFA_XSP16, literal(-4)))
        CFI ?RET_LOW load(1, XDATA, add(CFA_XSP16, literal(-5)))
        CFI R7 load(1, XDATA, add(CFA_XSP16, literal(-6)))
        CFI V0 load(1, XDATA, add(CFA_XSP16, literal(-7)))
        CFI VB load(1, XDATA, add(CFA_XSP16, literal(-8)))
        CFI R6 load(1, XDATA, add(CFA_XSP16, literal(-9)))
        CFI CFA_SP SP+0
        CFI CFA_XSP16 add(XSP16, 9)
        ; Saved register size: 9
        ; Auto size: 1
        MOV     A,#-0x1
        LCALL   ?ALLOC_XSTACK8
        CFI CFA_XSP16 add(XSP16, 10)
//  390   uint8 cmdId;
//  391   uint8 retValue;
//  392   uint8 reqType;
//  393   uint8 startIndex;
//  394   uint8 *pExtAddr;
//  395 
//  396   /* parse header */
//  397   cmdId = pBuf[MT_RPC_POS_CMD1];
        MOV     DPL,R2
        MOV     DPH,R3
        INC     DPTR
        INC     DPTR
        MOVX    A,@DPTR
        MOV     ?V0 + 0,A
//  398   pBuf += MT_RPC_FRAME_HDR_SZ;
        MOV     A,R2
        ADD     A,#0x3
        MOV     R2,A
        MOV     A,R3
        ADDC    A,#0x0
        MOV     R3,A
//  399 
//  400   /* parse parameters */
//  401   pExtAddr = pBuf;
        MOV     A,R2
        MOV     R6,A
        MOV     A,R3
        MOV     R7,A
//  402   pBuf += Z_EXTADDR_LEN;
        MOV     A,R2
        ADD     A,#0x8
        MOV     R2,A
        MOV     A,R3
        ADDC    A,#0x0
        MOV     R3,A
//  403 
//  404   /* Request type */
//  405   reqType = *pBuf++;
        MOV     DPL,R2
        MOV     DPH,R3
        MOVX    A,@DPTR
        MOV     R1,A
        MOV     DPL,R2
        MOV     DPH,R3
        INC     DPTR
        MOV     R2,DPL
        MOV     R3,DPH
//  406 
//  407   /* Start index */
//  408   startIndex = *pBuf;
        MOV     DPL,R2
        MOV     DPH,R3
        MOVX    A,@DPTR
        MOV     R4,A
//  409 
//  410   retValue = (uint8)ZDP_NwkAddrReq(pExtAddr, reqType, startIndex, 0);
        ; Setup parameters for call to function ZDP_NwkAddrReq
        MOV     R5,#0x0
        MOV     A,R6
        MOV     R2,A
        MOV     A,R7
        MOV     R3,A
        LCALL   ??ZDP_NwkAddrReq?relay
        MOV     A,R1
        MOV     DPL,?XSP + 0
        MOV     DPH,?XSP + 1
        MOVX    @DPTR,A
//  411 
//  412   /* Build and send back the response */
//  413   MT_BuildAndSendZToolResponse(((uint8)MT_RPC_CMD_SRSP | (uint8)MT_RPC_SYS_ZDO), cmdId, 1, &retValue);
        ; Setup parameters for call to function MT_BuildAndSendZToolResponse
        MOV     DPL,?XSP + 0
        MOV     DPH,?XSP + 1
        MOV     R4,DPL
        MOV     R5,DPH
        MOV     R3,#0x1
        MOV     R2,?V0 + 0
        MOV     R1,#0x65
        LCALL   ??MT_BuildAndSendZToolResponse?relay
//  414 }
        MOV     A,#0x1
        LCALL   ?DEALLOC_XSTACK8
        CFI CFA_XSP16 add(XSP16, 9)
        MOV     R7,#0x1
        LJMP    ?BANKED_LEAVE_XDATA
        CFI EndBlock cfiBlock2
//  415 
//  416 /***************************************************************************************************
//  417  * @fn      MT_ZdoIEEEAddrRequest
//  418  *
//  419  * @brief   Handle a IEEE address request.
//  420  *
//  421  * @param   pData  - MT message data
//  422  *
//  423  * @return  void
//  424  ***************************************************************************************************/

        RSEG BANKED_CODE:CODE:NOROOT(0)
//  425 void MT_ZdoIEEEAddrRequest (uint8 *pBuf)
MT_ZdoIEEEAddrRequest:
        CFI Block cfiBlock3 Using cfiCommon0
        CFI Function MT_ZdoIEEEAddrRequest
        CODE
//  426 {
        FUNCALL MT_ZdoIEEEAddrRequest, ZDP_IEEEAddrReq
        LOCFRAME ISTACK, 0, STACK
        LOCFRAME PSTACK, 0, STACK
        LOCFRAME XSTACK, 10, STACK
        LOCFRAME IOVERLAY, 0, STATIC
        LOCFRAME DOVERLAY, 0, STATIC
        ARGFRAME ISTACK, 0, STACK
        ARGFRAME PSTACK, 0, STACK
        ARGFRAME XSTACK, 10, STACK
        ARGFRAME IOVERLAY, 0, STATIC
        ARGFRAME DOVERLAY, 0, STATIC
        FUNCALL MT_ZdoIEEEAddrRequest, MT_BuildAndSendZToolResponse
        LOCFRAME ISTACK, 0, STACK
        LOCFRAME PSTACK, 0, STACK
        LOCFRAME XSTACK, 10, STACK
        LOCFRAME IOVERLAY, 0, STATIC
        LOCFRAME DOVERLAY, 0, STATIC
        ARGFRAME ISTACK, 0, STACK
        ARGFRAME PSTACK, 0, STACK
        ARGFRAME XSTACK, 10, STACK
        ARGFRAME IOVERLAY, 0, STATIC
        ARGFRAME DOVERLAY, 0, STATIC
        MOV     A,#-0x9
        LCALL   ?BANKED_ENTER_XDATA
        CFI DPH0 load(1, XDATA, add(CFA_XSP16, literal(-1)))
        CFI DPL0 load(1, XDATA, add(CFA_XSP16, literal(-2)))
        CFI ?BRET_EXT load(1, XDATA, add(CFA_XSP16, literal(-3)))
        CFI ?RET_HIGH load(1, XDATA, add(CFA_XSP16, literal(-4)))
        CFI ?RET_LOW load(1, XDATA, add(CFA_XSP16, literal(-5)))
        CFI R7 load(1, XDATA, add(CFA_XSP16, literal(-6)))
        CFI V0 load(1, XDATA, add(CFA_XSP16, literal(-7)))
        CFI VB load(1, XDATA, add(CFA_XSP16, literal(-8)))
        CFI R6 load(1, XDATA, add(CFA_XSP16, literal(-9)))
        CFI CFA_SP SP+0
        CFI CFA_XSP16 add(XSP16, 9)
        ; Saved register size: 9
        ; Auto size: 1
        MOV     A,#-0x1
        LCALL   ?ALLOC_XSTACK8
        CFI CFA_XSP16 add(XSP16, 10)
//  427   uint8 cmdId;
//  428   uint8 retValue;
//  429   uint16 shortAddr;
//  430   uint8 reqType;
//  431   uint8 startIndex;
//  432 
//  433   /* parse header */
//  434   cmdId = pBuf[MT_RPC_POS_CMD1];
        MOV     DPL,R2
        MOV     DPH,R3
        INC     DPTR
        INC     DPTR
        MOVX    A,@DPTR
        MOV     ?V0 + 0,A
//  435   pBuf += MT_RPC_FRAME_HDR_SZ;
        MOV     A,R2
        ADD     A,#0x3
        MOV     R2,A
        MOV     A,R3
        ADDC    A,#0x0
        MOV     R3,A
//  436 
//  437   /* Dev address */
//  438   shortAddr = BUILD_UINT16(pBuf[0], pBuf[1]);
        MOV     DPL,R2
        MOV     DPH,R3
        MOVX    A,@DPTR
        MOV     R4,A
        MOV     R5,#0x0
        MOV     DPL,R2
        MOV     DPH,R3
        INC     DPTR
        MOVX    A,@DPTR
        MOV     R0,A
        MOV     R1,#0x0
        CLR     A
        XCH     A,R0
        MOV     R1,A
        MOV     A,R4
        ADD     A,R0
        MOV     R6,A
        MOV     A,R5
        ADDC    A,R1
        MOV     R7,A
//  439   pBuf += 2;
        MOV     A,R2
        ADD     A,#0x2
        MOV     R2,A
        MOV     A,R3
        ADDC    A,#0x0
        MOV     R3,A
//  440 
//  441   /* request type */
//  442   reqType = *pBuf++;
        MOV     DPL,R2
        MOV     DPH,R3
        MOVX    A,@DPTR
        MOV     R1,A
        MOV     DPL,R2
        MOV     DPH,R3
        INC     DPTR
        MOV     R2,DPL
        MOV     R3,DPH
//  443 
//  444   /* start index */
//  445   startIndex = *pBuf;
        MOV     DPL,R2
        MOV     DPH,R3
        MOVX    A,@DPTR
        MOV     R4,A
//  446 
//  447   retValue = (uint8)ZDP_IEEEAddrReq(shortAddr, reqType, startIndex, 0);
        ; Setup parameters for call to function ZDP_IEEEAddrReq
        MOV     R5,#0x0
        MOV     A,R6
        MOV     R2,A
        MOV     A,R7
        MOV     R3,A
        LCALL   ??ZDP_IEEEAddrReq?relay
        MOV     A,R1
        MOV     DPL,?XSP + 0
        MOV     DPH,?XSP + 1
        MOVX    @DPTR,A
//  448 
//  449   MT_BuildAndSendZToolResponse(((uint8)MT_RPC_CMD_SRSP | (uint8)MT_RPC_SYS_ZDO), cmdId, 1, &retValue);
        ; Setup parameters for call to function MT_BuildAndSendZToolResponse
        MOV     DPL,?XSP + 0
        MOV     DPH,?XSP + 1
        MOV     R4,DPL
        MOV     R5,DPH
        MOV     R3,#0x1
        MOV     R2,?V0 + 0
        MOV     R1,#0x65
        LCALL   ??MT_BuildAndSendZToolResponse?relay
//  450 }
        MOV     A,#0x1
        LCALL   ?DEALLOC_XSTACK8
        CFI CFA_XSP16 add(XSP16, 9)
        MOV     R7,#0x1
        LJMP    ?BANKED_LEAVE_XDATA
        CFI EndBlock cfiBlock3
//  451 
//  452 /***************************************************************************************************
//  453  * @fn      MT_ZdoNodeDescRequest
//  454  *
//  455  * @brief   Handle a Node Descriptor request.
//  456  *
//  457  * @param   pData  - MT message data
//  458  *
//  459  * @return  void
//  460  ***************************************************************************************************/

        RSEG BANKED_CODE:CODE:NOROOT(0)
//  461 void MT_ZdoNodeDescRequest (uint8 *pBuf)
MT_ZdoNodeDescRequest:
        CFI Block cfiBlock4 Using cfiCommon0
        CFI Function MT_ZdoNodeDescRequest
        CODE
//  462 {
        FUNCALL MT_ZdoNodeDescRequest, ZDP_NWKAddrOfInterestReq
        LOCFRAME ISTACK, 0, STACK
        LOCFRAME PSTACK, 0, STACK
        LOCFRAME XSTACK, 21, STACK
        LOCFRAME IOVERLAY, 0, STATIC
        LOCFRAME DOVERLAY, 0, STATIC
        ARGFRAME ISTACK, 0, STACK
        ARGFRAME PSTACK, 0, STACK
        ARGFRAME XSTACK, 21, STACK
        ARGFRAME IOVERLAY, 0, STATIC
        ARGFRAME DOVERLAY, 0, STATIC
        FUNCALL MT_ZdoNodeDescRequest, MT_BuildAndSendZToolResponse
        LOCFRAME ISTACK, 0, STACK
        LOCFRAME PSTACK, 0, STACK
        LOCFRAME XSTACK, 20, STACK
        LOCFRAME IOVERLAY, 0, STATIC
        LOCFRAME DOVERLAY, 0, STATIC
        ARGFRAME ISTACK, 0, STACK
        ARGFRAME PSTACK, 0, STACK
        ARGFRAME XSTACK, 20, STACK
        ARGFRAME IOVERLAY, 0, STATIC
        ARGFRAME DOVERLAY, 0, STATIC
        MOV     A,#-0xa
        LCALL   ?BANKED_ENTER_XDATA
        CFI DPH0 load(1, XDATA, add(CFA_XSP16, literal(-1)))
        CFI DPL0 load(1, XDATA, add(CFA_XSP16, literal(-2)))
        CFI ?BRET_EXT load(1, XDATA, add(CFA_XSP16, literal(-3)))
        CFI ?RET_HIGH load(1, XDATA, add(CFA_XSP16, literal(-4)))
        CFI ?RET_LOW load(1, XDATA, add(CFA_XSP16, literal(-5)))
        CFI R7 load(1, XDATA, add(CFA_XSP16, literal(-6)))
        CFI V1 load(1, XDATA, add(CFA_XSP16, literal(-7)))
        CFI V0 load(1, XDATA, add(CFA_XSP16, literal(-8)))
        CFI VB load(1, XDATA, add(CFA_XSP16, literal(-9)))
        CFI R6 load(1, XDATA, add(CFA_XSP16, literal(-10)))
        CFI CFA_SP SP+0
        CFI CFA_XSP16 add(XSP16, 10)
        ; Saved register size: 10
        ; Auto size: 10
        MOV     A,#-0xa
        LCALL   ?ALLOC_XSTACK8
        CFI CFA_XSP16 add(XSP16, 20)
        MOV     A,R2
        MOV     R6,A
        MOV     A,R3
        MOV     R7,A
//  463   uint8 cmdId;
//  464   uint8 retValue;
//  465   zAddrType_t destAddr;
//  466   uint16 shortAddr;
//  467 
//  468   /* parse header */
//  469   cmdId = pBuf[MT_RPC_POS_CMD1];
        MOV     DPL,R6
        MOV     DPH,R7
        INC     DPTR
        INC     DPTR
        MOVX    A,@DPTR
        MOV     ?V0 + 0,A
//  470   pBuf += MT_RPC_FRAME_HDR_SZ;
        MOV     A,R6
        ADD     A,#0x3
        MOV     R6,A
        MOV     A,R7
        ADDC    A,#0x0
        MOV     R7,A
//  471 
//  472   /* Destination address */
//  473   destAddr.addrMode = Addr16Bit;
        MOV     A,#0x9
        LCALL   ?XSTACK_DISP0_8
        MOV     A,#0x2
        MOVX    @DPTR,A
//  474   destAddr.addr.shortAddr = BUILD_UINT16( pBuf[0], pBuf[1] );
        MOV     DPL,R6
        MOV     DPH,R7
        MOVX    A,@DPTR
        MOV     R2,A
        MOV     R3,#0x0
        MOV     DPL,R6
        MOV     DPH,R7
        INC     DPTR
        MOVX    A,@DPTR
        MOV     R0,A
        MOV     R1,#0x0
        CLR     A
        XCH     A,R0
        MOV     R1,A
        MOV     A,R2
        ADD     A,R0
        MOV     R0,A
        MOV     A,R3
        ADDC    A,R1
        MOV     R1,A
        MOV     A,#0x1
        LCALL   ?XSTACK_DISP0_8
        MOV     A,R0
        MOVX    @DPTR,A
        INC     DPTR
        MOV     A,R1
        MOVX    @DPTR,A
//  475   pBuf += 2;
        MOV     A,R6
        ADD     A,#0x2
        MOV     R6,A
        MOV     A,R7
        ADDC    A,#0x0
        MOV     R7,A
//  476 
//  477   /* Network address of interest */
//  478   shortAddr = BUILD_UINT16( pBuf[0], pBuf[1] );
        MOV     DPL,R6
        MOV     DPH,R7
        MOVX    A,@DPTR
        MOV     R2,A
        MOV     R3,#0x0
        MOV     DPL,R6
        MOV     DPH,R7
        INC     DPTR
        MOVX    A,@DPTR
        MOV     R0,A
        MOV     R1,#0x0
        CLR     A
        XCH     A,R0
        MOV     R1,A
        MOV     A,R2
        ADD     A,R0
        MOV     R4,A
        MOV     A,R3
        ADDC    A,R1
        MOV     R5,A
//  479   pBuf += 2;
        MOV     A,R6
        ADD     A,#0x2
        MOV     R6,A
        MOV     A,R7
        ADDC    A,#0x0
        MOV     R7,A
//  480 
//  481   retValue = (uint8)ZDP_NodeDescReq( &destAddr, shortAddr, 0);
        ; Setup parameters for call to function ZDP_NWKAddrOfInterestReq
        MOV     ?V0 + 1,#0x0
        MOV     R0,#?V0 + 1
        LCALL   ?PUSH_XSTACK_I_ONE
        CFI CFA_XSP16 add(XSP16, 21)
        MOV     R1,#0x2
        MOV     A,#0x2
        LCALL   ?XSTACK_DISP0_8
        MOV     R2,DPL
        MOV     R3,DPH
        LCALL   ??ZDP_NWKAddrOfInterestReq?relay
        MOV     A,#0x1
        LCALL   ?DEALLOC_XSTACK8
        CFI CFA_XSP16 add(XSP16, 20)
        MOV     A,R1
        MOV     DPL,?XSP + 0
        MOV     DPH,?XSP + 1
        MOVX    @DPTR,A
//  482 
//  483   MT_BuildAndSendZToolResponse(((uint8)MT_RPC_CMD_SRSP | (uint8)MT_RPC_SYS_ZDO), cmdId, 1, &retValue);
        ; Setup parameters for call to function MT_BuildAndSendZToolResponse
        MOV     DPL,?XSP + 0
        MOV     DPH,?XSP + 1
        MOV     R4,DPL
        MOV     R5,DPH
        MOV     R3,#0x1
        MOV     R2,?V0 + 0
        MOV     R1,#0x65
        LCALL   ??MT_BuildAndSendZToolResponse?relay
//  484 }
        MOV     A,#0xa
        LCALL   ?DEALLOC_XSTACK8
        CFI CFA_XSP16 add(XSP16, 10)
        MOV     R7,#0x2
        LJMP    ?BANKED_LEAVE_XDATA
        CFI EndBlock cfiBlock4
//  485 
//  486 /***************************************************************************************************
//  487  * @fn      MT_ZdoPowerDescRequest
//  488  *
//  489  * @brief   Handle a Power Descriptor request.
//  490  *
//  491  * @param   pData  - MT message data
//  492  *
//  493  * @return  void
//  494  ***************************************************************************************************/

        RSEG BANKED_CODE:CODE:NOROOT(0)
//  495 void MT_ZdoPowerDescRequest(uint8 *pBuf)
MT_ZdoPowerDescRequest:
        CFI Block cfiBlock5 Using cfiCommon0
        CFI Function MT_ZdoPowerDescRequest
        CODE
//  496 {
        FUNCALL MT_ZdoPowerDescRequest, ZDP_NWKAddrOfInterestReq
        LOCFRAME ISTACK, 0, STACK
        LOCFRAME PSTACK, 0, STACK
        LOCFRAME XSTACK, 21, STACK
        LOCFRAME IOVERLAY, 0, STATIC
        LOCFRAME DOVERLAY, 0, STATIC
        ARGFRAME ISTACK, 0, STACK
        ARGFRAME PSTACK, 0, STACK
        ARGFRAME XSTACK, 21, STACK
        ARGFRAME IOVERLAY, 0, STATIC
        ARGFRAME DOVERLAY, 0, STATIC
        FUNCALL MT_ZdoPowerDescRequest, MT_BuildAndSendZToolResponse
        LOCFRAME ISTACK, 0, STACK
        LOCFRAME PSTACK, 0, STACK
        LOCFRAME XSTACK, 20, STACK
        LOCFRAME IOVERLAY, 0, STATIC
        LOCFRAME DOVERLAY, 0, STATIC
        ARGFRAME ISTACK, 0, STACK
        ARGFRAME PSTACK, 0, STACK
        ARGFRAME XSTACK, 20, STACK
        ARGFRAME IOVERLAY, 0, STATIC
        ARGFRAME DOVERLAY, 0, STATIC
        MOV     A,#-0xa
        LCALL   ?BANKED_ENTER_XDATA
        CFI DPH0 load(1, XDATA, add(CFA_XSP16, literal(-1)))
        CFI DPL0 load(1, XDATA, add(CFA_XSP16, literal(-2)))
        CFI ?BRET_EXT load(1, XDATA, add(CFA_XSP16, literal(-3)))
        CFI ?RET_HIGH load(1, XDATA, add(CFA_XSP16, literal(-4)))
        CFI ?RET_LOW load(1, XDATA, add(CFA_XSP16, literal(-5)))
        CFI R7 load(1, XDATA, add(CFA_XSP16, literal(-6)))
        CFI V1 load(1, XDATA, add(CFA_XSP16, literal(-7)))
        CFI V0 load(1, XDATA, add(CFA_XSP16, literal(-8)))
        CFI VB load(1, XDATA, add(CFA_XSP16, literal(-9)))
        CFI R6 load(1, XDATA, add(CFA_XSP16, literal(-10)))
        CFI CFA_SP SP+0
        CFI CFA_XSP16 add(XSP16, 10)
        ; Saved register size: 10
        ; Auto size: 10
        MOV     A,#-0xa
        LCALL   ?ALLOC_XSTACK8
        CFI CFA_XSP16 add(XSP16, 20)
        MOV     A,R2
        MOV     R6,A
        MOV     A,R3
        MOV     R7,A
//  497   uint8 cmdId;
//  498   uint8 retValue;
//  499   zAddrType_t destAddr;
//  500   uint16 shortAddr;
//  501 
//  502   /* parse header */
//  503   cmdId = pBuf[MT_RPC_POS_CMD1];
        MOV     DPL,R6
        MOV     DPH,R7
        INC     DPTR
        INC     DPTR
        MOVX    A,@DPTR
        MOV     ?V0 + 0,A
//  504   pBuf += MT_RPC_FRAME_HDR_SZ;
        MOV     A,R6
        ADD     A,#0x3
        MOV     R6,A
        MOV     A,R7
        ADDC    A,#0x0
        MOV     R7,A
//  505 
//  506   /* Dev address */
//  507   destAddr.addrMode = Addr16Bit;
        MOV     A,#0x9
        LCALL   ?XSTACK_DISP0_8
        MOV     A,#0x2
        MOVX    @DPTR,A
//  508   destAddr.addr.shortAddr = BUILD_UINT16( pBuf[0], pBuf[1] );
        MOV     DPL,R6
        MOV     DPH,R7
        MOVX    A,@DPTR
        MOV     R2,A
        MOV     R3,#0x0
        MOV     DPL,R6
        MOV     DPH,R7
        INC     DPTR
        MOVX    A,@DPTR
        MOV     R0,A
        MOV     R1,#0x0
        CLR     A
        XCH     A,R0
        MOV     R1,A
        MOV     A,R2
        ADD     A,R0
        MOV     R0,A
        MOV     A,R3
        ADDC    A,R1
        MOV     R1,A
        MOV     A,#0x1
        LCALL   ?XSTACK_DISP0_8
        MOV     A,R0
        MOVX    @DPTR,A
        INC     DPTR
        MOV     A,R1
        MOVX    @DPTR,A
//  509   pBuf += 2;
        MOV     A,R6
        ADD     A,#0x2
        MOV     R6,A
        MOV     A,R7
        ADDC    A,#0x0
        MOV     R7,A
//  510 
//  511   /* Network address of interest */
//  512   shortAddr = BUILD_UINT16( pBuf[0], pBuf[1] );
        MOV     DPL,R6
        MOV     DPH,R7
        MOVX    A,@DPTR
        MOV     R2,A
        MOV     R3,#0x0
        MOV     DPL,R6
        MOV     DPH,R7
        INC     DPTR
        MOVX    A,@DPTR
        MOV     R0,A
        MOV     R1,#0x0
        CLR     A
        XCH     A,R0
        MOV     R1,A
        MOV     A,R2
        ADD     A,R0
        MOV     R4,A
        MOV     A,R3
        ADDC    A,R1
        MOV     R5,A
//  513   pBuf += 2;
        MOV     A,R6
        ADD     A,#0x2
        MOV     R6,A
        MOV     A,R7
        ADDC    A,#0x0
        MOV     R7,A
//  514 
//  515   retValue = (uint8)ZDP_PowerDescReq( &destAddr, shortAddr, 0);
        ; Setup parameters for call to function ZDP_NWKAddrOfInterestReq
        MOV     ?V0 + 1,#0x0
        MOV     R0,#?V0 + 1
        LCALL   ?PUSH_XSTACK_I_ONE
        CFI CFA_XSP16 add(XSP16, 21)
        MOV     R1,#0x3
        MOV     A,#0x2
        LCALL   ?XSTACK_DISP0_8
        MOV     R2,DPL
        MOV     R3,DPH
        LCALL   ??ZDP_NWKAddrOfInterestReq?relay
        MOV     A,#0x1
        LCALL   ?DEALLOC_XSTACK8
        CFI CFA_XSP16 add(XSP16, 20)
        MOV     A,R1
        MOV     DPL,?XSP + 0
        MOV     DPH,?XSP + 1
        MOVX    @DPTR,A
//  516 
//  517   MT_BuildAndSendZToolResponse(((uint8)MT_RPC_CMD_SRSP | (uint8)MT_RPC_SYS_ZDO), cmdId, 1, &retValue);
        ; Setup parameters for call to function MT_BuildAndSendZToolResponse
        MOV     DPL,?XSP + 0
        MOV     DPH,?XSP + 1
        MOV     R4,DPL
        MOV     R5,DPH
        MOV     R3,#0x1
        MOV     R2,?V0 + 0
        MOV     R1,#0x65
        LCALL   ??MT_BuildAndSendZToolResponse?relay
//  518 }
        MOV     A,#0xa
        LCALL   ?DEALLOC_XSTACK8
        CFI CFA_XSP16 add(XSP16, 10)
        MOV     R7,#0x2
        LJMP    ?BANKED_LEAVE_XDATA
        CFI EndBlock cfiBlock5
//  519 
//  520 /***************************************************************************************************
//  521  * @fn      MT_ZdoSimpleDescRequest
//  522  *
//  523  * @brief   Handle a Simple Descriptor request.
//  524  *
//  525  * @param   pBuf  - MT message data
//  526  *
//  527  * @return  void
//  528  ***************************************************************************************************/

        RSEG BANKED_CODE:CODE:NOROOT(0)
//  529 void MT_ZdoSimpleDescRequest(uint8 *pBuf)
MT_ZdoSimpleDescRequest:
        CFI Block cfiBlock6 Using cfiCommon0
        CFI Function MT_ZdoSimpleDescRequest
        CODE
//  530 {
        FUNCALL MT_ZdoSimpleDescRequest, ZDP_SimpleDescReq
        LOCFRAME ISTACK, 0, STACK
        LOCFRAME PSTACK, 0, STACK
        LOCFRAME XSTACK, 21, STACK
        LOCFRAME IOVERLAY, 0, STATIC
        LOCFRAME DOVERLAY, 0, STATIC
        ARGFRAME ISTACK, 0, STACK
        ARGFRAME PSTACK, 0, STACK
        ARGFRAME XSTACK, 21, STACK
        ARGFRAME IOVERLAY, 0, STATIC
        ARGFRAME DOVERLAY, 0, STATIC
        FUNCALL MT_ZdoSimpleDescRequest, MT_BuildAndSendZToolResponse
        LOCFRAME ISTACK, 0, STACK
        LOCFRAME PSTACK, 0, STACK
        LOCFRAME XSTACK, 20, STACK
        LOCFRAME IOVERLAY, 0, STATIC
        LOCFRAME DOVERLAY, 0, STATIC
        ARGFRAME ISTACK, 0, STACK
        ARGFRAME PSTACK, 0, STACK
        ARGFRAME XSTACK, 20, STACK
        ARGFRAME IOVERLAY, 0, STATIC
        ARGFRAME DOVERLAY, 0, STATIC
        MOV     A,#-0xa
        LCALL   ?BANKED_ENTER_XDATA
        CFI DPH0 load(1, XDATA, add(CFA_XSP16, literal(-1)))
        CFI DPL0 load(1, XDATA, add(CFA_XSP16, literal(-2)))
        CFI ?BRET_EXT load(1, XDATA, add(CFA_XSP16, literal(-3)))
        CFI ?RET_HIGH load(1, XDATA, add(CFA_XSP16, literal(-4)))
        CFI ?RET_LOW load(1, XDATA, add(CFA_XSP16, literal(-5)))
        CFI R7 load(1, XDATA, add(CFA_XSP16, literal(-6)))
        CFI V1 load(1, XDATA, add(CFA_XSP16, literal(-7)))
        CFI V0 load(1, XDATA, add(CFA_XSP16, literal(-8)))
        CFI VB load(1, XDATA, add(CFA_XSP16, literal(-9)))
        CFI R6 load(1, XDATA, add(CFA_XSP16, literal(-10)))
        CFI CFA_SP SP+0
        CFI CFA_XSP16 add(XSP16, 10)
        ; Saved register size: 10
        ; Auto size: 10
        MOV     A,#-0xa
        LCALL   ?ALLOC_XSTACK8
        CFI CFA_XSP16 add(XSP16, 20)
        MOV     A,R2
        MOV     R6,A
        MOV     A,R3
        MOV     R7,A
//  531   uint8 cmdId;
//  532   uint8 retValue;
//  533   uint8 epInt;
//  534   zAddrType_t destAddr;
//  535   uint16 shortAddr;
//  536 
//  537   /* parse header */
//  538   cmdId = pBuf[MT_RPC_POS_CMD1];
        MOV     DPL,R6
        MOV     DPH,R7
        INC     DPTR
        INC     DPTR
        MOVX    A,@DPTR
        MOV     ?V0 + 0,A
//  539   pBuf += MT_RPC_FRAME_HDR_SZ;
        MOV     A,R6
        ADD     A,#0x3
        MOV     R6,A
        MOV     A,R7
        ADDC    A,#0x0
        MOV     R7,A
//  540 
//  541   /* Dev address */
//  542   destAddr.addrMode = Addr16Bit;
        MOV     A,#0x9
        LCALL   ?XSTACK_DISP0_8
        MOV     A,#0x2
        MOVX    @DPTR,A
//  543   destAddr.addr.shortAddr = BUILD_UINT16( pBuf[0], pBuf[1] );
        MOV     DPL,R6
        MOV     DPH,R7
        MOVX    A,@DPTR
        MOV     R2,A
        MOV     R3,#0x0
        MOV     DPL,R6
        MOV     DPH,R7
        INC     DPTR
        MOVX    A,@DPTR
        MOV     R0,A
        MOV     R1,#0x0
        CLR     A
        XCH     A,R0
        MOV     R1,A
        MOV     A,R2
        ADD     A,R0
        MOV     R0,A
        MOV     A,R3
        ADDC    A,R1
        MOV     R1,A
        MOV     A,#0x1
        LCALL   ?XSTACK_DISP0_8
        MOV     A,R0
        MOVX    @DPTR,A
        INC     DPTR
        MOV     A,R1
        MOVX    @DPTR,A
//  544   pBuf += 2;
        MOV     A,R6
        ADD     A,#0x2
        MOV     R6,A
        MOV     A,R7
        ADDC    A,#0x0
        MOV     R7,A
//  545 
//  546   /* Network address of interest */
//  547   shortAddr = BUILD_UINT16( pBuf[0], pBuf[1] );
        MOV     DPL,R6
        MOV     DPH,R7
        MOVX    A,@DPTR
        MOV     R2,A
        MOV     R3,#0x0
        MOV     DPL,R6
        MOV     DPH,R7
        INC     DPTR
        MOVX    A,@DPTR
        MOV     R0,A
        MOV     R1,#0x0
        CLR     A
        XCH     A,R0
        MOV     R1,A
        MOV     A,R2
        ADD     A,R0
        MOV     R4,A
        MOV     A,R3
        ADDC    A,R1
        MOV     R5,A
//  548   pBuf += 2;
        MOV     A,R6
        ADD     A,#0x2
        MOV     R6,A
        MOV     A,R7
        ADDC    A,#0x0
        MOV     R7,A
//  549 
//  550   /* endpoint/interface */
//  551   epInt = *pBuf++;
        MOV     DPL,R6
        MOV     DPH,R7
        MOVX    A,@DPTR
        MOV     R1,A
        MOV     DPL,R6
        MOV     DPH,R7
        INC     DPTR
        MOV     R6,DPL
        MOV     R7,DPH
//  552 
//  553   retValue = (uint8)ZDP_SimpleDescReq( &destAddr, shortAddr, epInt, 0);
        ; Setup parameters for call to function ZDP_SimpleDescReq
        MOV     ?V0 + 1,#0x0
        MOV     R0,#?V0 + 1
        LCALL   ?PUSH_XSTACK_I_ONE
        CFI CFA_XSP16 add(XSP16, 21)
        MOV     A,#0x2
        LCALL   ?XSTACK_DISP0_8
        MOV     R2,DPL
        MOV     R3,DPH
        LCALL   ??ZDP_SimpleDescReq?relay
        MOV     A,#0x1
        LCALL   ?DEALLOC_XSTACK8
        CFI CFA_XSP16 add(XSP16, 20)
        MOV     A,R1
        MOV     DPL,?XSP + 0
        MOV     DPH,?XSP + 1
        MOVX    @DPTR,A
//  554 
//  555   MT_BuildAndSendZToolResponse(((uint8)MT_RPC_CMD_SRSP | (uint8)MT_RPC_SYS_ZDO), cmdId, 1, &retValue);
        ; Setup parameters for call to function MT_BuildAndSendZToolResponse
        MOV     DPL,?XSP + 0
        MOV     DPH,?XSP + 1
        MOV     R4,DPL
        MOV     R5,DPH
        MOV     R3,#0x1
        MOV     R2,?V0 + 0
        MOV     R1,#0x65
        LCALL   ??MT_BuildAndSendZToolResponse?relay
//  556 }
        MOV     A,#0xa
        LCALL   ?DEALLOC_XSTACK8
        CFI CFA_XSP16 add(XSP16, 10)
        MOV     R7,#0x2
        LJMP    ?BANKED_LEAVE_XDATA
        CFI EndBlock cfiBlock6
//  557 
//  558 /***************************************************************************************************
//  559  * @fn      MT_ZdoActiveEpRequest
//  560  *
//  561  * @brief   Handle a Active EP request.
//  562  *
//  563  * @param   pBuf  - MT message data
//  564  *
//  565  * @return  void
//  566  ***************************************************************************************************/

        RSEG BANKED_CODE:CODE:NOROOT(0)
//  567 void MT_ZdoActiveEpRequest(uint8 *pBuf)
MT_ZdoActiveEpRequest:
        CFI Block cfiBlock7 Using cfiCommon0
        CFI Function MT_ZdoActiveEpRequest
        CODE
//  568 {
        FUNCALL MT_ZdoActiveEpRequest, ZDP_NWKAddrOfInterestReq
        LOCFRAME ISTACK, 0, STACK
        LOCFRAME PSTACK, 0, STACK
        LOCFRAME XSTACK, 21, STACK
        LOCFRAME IOVERLAY, 0, STATIC
        LOCFRAME DOVERLAY, 0, STATIC
        ARGFRAME ISTACK, 0, STACK
        ARGFRAME PSTACK, 0, STACK
        ARGFRAME XSTACK, 21, STACK
        ARGFRAME IOVERLAY, 0, STATIC
        ARGFRAME DOVERLAY, 0, STATIC
        FUNCALL MT_ZdoActiveEpRequest, MT_BuildAndSendZToolResponse
        LOCFRAME ISTACK, 0, STACK
        LOCFRAME PSTACK, 0, STACK
        LOCFRAME XSTACK, 20, STACK
        LOCFRAME IOVERLAY, 0, STATIC
        LOCFRAME DOVERLAY, 0, STATIC
        ARGFRAME ISTACK, 0, STACK
        ARGFRAME PSTACK, 0, STACK
        ARGFRAME XSTACK, 20, STACK
        ARGFRAME IOVERLAY, 0, STATIC
        ARGFRAME DOVERLAY, 0, STATIC
        MOV     A,#-0xa
        LCALL   ?BANKED_ENTER_XDATA
        CFI DPH0 load(1, XDATA, add(CFA_XSP16, literal(-1)))
        CFI DPL0 load(1, XDATA, add(CFA_XSP16, literal(-2)))
        CFI ?BRET_EXT load(1, XDATA, add(CFA_XSP16, literal(-3)))
        CFI ?RET_HIGH load(1, XDATA, add(CFA_XSP16, literal(-4)))
        CFI ?RET_LOW load(1, XDATA, add(CFA_XSP16, literal(-5)))
        CFI R7 load(1, XDATA, add(CFA_XSP16, literal(-6)))
        CFI V1 load(1, XDATA, add(CFA_XSP16, literal(-7)))
        CFI V0 load(1, XDATA, add(CFA_XSP16, literal(-8)))
        CFI VB load(1, XDATA, add(CFA_XSP16, literal(-9)))
        CFI R6 load(1, XDATA, add(CFA_XSP16, literal(-10)))
        CFI CFA_SP SP+0
        CFI CFA_XSP16 add(XSP16, 10)
        ; Saved register size: 10
        ; Auto size: 10
        MOV     A,#-0xa
        LCALL   ?ALLOC_XSTACK8
        CFI CFA_XSP16 add(XSP16, 20)
        MOV     A,R2
        MOV     R6,A
        MOV     A,R3
        MOV     R7,A
//  569   uint8 cmdId;
//  570   uint8 retValue;
//  571   zAddrType_t destAddr;
//  572   uint16 shortAddr;
//  573 
//  574   /* parse header */
//  575   cmdId = pBuf[MT_RPC_POS_CMD1];
        MOV     DPL,R6
        MOV     DPH,R7
        INC     DPTR
        INC     DPTR
        MOVX    A,@DPTR
        MOV     ?V0 + 0,A
//  576   pBuf += MT_RPC_FRAME_HDR_SZ;
        MOV     A,R6
        ADD     A,#0x3
        MOV     R6,A
        MOV     A,R7
        ADDC    A,#0x0
        MOV     R7,A
//  577 
//  578   /* Dev address */
//  579   destAddr.addrMode = Addr16Bit;
        MOV     A,#0x9
        LCALL   ?XSTACK_DISP0_8
        MOV     A,#0x2
        MOVX    @DPTR,A
//  580   destAddr.addr.shortAddr = BUILD_UINT16( pBuf[0], pBuf[1] );
        MOV     DPL,R6
        MOV     DPH,R7
        MOVX    A,@DPTR
        MOV     R2,A
        MOV     R3,#0x0
        MOV     DPL,R6
        MOV     DPH,R7
        INC     DPTR
        MOVX    A,@DPTR
        MOV     R0,A
        MOV     R1,#0x0
        CLR     A
        XCH     A,R0
        MOV     R1,A
        MOV     A,R2
        ADD     A,R0
        MOV     R0,A
        MOV     A,R3
        ADDC    A,R1
        MOV     R1,A
        MOV     A,#0x1
        LCALL   ?XSTACK_DISP0_8
        MOV     A,R0
        MOVX    @DPTR,A
        INC     DPTR
        MOV     A,R1
        MOVX    @DPTR,A
//  581   pBuf += 2;
        MOV     A,R6
        ADD     A,#0x2
        MOV     R6,A
        MOV     A,R7
        ADDC    A,#0x0
        MOV     R7,A
//  582 
//  583   /* Network address of interest */
//  584   shortAddr = BUILD_UINT16( pBuf[0], pBuf[1] );
        MOV     DPL,R6
        MOV     DPH,R7
        MOVX    A,@DPTR
        MOV     R2,A
        MOV     R3,#0x0
        MOV     DPL,R6
        MOV     DPH,R7
        INC     DPTR
        MOVX    A,@DPTR
        MOV     R0,A
        MOV     R1,#0x0
        CLR     A
        XCH     A,R0
        MOV     R1,A
        MOV     A,R2
        ADD     A,R0
        MOV     R4,A
        MOV     A,R3
        ADDC    A,R1
        MOV     R5,A
//  585   pBuf += 2;
        MOV     A,R6
        ADD     A,#0x2
        MOV     R6,A
        MOV     A,R7
        ADDC    A,#0x0
        MOV     R7,A
//  586 
//  587   retValue = (uint8)ZDP_ActiveEPReq( &destAddr, shortAddr, 0);
        ; Setup parameters for call to function ZDP_NWKAddrOfInterestReq
        MOV     ?V0 + 1,#0x0
        MOV     R0,#?V0 + 1
        LCALL   ?PUSH_XSTACK_I_ONE
        CFI CFA_XSP16 add(XSP16, 21)
        MOV     R1,#0x5
        MOV     A,#0x2
        LCALL   ?XSTACK_DISP0_8
        MOV     R2,DPL
        MOV     R3,DPH
        LCALL   ??ZDP_NWKAddrOfInterestReq?relay
        MOV     A,#0x1
        LCALL   ?DEALLOC_XSTACK8
        CFI CFA_XSP16 add(XSP16, 20)
        MOV     A,R1
        MOV     DPL,?XSP + 0
        MOV     DPH,?XSP + 1
        MOVX    @DPTR,A
//  588 
//  589   MT_BuildAndSendZToolResponse(((uint8)MT_RPC_CMD_SRSP | (uint8)MT_RPC_SYS_ZDO), cmdId, 1, &retValue);
        ; Setup parameters for call to function MT_BuildAndSendZToolResponse
        MOV     DPL,?XSP + 0
        MOV     DPH,?XSP + 1
        MOV     R4,DPL
        MOV     R5,DPH
        MOV     R3,#0x1
        MOV     R2,?V0 + 0
        MOV     R1,#0x65
        LCALL   ??MT_BuildAndSendZToolResponse?relay
//  590 }
        MOV     A,#0xa
        LCALL   ?DEALLOC_XSTACK8
        CFI CFA_XSP16 add(XSP16, 10)
        MOV     R7,#0x2
        LJMP    ?BANKED_LEAVE_XDATA
        CFI EndBlock cfiBlock7
//  591 
//  592 /***************************************************************************************************
//  593  * @fn      MT_ZdoMatchDescRequest
//  594  *
//  595  * @brief   Handle a Match Descriptor request.
//  596  *
//  597  * @param   pBuf  - MT message data
//  598  *
//  599  * @return  void
//  600  ***************************************************************************************************/

        RSEG BANKED_CODE:CODE:NOROOT(0)
//  601 void MT_ZdoMatchDescRequest(uint8 *pBuf)
MT_ZdoMatchDescRequest:
        CFI Block cfiBlock8 Using cfiCommon0
        CFI Function MT_ZdoMatchDescRequest
        CODE
//  602 {
        FUNCALL MT_ZdoMatchDescRequest, ZDP_MatchDescReq
        LOCFRAME ISTACK, 0, STACK
        LOCFRAME PSTACK, 0, STACK
        LOCFRAME XSTACK, 97, STACK
        LOCFRAME IOVERLAY, 0, STATIC
        LOCFRAME DOVERLAY, 0, STATIC
        ARGFRAME ISTACK, 0, STACK
        ARGFRAME PSTACK, 0, STACK
        ARGFRAME XSTACK, 97, STACK
        ARGFRAME IOVERLAY, 0, STATIC
        ARGFRAME DOVERLAY, 0, STATIC
        FUNCALL MT_ZdoMatchDescRequest, MT_BuildAndSendZToolResponse
        LOCFRAME ISTACK, 0, STACK
        LOCFRAME PSTACK, 0, STACK
        LOCFRAME XSTACK, 89, STACK
        LOCFRAME IOVERLAY, 0, STATIC
        LOCFRAME DOVERLAY, 0, STATIC
        ARGFRAME ISTACK, 0, STACK
        ARGFRAME PSTACK, 0, STACK
        ARGFRAME XSTACK, 89, STACK
        ARGFRAME IOVERLAY, 0, STATIC
        ARGFRAME DOVERLAY, 0, STATIC
        MOV     A,#-0xf
        LCALL   ?BANKED_ENTER_XDATA
        CFI DPH0 load(1, XDATA, add(CFA_XSP16, literal(-1)))
        CFI DPL0 load(1, XDATA, add(CFA_XSP16, literal(-2)))
        CFI ?BRET_EXT load(1, XDATA, add(CFA_XSP16, literal(-3)))
        CFI ?RET_HIGH load(1, XDATA, add(CFA_XSP16, literal(-4)))
        CFI ?RET_LOW load(1, XDATA, add(CFA_XSP16, literal(-5)))
        CFI R7 load(1, XDATA, add(CFA_XSP16, literal(-6)))
        CFI V6 load(1, XDATA, add(CFA_XSP16, literal(-7)))
        CFI V5 load(1, XDATA, add(CFA_XSP16, literal(-8)))
        CFI V4 load(1, XDATA, add(CFA_XSP16, literal(-9)))
        CFI V3 load(1, XDATA, add(CFA_XSP16, literal(-10)))
        CFI V2 load(1, XDATA, add(CFA_XSP16, literal(-11)))
        CFI V1 load(1, XDATA, add(CFA_XSP16, literal(-12)))
        CFI V0 load(1, XDATA, add(CFA_XSP16, literal(-13)))
        CFI VB load(1, XDATA, add(CFA_XSP16, literal(-14)))
        CFI R6 load(1, XDATA, add(CFA_XSP16, literal(-15)))
        CFI CFA_SP SP+0
        CFI CFA_XSP16 add(XSP16, 15)
        ; Saved register size: 15
        ; Auto size: 74
        MOV     A,#-0x4a
        LCALL   ?ALLOC_XSTACK8
        CFI CFA_XSP16 add(XSP16, 89)
//  603   uint8 cmdId;
//  604   uint8 retValue = 0;
        MOV     DPL,?XSP + 0
        MOV     DPH,?XSP + 1
        MOV     A,#0x0
        MOVX    @DPTR,A
//  605   uint8 i, numInClusters, numOutClusters;
//  606   uint16 profileId;
//  607   zAddrType_t destAddr;
//  608   uint16 shortAddr;
//  609   uint16 inClusters[MTZDO_MAX_MATCH_CLUSTERS], outClusters[MTZDO_MAX_MATCH_CLUSTERS];
//  610 
//  611   /* parse header */
//  612   cmdId = pBuf[MT_RPC_POS_CMD1];
        MOV     DPL,R2
        MOV     DPH,R3
        INC     DPTR
        INC     DPTR
        MOVX    A,@DPTR
        MOV     R6,A
//  613   pBuf += MT_RPC_FRAME_HDR_SZ;
        MOV     A,R2
        ADD     A,#0x3
        MOV     R2,A
        MOV     A,R3
        ADDC    A,#0x0
        MOV     R3,A
//  614 
//  615   /* Dev address */
//  616   destAddr.addrMode = Addr16Bit;
        MOV     A,#0x9
        LCALL   ?XSTACK_DISP0_8
        MOV     A,#0x2
        MOVX    @DPTR,A
//  617   destAddr.addr.shortAddr = BUILD_UINT16( pBuf[0], pBuf[1] );
        MOV     DPL,R2
        MOV     DPH,R3
        MOVX    A,@DPTR
        MOV     R4,A
        MOV     R5,#0x0
        MOV     DPL,R2
        MOV     DPH,R3
        INC     DPTR
        MOVX    A,@DPTR
        MOV     R0,A
        MOV     R1,#0x0
        CLR     A
        XCH     A,R0
        MOV     R1,A
        MOV     A,R4
        ADD     A,R0
        MOV     R0,A
        MOV     A,R5
        ADDC    A,R1
        MOV     R1,A
        MOV     A,#0x1
        LCALL   ?XSTACK_DISP0_8
        MOV     A,R0
        MOVX    @DPTR,A
        INC     DPTR
        MOV     A,R1
        MOVX    @DPTR,A
//  618   pBuf += 2;
        MOV     A,R2
        ADD     A,#0x2
        MOV     R2,A
        MOV     A,R3
        ADDC    A,#0x0
        MOV     R3,A
//  619 
//  620   /* Network address of interest */
//  621   shortAddr = BUILD_UINT16( pBuf[0], pBuf[1] );
        MOV     DPL,R2
        MOV     DPH,R3
        MOVX    A,@DPTR
        MOV     R4,A
        MOV     R5,#0x0
        MOV     DPL,R2
        MOV     DPH,R3
        INC     DPTR
        MOVX    A,@DPTR
        MOV     R0,A
        MOV     R1,#0x0
        CLR     A
        XCH     A,R0
        MOV     R1,A
        MOV     A,R4
        ADD     A,R0
        MOV     R4,A
        MOV     A,R5
        ADDC    A,R1
        MOV     R5,A
//  622   pBuf += 2;
        MOV     A,R2
        ADD     A,#0x2
        MOV     R2,A
        MOV     A,R3
        ADDC    A,#0x0
        MOV     R3,A
//  623 
//  624   /* Profile ID */
//  625   profileId = BUILD_UINT16( pBuf[0], pBuf[1] );
        MOV     DPL,R2
        MOV     DPH,R3
        MOVX    A,@DPTR
        MOV     ?V0 + 0,A
        MOV     ?V0 + 1,#0x0
        MOV     DPL,R2
        MOV     DPH,R3
        INC     DPTR
        MOVX    A,@DPTR
        MOV     R0,A
        MOV     R1,#0x0
        CLR     A
        XCH     A,R0
        MOV     R1,A
        MOV     A,?V0 + 0
        ADD     A,R0
        MOV     ?V0 + 0,A
        MOV     A,?V0 + 1
        ADDC    A,R1
        MOV     ?V0 + 1,A
//  626   pBuf += 2;
        MOV     A,R2
        ADD     A,#0x2
        MOV     R2,A
        MOV     A,R3
        ADDC    A,#0x0
        MOV     R3,A
//  627 
//  628   /* NumInClusters */
//  629   numInClusters = *pBuf++;
        MOV     DPL,R2
        MOV     DPH,R3
        MOVX    A,@DPTR
        MOV     R7,A
        MOV     DPL,R2
        MOV     DPH,R3
        INC     DPTR
        MOV     R2,DPL
        MOV     R3,DPH
//  630   if ( numInClusters <= MTZDO_MAX_MATCH_CLUSTERS )
        MOV     A,R7
        CLR     C
        SUBB    A,#0x11
        JNC     ??MT_ZdoMatchDescRequest_0
//  631   {
//  632     /* IN clusters */
//  633     for ( i = 0; i < numInClusters; i++ )
        MOV     ?V0 + 2,#0x0
??MT_ZdoMatchDescRequest_1:
        MOV     A,?V0 + 2
        CLR     C
        SUBB    A,R7
        JNC     ??MT_ZdoMatchDescRequest_2
//  634     {
//  635       inClusters[i] = BUILD_UINT16( pBuf[0], pBuf[1]);
        MOV     DPL,R2
        MOV     DPH,R3
        MOVX    A,@DPTR
        MOV     ?V0 + 4,A
        MOV     ?V0 + 5,#0x0
        MOV     DPL,R2
        MOV     DPH,R3
        INC     DPTR
        MOVX    A,@DPTR
        MOV     R0,A
        MOV     R1,#0x0
        CLR     A
        XCH     A,R0
        MOV     R1,A
        MOV     A,?V0 + 4
        ADD     A,R0
        MOV     ?V0 + 4,A
        MOV     A,?V0 + 5
        ADDC    A,R1
        MOV     ?V0 + 5,A
        MOV     A,?V0 + 2
        MOV     R0,?V0 + 2
        MOV     R1,#0x0
        MOV     A,R0
        MOV     B,#0x2
        MUL     AB
        XCH     A,R0
        MOV     ?V0 + 3,B
        MOV     B,#0x0
        MUL     AB
        ADD     A,?V0 + 3
        MOV     ?V0 + 3,A
        MOV     B,#0x2
        MOV     A,R1
        MUL     AB
        ADD     A,?V0 + 3
        MOV     R1,A
        MOV     A,#0x2a
        LCALL   ?XSTACK_DISP0_8
        MOV     A,DPL
        ADD     A,R0
        MOV     DPL,A
        MOV     A,DPH
        ADDC    A,R1
        MOV     DPH,A
        MOV     A,?V0 + 4
        MOVX    @DPTR,A
        INC     DPTR
        MOV     A,?V0 + 5
        MOVX    @DPTR,A
//  636       pBuf += 2;
        MOV     A,R2
        ADD     A,#0x2
        MOV     R2,A
        MOV     A,R3
        ADDC    A,#0x0
        MOV     R3,A
//  637     }
        INC     ?V0 + 2
        SJMP    ??MT_ZdoMatchDescRequest_1
//  638   }
//  639   else
//  640   {
//  641     retValue = ZDP_INVALID_REQTYPE;
??MT_ZdoMatchDescRequest_0:
        MOV     DPL,?XSP + 0
        MOV     DPH,?XSP + 1
        MOV     A,#-0x80
        MOVX    @DPTR,A
//  642   }
//  643 
//  644   /* NumOutClusters */
//  645   numOutClusters = *pBuf++;
??MT_ZdoMatchDescRequest_2:
        MOV     DPL,R2
        MOV     DPH,R3
        MOVX    A,@DPTR
        MOV     ?V0 + 6,A
        MOV     DPL,R2
        MOV     DPH,R3
        INC     DPTR
        MOV     R2,DPL
        MOV     R3,DPH
//  646   if ( numOutClusters <= MTZDO_MAX_MATCH_CLUSTERS )
        MOV     A,?V0 + 6
        CLR     C
        SUBB    A,#0x11
        JNC     ??MT_ZdoMatchDescRequest_3
//  647   {
//  648     /* OUT Clusters */
//  649     for ( i = 0; i < numOutClusters; i++ )
        MOV     ?V0 + 2,#0x0
??MT_ZdoMatchDescRequest_4:
        MOV     A,?V0 + 2
        CLR     C
        SUBB    A,?V0 + 6
        JNC     ??MT_ZdoMatchDescRequest_5
//  650     {
//  651       outClusters[i] = BUILD_UINT16( pBuf[0], pBuf[1]);
        MOV     DPL,R2
        MOV     DPH,R3
        MOVX    A,@DPTR
        MOV     ?V0 + 4,A
        MOV     ?V0 + 5,#0x0
        MOV     DPL,R2
        MOV     DPH,R3
        INC     DPTR
        MOVX    A,@DPTR
        MOV     R0,A
        MOV     R1,#0x0
        CLR     A
        XCH     A,R0
        MOV     R1,A
        MOV     A,?V0 + 4
        ADD     A,R0
        MOV     ?V0 + 4,A
        MOV     A,?V0 + 5
        ADDC    A,R1
        MOV     ?V0 + 5,A
        MOV     A,?V0 + 2
        MOV     R0,?V0 + 2
        MOV     R1,#0x0
        MOV     A,R0
        MOV     B,#0x2
        MUL     AB
        XCH     A,R0
        MOV     ?V0 + 3,B
        MOV     B,#0x0
        MUL     AB
        ADD     A,?V0 + 3
        MOV     ?V0 + 3,A
        MOV     B,#0x2
        MOV     A,R1
        MUL     AB
        ADD     A,?V0 + 3
        MOV     R1,A
        MOV     A,#0xa
        LCALL   ?XSTACK_DISP0_8
        MOV     A,DPL
        ADD     A,R0
        MOV     DPL,A
        MOV     A,DPH
        ADDC    A,R1
        MOV     DPH,A
        MOV     A,?V0 + 4
        MOVX    @DPTR,A
        INC     DPTR
        MOV     A,?V0 + 5
        MOVX    @DPTR,A
//  652       pBuf += 2;
        MOV     A,R2
        ADD     A,#0x2
        MOV     R2,A
        MOV     A,R3
        ADDC    A,#0x0
        MOV     R3,A
//  653     }
        INC     ?V0 + 2
        SJMP    ??MT_ZdoMatchDescRequest_4
//  654   }
//  655   else
//  656   {
//  657     retValue = ZDP_INVALID_REQTYPE;
??MT_ZdoMatchDescRequest_3:
        MOV     DPL,?XSP + 0
        MOV     DPH,?XSP + 1
        MOV     A,#-0x80
        MOVX    @DPTR,A
//  658   }
//  659 
//  660   if ( retValue == 0 )
??MT_ZdoMatchDescRequest_5:
        MOV     DPL,?XSP + 0
        MOV     DPH,?XSP + 1
        MOVX    A,@DPTR
        JNZ     ??MT_ZdoMatchDescRequest_6
//  661   {
//  662     retValue = (uint8)ZDP_MatchDescReq( &destAddr, shortAddr, profileId, numInClusters,
//  663                                        inClusters, numOutClusters, outClusters, 0);
        ; Setup parameters for call to function ZDP_MatchDescReq
        MOV     ?V0 + 2,#0x0
        MOV     R0,#?V0 + 2
        LCALL   ?PUSH_XSTACK_I_ONE
        CFI CFA_XSP16 add(XSP16, 90)
        MOV     A,#0xb
        LCALL   ?XSTACK_DISP0_8
        MOV     ?V0 + 2,DPL
        MOV     ?V0 + 3,DPH
        MOV     R0,#?V0 + 2
        LCALL   ?PUSH_XSTACK_I_TWO
        CFI CFA_XSP16 add(XSP16, 92)
        MOV     A,?V0 + 6
        MOV     ?V0 + 2,A
        MOV     R0,#?V0 + 2
        LCALL   ?PUSH_XSTACK_I_ONE
        CFI CFA_XSP16 add(XSP16, 93)
        MOV     A,#0x2e
        LCALL   ?XSTACK_DISP0_8
        MOV     ?V0 + 2,DPL
        MOV     ?V0 + 3,DPH
        MOV     R0,#?V0 + 2
        LCALL   ?PUSH_XSTACK_I_TWO
        CFI CFA_XSP16 add(XSP16, 95)
        MOV     R0,#?V0 + 0
        LCALL   ?PUSH_XSTACK_I_TWO
        CFI CFA_XSP16 add(XSP16, 97)
        MOV     A,R7
        MOV     R1,A
        MOV     A,#0x9
        LCALL   ?XSTACK_DISP0_8
        MOV     R2,DPL
        MOV     R3,DPH
        LCALL   ??ZDP_MatchDescReq?relay
        MOV     A,#0x8
        LCALL   ?DEALLOC_XSTACK8
        CFI CFA_XSP16 add(XSP16, 89)
        MOV     A,R1
        MOV     DPL,?XSP + 0
        MOV     DPH,?XSP + 1
        MOVX    @DPTR,A
//  664   }
//  665 
//  666   MT_BuildAndSendZToolResponse(((uint8)MT_RPC_CMD_SRSP | (uint8)MT_RPC_SYS_ZDO), cmdId, 1, &retValue);
??MT_ZdoMatchDescRequest_6:
        ; Setup parameters for call to function MT_BuildAndSendZToolResponse
        MOV     DPL,?XSP + 0
        MOV     DPH,?XSP + 1
        MOV     R4,DPL
        MOV     R5,DPH
        MOV     R3,#0x1
        MOV     A,R6
        MOV     R2,A
        MOV     R1,#0x65
        LCALL   ??MT_BuildAndSendZToolResponse?relay
//  667 }
        MOV     A,#0x4a
        LCALL   ?DEALLOC_XSTACK8
        CFI CFA_XSP16 add(XSP16, 15)
        MOV     R7,#0x7
        LJMP    ?BANKED_LEAVE_XDATA
        CFI EndBlock cfiBlock8
//  668 
//  669 /***************************************************************************************************
//  670  * @fn      MT_ZdoComplexDescRequest
//  671  *
//  672  * @brief   Handle a Complex Descriptor request.
//  673  *
//  674  * @param   pBuf  - MT message data
//  675  *
//  676  * @return  void
//  677  ***************************************************************************************************/

        RSEG BANKED_CODE:CODE:NOROOT(0)
//  678 void MT_ZdoComplexDescRequest(uint8 *pBuf)
MT_ZdoComplexDescRequest:
        CFI Block cfiBlock9 Using cfiCommon0
        CFI Function MT_ZdoComplexDescRequest
        CODE
//  679 {
        FUNCALL MT_ZdoComplexDescRequest, ZDP_NWKAddrOfInterestReq
        LOCFRAME ISTACK, 0, STACK
        LOCFRAME PSTACK, 0, STACK
        LOCFRAME XSTACK, 21, STACK
        LOCFRAME IOVERLAY, 0, STATIC
        LOCFRAME DOVERLAY, 0, STATIC
        ARGFRAME ISTACK, 0, STACK
        ARGFRAME PSTACK, 0, STACK
        ARGFRAME XSTACK, 21, STACK
        ARGFRAME IOVERLAY, 0, STATIC
        ARGFRAME DOVERLAY, 0, STATIC
        FUNCALL MT_ZdoComplexDescRequest, MT_BuildAndSendZToolResponse
        LOCFRAME ISTACK, 0, STACK
        LOCFRAME PSTACK, 0, STACK
        LOCFRAME XSTACK, 20, STACK
        LOCFRAME IOVERLAY, 0, STATIC
        LOCFRAME DOVERLAY, 0, STATIC
        ARGFRAME ISTACK, 0, STACK
        ARGFRAME PSTACK, 0, STACK
        ARGFRAME XSTACK, 20, STACK
        ARGFRAME IOVERLAY, 0, STATIC
        ARGFRAME DOVERLAY, 0, STATIC
        MOV     A,#-0xa
        LCALL   ?BANKED_ENTER_XDATA
        CFI DPH0 load(1, XDATA, add(CFA_XSP16, literal(-1)))
        CFI DPL0 load(1, XDATA, add(CFA_XSP16, literal(-2)))
        CFI ?BRET_EXT load(1, XDATA, add(CFA_XSP16, literal(-3)))
        CFI ?RET_HIGH load(1, XDATA, add(CFA_XSP16, literal(-4)))
        CFI ?RET_LOW load(1, XDATA, add(CFA_XSP16, literal(-5)))
        CFI R7 load(1, XDATA, add(CFA_XSP16, literal(-6)))
        CFI V1 load(1, XDATA, add(CFA_XSP16, literal(-7)))
        CFI V0 load(1, XDATA, add(CFA_XSP16, literal(-8)))
        CFI VB load(1, XDATA, add(CFA_XSP16, literal(-9)))
        CFI R6 load(1, XDATA, add(CFA_XSP16, literal(-10)))
        CFI CFA_SP SP+0
        CFI CFA_XSP16 add(XSP16, 10)
        ; Saved register size: 10
        ; Auto size: 10
        MOV     A,#-0xa
        LCALL   ?ALLOC_XSTACK8
        CFI CFA_XSP16 add(XSP16, 20)
        MOV     A,R2
        MOV     R6,A
        MOV     A,R3
        MOV     R7,A
//  680   uint8 cmdId;
//  681   uint8 retValue;
//  682   zAddrType_t destAddr;
//  683   uint16 shortAddr;
//  684 
//  685   /* parse header */
//  686   cmdId = pBuf[MT_RPC_POS_CMD1];
        MOV     DPL,R6
        MOV     DPH,R7
        INC     DPTR
        INC     DPTR
        MOVX    A,@DPTR
        MOV     ?V0 + 0,A
//  687   pBuf += MT_RPC_FRAME_HDR_SZ;
        MOV     A,R6
        ADD     A,#0x3
        MOV     R6,A
        MOV     A,R7
        ADDC    A,#0x0
        MOV     R7,A
//  688 
//  689   /* Dev address */
//  690   destAddr.addrMode = Addr16Bit;
        MOV     A,#0x9
        LCALL   ?XSTACK_DISP0_8
        MOV     A,#0x2
        MOVX    @DPTR,A
//  691   destAddr.addr.shortAddr = BUILD_UINT16( pBuf[0], pBuf[1] );
        MOV     DPL,R6
        MOV     DPH,R7
        MOVX    A,@DPTR
        MOV     R2,A
        MOV     R3,#0x0
        MOV     DPL,R6
        MOV     DPH,R7
        INC     DPTR
        MOVX    A,@DPTR
        MOV     R0,A
        MOV     R1,#0x0
        CLR     A
        XCH     A,R0
        MOV     R1,A
        MOV     A,R2
        ADD     A,R0
        MOV     R0,A
        MOV     A,R3
        ADDC    A,R1
        MOV     R1,A
        MOV     A,#0x1
        LCALL   ?XSTACK_DISP0_8
        MOV     A,R0
        MOVX    @DPTR,A
        INC     DPTR
        MOV     A,R1
        MOVX    @DPTR,A
//  692   pBuf += 2;
        MOV     A,R6
        ADD     A,#0x2
        MOV     R6,A
        MOV     A,R7
        ADDC    A,#0x0
        MOV     R7,A
//  693 
//  694   /* Network address of interest */
//  695   shortAddr = BUILD_UINT16( pBuf[0], pBuf[1] );
        MOV     DPL,R6
        MOV     DPH,R7
        MOVX    A,@DPTR
        MOV     R2,A
        MOV     R3,#0x0
        MOV     DPL,R6
        MOV     DPH,R7
        INC     DPTR
        MOVX    A,@DPTR
        MOV     R0,A
        MOV     R1,#0x0
        CLR     A
        XCH     A,R0
        MOV     R1,A
        MOV     A,R2
        ADD     A,R0
        MOV     R4,A
        MOV     A,R3
        ADDC    A,R1
        MOV     R5,A
//  696   pBuf += 2;
        MOV     A,R6
        ADD     A,#0x2
        MOV     R6,A
        MOV     A,R7
        ADDC    A,#0x0
        MOV     R7,A
//  697 
//  698   retValue = (uint8)ZDP_ComplexDescReq( &destAddr, shortAddr, 0);
        ; Setup parameters for call to function ZDP_NWKAddrOfInterestReq
        MOV     ?V0 + 1,#0x0
        MOV     R0,#?V0 + 1
        LCALL   ?PUSH_XSTACK_I_ONE
        CFI CFA_XSP16 add(XSP16, 21)
        MOV     R1,#0x10
        MOV     A,#0x2
        LCALL   ?XSTACK_DISP0_8
        MOV     R2,DPL
        MOV     R3,DPH
        LCALL   ??ZDP_NWKAddrOfInterestReq?relay
        MOV     A,#0x1
        LCALL   ?DEALLOC_XSTACK8
        CFI CFA_XSP16 add(XSP16, 20)
        MOV     A,R1
        MOV     DPL,?XSP + 0
        MOV     DPH,?XSP + 1
        MOVX    @DPTR,A
//  699 
//  700   MT_BuildAndSendZToolResponse(((uint8)MT_RPC_CMD_SRSP | (uint8)MT_RPC_SYS_ZDO), cmdId, 1, &retValue);
        ; Setup parameters for call to function MT_BuildAndSendZToolResponse
        MOV     DPL,?XSP + 0
        MOV     DPH,?XSP + 1
        MOV     R4,DPL
        MOV     R5,DPH
        MOV     R3,#0x1
        MOV     R2,?V0 + 0
        MOV     R1,#0x65
        LCALL   ??MT_BuildAndSendZToolResponse?relay
//  701 }
        MOV     A,#0xa
        LCALL   ?DEALLOC_XSTACK8
        CFI CFA_XSP16 add(XSP16, 10)
        MOV     R7,#0x2
        LJMP    ?BANKED_LEAVE_XDATA
        CFI EndBlock cfiBlock9
//  702 
//  703 /***************************************************************************************************
//  704  * @fn      MT_ZdoUserDescRequest
//  705  *
//  706  * @brief   Handle a User Descriptor request.
//  707  *
//  708  * @param   pBuf  - MT message data
//  709  *
//  710  * @return  void
//  711  ***************************************************************************************************/

        RSEG BANKED_CODE:CODE:NOROOT(0)
//  712 void MT_ZdoUserDescRequest(uint8 *pBuf)
MT_ZdoUserDescRequest:
        CFI Block cfiBlock10 Using cfiCommon0
        CFI Function MT_ZdoUserDescRequest
        CODE
//  713 {
        FUNCALL MT_ZdoUserDescRequest, ZDP_NWKAddrOfInterestReq
        LOCFRAME ISTACK, 0, STACK
        LOCFRAME PSTACK, 0, STACK
        LOCFRAME XSTACK, 21, STACK
        LOCFRAME IOVERLAY, 0, STATIC
        LOCFRAME DOVERLAY, 0, STATIC
        ARGFRAME ISTACK, 0, STACK
        ARGFRAME PSTACK, 0, STACK
        ARGFRAME XSTACK, 21, STACK
        ARGFRAME IOVERLAY, 0, STATIC
        ARGFRAME DOVERLAY, 0, STATIC
        FUNCALL MT_ZdoUserDescRequest, MT_BuildAndSendZToolResponse
        LOCFRAME ISTACK, 0, STACK
        LOCFRAME PSTACK, 0, STACK
        LOCFRAME XSTACK, 20, STACK
        LOCFRAME IOVERLAY, 0, STATIC
        LOCFRAME DOVERLAY, 0, STATIC
        ARGFRAME ISTACK, 0, STACK
        ARGFRAME PSTACK, 0, STACK
        ARGFRAME XSTACK, 20, STACK
        ARGFRAME IOVERLAY, 0, STATIC
        ARGFRAME DOVERLAY, 0, STATIC
        MOV     A,#-0xa
        LCALL   ?BANKED_ENTER_XDATA
        CFI DPH0 load(1, XDATA, add(CFA_XSP16, literal(-1)))
        CFI DPL0 load(1, XDATA, add(CFA_XSP16, literal(-2)))
        CFI ?BRET_EXT load(1, XDATA, add(CFA_XSP16, literal(-3)))
        CFI ?RET_HIGH load(1, XDATA, add(CFA_XSP16, literal(-4)))
        CFI ?RET_LOW load(1, XDATA, add(CFA_XSP16, literal(-5)))
        CFI R7 load(1, XDATA, add(CFA_XSP16, literal(-6)))
        CFI V1 load(1, XDATA, add(CFA_XSP16, literal(-7)))
        CFI V0 load(1, XDATA, add(CFA_XSP16, literal(-8)))
        CFI VB load(1, XDATA, add(CFA_XSP16, literal(-9)))
        CFI R6 load(1, XDATA, add(CFA_XSP16, literal(-10)))
        CFI CFA_SP SP+0
        CFI CFA_XSP16 add(XSP16, 10)
        ; Saved register size: 10
        ; Auto size: 10
        MOV     A,#-0xa
        LCALL   ?ALLOC_XSTACK8
        CFI CFA_XSP16 add(XSP16, 20)
        MOV     A,R2
        MOV     R6,A
        MOV     A,R3
        MOV     R7,A
//  714   uint8 cmdId;
//  715   uint8 retValue;
//  716   zAddrType_t destAddr;
//  717   uint16 shortAddr;
//  718 
//  719   /* parse header */
//  720   cmdId = pBuf[MT_RPC_POS_CMD1];
        MOV     DPL,R6
        MOV     DPH,R7
        INC     DPTR
        INC     DPTR
        MOVX    A,@DPTR
        MOV     ?V0 + 0,A
//  721   pBuf += MT_RPC_FRAME_HDR_SZ;
        MOV     A,R6
        ADD     A,#0x3
        MOV     R6,A
        MOV     A,R7
        ADDC    A,#0x0
        MOV     R7,A
//  722 
//  723   /* Dev address */
//  724   destAddr.addrMode = Addr16Bit;
        MOV     A,#0x9
        LCALL   ?XSTACK_DISP0_8
        MOV     A,#0x2
        MOVX    @DPTR,A
//  725   destAddr.addr.shortAddr = BUILD_UINT16( pBuf[0], pBuf[1]);
        MOV     DPL,R6
        MOV     DPH,R7
        MOVX    A,@DPTR
        MOV     R2,A
        MOV     R3,#0x0
        MOV     DPL,R6
        MOV     DPH,R7
        INC     DPTR
        MOVX    A,@DPTR
        MOV     R0,A
        MOV     R1,#0x0
        CLR     A
        XCH     A,R0
        MOV     R1,A
        MOV     A,R2
        ADD     A,R0
        MOV     R0,A
        MOV     A,R3
        ADDC    A,R1
        MOV     R1,A
        MOV     A,#0x1
        LCALL   ?XSTACK_DISP0_8
        MOV     A,R0
        MOVX    @DPTR,A
        INC     DPTR
        MOV     A,R1
        MOVX    @DPTR,A
//  726   pBuf += 2;
        MOV     A,R6
        ADD     A,#0x2
        MOV     R6,A
        MOV     A,R7
        ADDC    A,#0x0
        MOV     R7,A
//  727 
//  728   /* Network address of interest */
//  729   shortAddr = BUILD_UINT16( pBuf[0], pBuf[1]);
        MOV     DPL,R6
        MOV     DPH,R7
        MOVX    A,@DPTR
        MOV     R2,A
        MOV     R3,#0x0
        MOV     DPL,R6
        MOV     DPH,R7
        INC     DPTR
        MOVX    A,@DPTR
        MOV     R0,A
        MOV     R1,#0x0
        CLR     A
        XCH     A,R0
        MOV     R1,A
        MOV     A,R2
        ADD     A,R0
        MOV     R4,A
        MOV     A,R3
        ADDC    A,R1
        MOV     R5,A
//  730   pBuf += 2;
        MOV     A,R6
        ADD     A,#0x2
        MOV     R6,A
        MOV     A,R7
        ADDC    A,#0x0
        MOV     R7,A
//  731 
//  732   retValue = (uint8)ZDP_UserDescReq( &destAddr, shortAddr, 0);
        ; Setup parameters for call to function ZDP_NWKAddrOfInterestReq
        MOV     ?V0 + 1,#0x0
        MOV     R0,#?V0 + 1
        LCALL   ?PUSH_XSTACK_I_ONE
        CFI CFA_XSP16 add(XSP16, 21)
        MOV     R1,#0x11
        MOV     A,#0x2
        LCALL   ?XSTACK_DISP0_8
        MOV     R2,DPL
        MOV     R3,DPH
        LCALL   ??ZDP_NWKAddrOfInterestReq?relay
        MOV     A,#0x1
        LCALL   ?DEALLOC_XSTACK8
        CFI CFA_XSP16 add(XSP16, 20)
        MOV     A,R1
        MOV     DPL,?XSP + 0
        MOV     DPH,?XSP + 1
        MOVX    @DPTR,A
//  733 
//  734   MT_BuildAndSendZToolResponse(((uint8)MT_RPC_CMD_SRSP | (uint8)MT_RPC_SYS_ZDO), cmdId, 1, &retValue);
        ; Setup parameters for call to function MT_BuildAndSendZToolResponse
        MOV     DPL,?XSP + 0
        MOV     DPH,?XSP + 1
        MOV     R4,DPL
        MOV     R5,DPH
        MOV     R3,#0x1
        MOV     R2,?V0 + 0
        MOV     R1,#0x65
        LCALL   ??MT_BuildAndSendZToolResponse?relay
//  735 }
        MOV     A,#0xa
        LCALL   ?DEALLOC_XSTACK8
        CFI CFA_XSP16 add(XSP16, 10)
        MOV     R7,#0x2
        LJMP    ?BANKED_LEAVE_XDATA
        CFI EndBlock cfiBlock10
//  736 
//  737 /***************************************************************************************************
//  738  * @fn      MT_ZdoEndDevAnnce
//  739  *
//  740  * @brief   Handle a End Device Announce Descriptor request.
//  741  *
//  742  * @param   pBuf  - MT message data
//  743  *
//  744  * @return  void
//  745  ***************************************************************************************************/

        RSEG BANKED_CODE:CODE:NOROOT(0)
//  746 void MT_ZdoEndDevAnnce(uint8 *pBuf)
MT_ZdoEndDevAnnce:
        CFI Block cfiBlock11 Using cfiCommon0
        CFI Function MT_ZdoEndDevAnnce
        CODE
//  747 {
        FUNCALL MT_ZdoEndDevAnnce, ZDP_DeviceAnnce
        LOCFRAME ISTACK, 0, STACK
        LOCFRAME PSTACK, 0, STACK
        LOCFRAME XSTACK, 12, STACK
        LOCFRAME IOVERLAY, 0, STATIC
        LOCFRAME DOVERLAY, 0, STATIC
        ARGFRAME ISTACK, 0, STACK
        ARGFRAME PSTACK, 0, STACK
        ARGFRAME XSTACK, 12, STACK
        ARGFRAME IOVERLAY, 0, STATIC
        ARGFRAME DOVERLAY, 0, STATIC
        FUNCALL MT_ZdoEndDevAnnce, MT_BuildAndSendZToolResponse
        LOCFRAME ISTACK, 0, STACK
        LOCFRAME PSTACK, 0, STACK
        LOCFRAME XSTACK, 11, STACK
        LOCFRAME IOVERLAY, 0, STATIC
        LOCFRAME DOVERLAY, 0, STATIC
        ARGFRAME ISTACK, 0, STACK
        ARGFRAME PSTACK, 0, STACK
        ARGFRAME XSTACK, 11, STACK
        ARGFRAME IOVERLAY, 0, STATIC
        ARGFRAME DOVERLAY, 0, STATIC
        MOV     A,#-0xa
        LCALL   ?BANKED_ENTER_XDATA
        CFI DPH0 load(1, XDATA, add(CFA_XSP16, literal(-1)))
        CFI DPL0 load(1, XDATA, add(CFA_XSP16, literal(-2)))
        CFI ?BRET_EXT load(1, XDATA, add(CFA_XSP16, literal(-3)))
        CFI ?RET_HIGH load(1, XDATA, add(CFA_XSP16, literal(-4)))
        CFI ?RET_LOW load(1, XDATA, add(CFA_XSP16, literal(-5)))
        CFI R7 load(1, XDATA, add(CFA_XSP16, literal(-6)))
        CFI V1 load(1, XDATA, add(CFA_XSP16, literal(-7)))
        CFI V0 load(1, XDATA, add(CFA_XSP16, literal(-8)))
        CFI VB load(1, XDATA, add(CFA_XSP16, literal(-9)))
        CFI R6 load(1, XDATA, add(CFA_XSP16, literal(-10)))
        CFI CFA_SP SP+0
        CFI CFA_XSP16 add(XSP16, 10)
        ; Saved register size: 10
        ; Auto size: 1
        MOV     A,#-0x1
        LCALL   ?ALLOC_XSTACK8
        CFI CFA_XSP16 add(XSP16, 11)
//  748   uint8 cmdId;
//  749   uint8 retValue;
//  750   uint16 shortAddr;
//  751   uint8 *pIEEEAddr;
//  752 
//  753   /* parse header */
//  754   cmdId = pBuf[MT_RPC_POS_CMD1];
        MOV     DPL,R2
        MOV     DPH,R3
        INC     DPTR
        INC     DPTR
        MOVX    A,@DPTR
        MOV     ?V0 + 0,A
//  755   pBuf += MT_RPC_FRAME_HDR_SZ;
        MOV     A,R2
        ADD     A,#0x3
        MOV     R2,A
        MOV     A,R3
        ADDC    A,#0x0
        MOV     R3,A
//  756 
//  757   /* network address */
//  758   shortAddr = BUILD_UINT16( pBuf[0], pBuf[1] );
        MOV     DPL,R2
        MOV     DPH,R3
        MOVX    A,@DPTR
        MOV     R4,A
        MOV     R5,#0x0
        MOV     DPL,R2
        MOV     DPH,R3
        INC     DPTR
        MOVX    A,@DPTR
        MOV     R0,A
        MOV     R1,#0x0
        CLR     A
        XCH     A,R0
        MOV     R1,A
        MOV     A,R4
        ADD     A,R0
        MOV     R6,A
        MOV     A,R5
        ADDC    A,R1
        MOV     R7,A
//  759   pBuf += 2;
        MOV     A,R2
        ADD     A,#0x2
        MOV     R2,A
        MOV     A,R3
        ADDC    A,#0x0
        MOV     R3,A
//  760 
//  761   /* extended address */
//  762   pIEEEAddr = pBuf;
        MOV     A,R2
        MOV     R4,A
        MOV     A,R3
        MOV     R5,A
//  763   pBuf += Z_EXTADDR_LEN;
        MOV     A,R2
        ADD     A,#0x8
        MOV     R2,A
        MOV     A,R3
        ADDC    A,#0x0
        MOV     R3,A
//  764 
//  765   retValue = (uint8)ZDP_DeviceAnnce( shortAddr, pIEEEAddr, *pBuf, 0);
        ; Setup parameters for call to function ZDP_DeviceAnnce
        MOV     ?V0 + 1,#0x0
        MOV     R0,#?V0 + 1
        LCALL   ?PUSH_XSTACK_I_ONE
        CFI CFA_XSP16 add(XSP16, 12)
        MOV     DPL,R2
        MOV     DPH,R3
        MOVX    A,@DPTR
        MOV     R1,A
        MOV     A,R6
        MOV     R2,A
        MOV     A,R7
        MOV     R3,A
        LCALL   ??ZDP_DeviceAnnce?relay
        MOV     A,#0x1
        LCALL   ?DEALLOC_XSTACK8
        CFI CFA_XSP16 add(XSP16, 11)
        MOV     A,R1
        MOV     DPL,?XSP + 0
        MOV     DPH,?XSP + 1
        MOVX    @DPTR,A
//  766 
//  767   MT_BuildAndSendZToolResponse(((uint8)MT_RPC_CMD_SRSP | (uint8)MT_RPC_SYS_ZDO), cmdId, 1, &retValue);
        ; Setup parameters for call to function MT_BuildAndSendZToolResponse
        MOV     DPL,?XSP + 0
        MOV     DPH,?XSP + 1
        MOV     R4,DPL
        MOV     R5,DPH
        MOV     R3,#0x1
        MOV     R2,?V0 + 0
        MOV     R1,#0x65
        LCALL   ??MT_BuildAndSendZToolResponse?relay
//  768 }
        MOV     A,#0x1
        LCALL   ?DEALLOC_XSTACK8
        CFI CFA_XSP16 add(XSP16, 10)
        MOV     R7,#0x2
        LJMP    ?BANKED_LEAVE_XDATA
        CFI EndBlock cfiBlock11
//  769 
//  770 /***************************************************************************************************
//  771  * @fn      MT_ZdoUserDescSet
//  772  *
//  773  * @brief   Handle a User Descriptor Set.
//  774  *
//  775  * @param   pBuf  - MT message data
//  776  *
//  777  * @return  void
//  778  ***************************************************************************************************/

        RSEG BANKED_CODE:CODE:NOROOT(0)
//  779 void MT_ZdoUserDescSet(uint8 *pBuf)
MT_ZdoUserDescSet:
        CFI Block cfiBlock12 Using cfiCommon0
        CFI Function MT_ZdoUserDescSet
        CODE
//  780 {
        FUNCALL MT_ZdoUserDescSet, osal_memcpy
        LOCFRAME ISTACK, 0, STACK
        LOCFRAME PSTACK, 0, STACK
        LOCFRAME XSTACK, 45, STACK
        LOCFRAME IOVERLAY, 0, STATIC
        LOCFRAME DOVERLAY, 0, STATIC
        ARGFRAME ISTACK, 0, STACK
        ARGFRAME PSTACK, 0, STACK
        ARGFRAME XSTACK, 45, STACK
        ARGFRAME IOVERLAY, 0, STATIC
        ARGFRAME DOVERLAY, 0, STATIC
        FUNCALL MT_ZdoUserDescSet, ZDP_UserDescSet
        LOCFRAME ISTACK, 0, STACK
        LOCFRAME PSTACK, 0, STACK
        LOCFRAME XSTACK, 44, STACK
        LOCFRAME IOVERLAY, 0, STATIC
        LOCFRAME DOVERLAY, 0, STATIC
        ARGFRAME ISTACK, 0, STACK
        ARGFRAME PSTACK, 0, STACK
        ARGFRAME XSTACK, 44, STACK
        ARGFRAME IOVERLAY, 0, STATIC
        ARGFRAME DOVERLAY, 0, STATIC
        FUNCALL MT_ZdoUserDescSet, MT_BuildAndSendZToolResponse
        LOCFRAME ISTACK, 0, STACK
        LOCFRAME PSTACK, 0, STACK
        LOCFRAME XSTACK, 42, STACK
        LOCFRAME IOVERLAY, 0, STATIC
        LOCFRAME DOVERLAY, 0, STATIC
        ARGFRAME ISTACK, 0, STACK
        ARGFRAME PSTACK, 0, STACK
        ARGFRAME XSTACK, 42, STACK
        ARGFRAME IOVERLAY, 0, STATIC
        ARGFRAME DOVERLAY, 0, STATIC
        MOV     A,#-0xf
        LCALL   ?BANKED_ENTER_XDATA
        CFI DPH0 load(1, XDATA, add(CFA_XSP16, literal(-1)))
        CFI DPL0 load(1, XDATA, add(CFA_XSP16, literal(-2)))
        CFI ?BRET_EXT load(1, XDATA, add(CFA_XSP16, literal(-3)))
        CFI ?RET_HIGH load(1, XDATA, add(CFA_XSP16, literal(-4)))
        CFI ?RET_LOW load(1, XDATA, add(CFA_XSP16, literal(-5)))
        CFI R7 load(1, XDATA, add(CFA_XSP16, literal(-6)))
        CFI V6 load(1, XDATA, add(CFA_XSP16, literal(-7)))
        CFI V5 load(1, XDATA, add(CFA_XSP16, literal(-8)))
        CFI V4 load(1, XDATA, add(CFA_XSP16, literal(-9)))
        CFI V3 load(1, XDATA, add(CFA_XSP16, literal(-10)))
        CFI V2 load(1, XDATA, add(CFA_XSP16, literal(-11)))
        CFI V1 load(1, XDATA, add(CFA_XSP16, literal(-12)))
        CFI V0 load(1, XDATA, add(CFA_XSP16, literal(-13)))
        CFI VB load(1, XDATA, add(CFA_XSP16, literal(-14)))
        CFI R6 load(1, XDATA, add(CFA_XSP16, literal(-15)))
        CFI CFA_SP SP+0
        CFI CFA_XSP16 add(XSP16, 15)
        ; Saved register size: 15
        ; Auto size: 27
        MOV     A,#-0x1b
        LCALL   ?ALLOC_XSTACK8
        CFI CFA_XSP16 add(XSP16, 42)
        MOV     A,R2
        MOV     R6,A
        MOV     A,R3
        MOV     R7,A
//  781   uint8 cmdId;
//  782   uint8 retValue;
//  783   zAddrType_t destAddr;
//  784   uint16 shortAddr;
//  785   UserDescriptorFormat_t userDesc;
//  786 
//  787   /* parse header */
//  788   cmdId = pBuf[MT_RPC_POS_CMD1];
        MOV     DPL,R6
        MOV     DPH,R7
        INC     DPTR
        INC     DPTR
        MOVX    A,@DPTR
        MOV     ?V0 + 2,A
//  789   pBuf += MT_RPC_FRAME_HDR_SZ;
        MOV     A,R6
        ADD     A,#0x3
        MOV     R6,A
        MOV     A,R7
        ADDC    A,#0x0
        MOV     R7,A
//  790 
//  791   /* Dev address */
//  792   destAddr.addrMode = Addr16Bit;
        MOV     A,#0x9
        LCALL   ?XSTACK_DISP0_8
        MOV     A,#0x2
        MOVX    @DPTR,A
//  793   destAddr.addr.shortAddr = BUILD_UINT16( pBuf[0], pBuf[1] );
        MOV     DPL,R6
        MOV     DPH,R7
        MOVX    A,@DPTR
        MOV     R2,A
        MOV     R3,#0x0
        MOV     DPL,R6
        MOV     DPH,R7
        INC     DPTR
        MOVX    A,@DPTR
        MOV     R0,A
        MOV     R1,#0x0
        CLR     A
        XCH     A,R0
        MOV     R1,A
        MOV     A,R2
        ADD     A,R0
        MOV     R0,A
        MOV     A,R3
        ADDC    A,R1
        MOV     R1,A
        MOV     A,#0x1
        LCALL   ?XSTACK_DISP0_8
        MOV     A,R0
        MOVX    @DPTR,A
        INC     DPTR
        MOV     A,R1
        MOVX    @DPTR,A
//  794   pBuf += 2;
        MOV     A,R6
        ADD     A,#0x2
        MOV     R6,A
        MOV     A,R7
        ADDC    A,#0x0
        MOV     R7,A
//  795 
//  796   /* Network address of interest */
//  797   shortAddr = BUILD_UINT16( pBuf[0], pBuf[1] );
        MOV     DPL,R6
        MOV     DPH,R7
        MOVX    A,@DPTR
        MOV     R2,A
        MOV     R3,#0x0
        MOV     DPL,R6
        MOV     DPH,R7
        INC     DPTR
        MOVX    A,@DPTR
        MOV     R0,A
        MOV     R1,#0x0
        CLR     A
        XCH     A,R0
        MOV     R1,A
        MOV     A,R2
        ADD     A,R0
        MOV     ?V0 + 0,A
        MOV     A,R3
        ADDC    A,R1
        MOV     ?V0 + 1,A
//  798   pBuf += 2;
        MOV     A,R6
        ADD     A,#0x2
        MOV     R6,A
        MOV     A,R7
        ADDC    A,#0x0
        MOV     R7,A
//  799 
//  800   /* User descriptor */
//  801   userDesc.len = *pBuf++;
        MOV     DPL,R6
        MOV     DPH,R7
        MOVX    A,@DPTR
        PUSH    A
        CFI CFA_SP SP+-1
        MOV     A,#0xa
        LCALL   ?XSTACK_DISP0_8
        POP     A
        CFI CFA_SP SP+0
        MOVX    @DPTR,A
        MOV     DPL,R6
        MOV     DPH,R7
        INC     DPTR
        MOV     R6,DPL
        MOV     R7,DPH
//  802   osal_memcpy( userDesc.desc, pBuf, userDesc.len );
        ; Setup parameters for call to function osal_memcpy
        MOV     ?V0 + 4,R6
        MOV     ?V0 + 5,R7
        MOV     ?V0 + 6,#0x0
        MOV     R0,#?V0 + 4
        LCALL   ?PUSH_XSTACK_I_THREE
        CFI CFA_XSP16 add(XSP16, 45)
        MOV     A,#0xd
        LCALL   ?XSTACK_DISP0_8
        MOVX    A,@DPTR
        MOV     R4,A
        MOV     R5,#0x0
        MOV     A,#0xe
        LCALL   ?XSTACK_DISP0_8
        MOV     R2,DPL
        MOV     R3,DPH
        LCALL   ??osal_memcpy?relay
        MOV     A,#0x3
        LCALL   ?DEALLOC_XSTACK8
        CFI CFA_XSP16 add(XSP16, 42)
//  803   pBuf += 16;
        MOV     A,R6
        ADD     A,#0x10
        MOV     R6,A
        MOV     A,R7
        ADDC    A,#0x0
        MOV     R7,A
//  804 
//  805   retValue = (uint8)ZDP_UserDescSet( &destAddr, shortAddr, &userDesc, 0);
        ; Setup parameters for call to function ZDP_UserDescSet
        MOV     A,#0xa
        LCALL   ?XSTACK_DISP0_8
        MOV     ?V0 + 4,DPL
        MOV     ?V0 + 5,DPH
        MOV     R0,#?V0 + 4
        LCALL   ?PUSH_XSTACK_I_TWO
        CFI CFA_XSP16 add(XSP16, 44)
        MOV     R1,#0x0
        MOV     R4,?V0 + 0
        MOV     R5,?V0 + 1
        MOV     A,#0x3
        LCALL   ?XSTACK_DISP0_8
        MOV     R2,DPL
        MOV     R3,DPH
        LCALL   ??ZDP_UserDescSet?relay
        MOV     A,#0x2
        LCALL   ?DEALLOC_XSTACK8
        CFI CFA_XSP16 add(XSP16, 42)
        MOV     A,R1
        MOV     DPL,?XSP + 0
        MOV     DPH,?XSP + 1
        MOVX    @DPTR,A
//  806 
//  807   MT_BuildAndSendZToolResponse(((uint8)MT_RPC_CMD_SRSP | (uint8)MT_RPC_SYS_ZDO), cmdId, 1, &retValue);
        ; Setup parameters for call to function MT_BuildAndSendZToolResponse
        MOV     DPL,?XSP + 0
        MOV     DPH,?XSP + 1
        MOV     R4,DPL
        MOV     R5,DPH
        MOV     R3,#0x1
        MOV     R2,?V0 + 2
        MOV     R1,#0x65
        LCALL   ??MT_BuildAndSendZToolResponse?relay
//  808 }
        MOV     A,#0x1b
        LCALL   ?DEALLOC_XSTACK8
        CFI CFA_XSP16 add(XSP16, 15)
        MOV     R7,#0x7
        LJMP    ?BANKED_LEAVE_XDATA
        CFI EndBlock cfiBlock12
//  809 
//  810 /***************************************************************************************************
//  811  * @fn      MT_ZdoServiceDiscRequest
//  812  *
//  813  * @brief   Handle a Server Discovery request.
//  814  *
//  815  * @param   pBuf  - MT message data
//  816  *
//  817  * @return  void
//  818  ***************************************************************************************************/

        RSEG BANKED_CODE:CODE:NOROOT(0)
//  819 void MT_ZdoServiceDiscRequest(uint8 *pBuf)
MT_ZdoServiceDiscRequest:
        CFI Block cfiBlock13 Using cfiCommon0
        CFI Function MT_ZdoServiceDiscRequest
        CODE
//  820 {
        FUNCALL MT_ZdoServiceDiscRequest, ZDP_ServerDiscReq
        LOCFRAME ISTACK, 0, STACK
        LOCFRAME PSTACK, 0, STACK
        LOCFRAME XSTACK, 10, STACK
        LOCFRAME IOVERLAY, 0, STATIC
        LOCFRAME DOVERLAY, 0, STATIC
        ARGFRAME ISTACK, 0, STACK
        ARGFRAME PSTACK, 0, STACK
        ARGFRAME XSTACK, 10, STACK
        ARGFRAME IOVERLAY, 0, STATIC
        ARGFRAME DOVERLAY, 0, STATIC
        FUNCALL MT_ZdoServiceDiscRequest, MT_BuildAndSendZToolResponse
        LOCFRAME ISTACK, 0, STACK
        LOCFRAME PSTACK, 0, STACK
        LOCFRAME XSTACK, 10, STACK
        LOCFRAME IOVERLAY, 0, STATIC
        LOCFRAME DOVERLAY, 0, STATIC
        ARGFRAME ISTACK, 0, STACK
        ARGFRAME PSTACK, 0, STACK
        ARGFRAME XSTACK, 10, STACK
        ARGFRAME IOVERLAY, 0, STATIC
        ARGFRAME DOVERLAY, 0, STATIC
        MOV     A,#-0x9
        LCALL   ?BANKED_ENTER_XDATA
        CFI DPH0 load(1, XDATA, add(CFA_XSP16, literal(-1)))
        CFI DPL0 load(1, XDATA, add(CFA_XSP16, literal(-2)))
        CFI ?BRET_EXT load(1, XDATA, add(CFA_XSP16, literal(-3)))
        CFI ?RET_HIGH load(1, XDATA, add(CFA_XSP16, literal(-4)))
        CFI ?RET_LOW load(1, XDATA, add(CFA_XSP16, literal(-5)))
        CFI R7 load(1, XDATA, add(CFA_XSP16, literal(-6)))
        CFI V0 load(1, XDATA, add(CFA_XSP16, literal(-7)))
        CFI VB load(1, XDATA, add(CFA_XSP16, literal(-8)))
        CFI R6 load(1, XDATA, add(CFA_XSP16, literal(-9)))
        CFI CFA_SP SP+0
        CFI CFA_XSP16 add(XSP16, 9)
        ; Saved register size: 9
        ; Auto size: 1
        MOV     A,#-0x1
        LCALL   ?ALLOC_XSTACK8
        CFI CFA_XSP16 add(XSP16, 10)
        MOV     A,R2
        MOV     R6,A
        MOV     A,R3
        MOV     R7,A
//  821   uint8 cmdId;
//  822   uint8 retValue;
//  823   uint16 serviceMask;
//  824 
//  825   /* parse header */
//  826   cmdId = pBuf[MT_RPC_POS_CMD1];
        MOV     DPL,R6
        MOV     DPH,R7
        INC     DPTR
        INC     DPTR
        MOVX    A,@DPTR
        MOV     ?V0 + 0,A
//  827   pBuf += MT_RPC_FRAME_HDR_SZ;
        MOV     A,R6
        ADD     A,#0x3
        MOV     R6,A
        MOV     A,R7
        ADDC    A,#0x0
        MOV     R7,A
//  828 
//  829   /* Service Mask */
//  830   serviceMask = BUILD_UINT16( pBuf[0], pBuf[1]);
        MOV     DPL,R6
        MOV     DPH,R7
        MOVX    A,@DPTR
        MOV     R2,A
        MOV     R3,#0x0
        MOV     DPL,R6
        MOV     DPH,R7
        INC     DPTR
        MOVX    A,@DPTR
        MOV     R0,A
        MOV     R1,#0x0
        CLR     A
        XCH     A,R0
        MOV     R1,A
        MOV     A,R2
        ADD     A,R0
        MOV     R2,A
        MOV     A,R3
        ADDC    A,R1
        MOV     R3,A
//  831   pBuf += 2;
        MOV     A,R6
        ADD     A,#0x2
        MOV     R6,A
        MOV     A,R7
        ADDC    A,#0x0
        MOV     R7,A
//  832 
//  833   retValue = (uint8)ZDP_ServerDiscReq( serviceMask, 0);
        ; Setup parameters for call to function ZDP_ServerDiscReq
        MOV     R1,#0x0
        LCALL   ??ZDP_ServerDiscReq?relay
        MOV     A,R1
        MOV     DPL,?XSP + 0
        MOV     DPH,?XSP + 1
        MOVX    @DPTR,A
//  834 
//  835   MT_BuildAndSendZToolResponse(((uint8)MT_RPC_CMD_SRSP | (uint8)MT_RPC_SYS_ZDO), cmdId, 1, &retValue);
        ; Setup parameters for call to function MT_BuildAndSendZToolResponse
        MOV     DPL,?XSP + 0
        MOV     DPH,?XSP + 1
        MOV     R4,DPL
        MOV     R5,DPH
        MOV     R3,#0x1
        MOV     R2,?V0 + 0
        MOV     R1,#0x65
        LCALL   ??MT_BuildAndSendZToolResponse?relay
//  836 }
        MOV     A,#0x1
        LCALL   ?DEALLOC_XSTACK8
        CFI CFA_XSP16 add(XSP16, 9)
        MOV     R7,#0x1
        LJMP    ?BANKED_LEAVE_XDATA
        CFI EndBlock cfiBlock13
//  837 
//  838 /***************************************************************************************************
//  839  * @fn      MT_ZdoEndDevBindRequest
//  840  *
//  841  * @brief   Handle a End Device Bind request.
//  842  *
//  843  * @param   pBuf  - MT message data
//  844  *
//  845  * @return  void
//  846  ***************************************************************************************************/

        RSEG BANKED_CODE:CODE:NOROOT(0)
//  847 void MT_ZdoEndDevBindRequest(uint8 *pBuf)
MT_ZdoEndDevBindRequest:
        CFI Block cfiBlock14 Using cfiCommon0
        CFI Function MT_ZdoEndDevBindRequest
        CODE
//  848 {
        FUNCALL MT_ZdoEndDevBindRequest, ZDP_EndDeviceBindReq
        LOCFRAME ISTACK, 0, STACK
        LOCFRAME PSTACK, 0, STACK
        LOCFRAME XSTACK, 95, STACK
        LOCFRAME IOVERLAY, 0, STATIC
        LOCFRAME DOVERLAY, 0, STATIC
        ARGFRAME ISTACK, 0, STACK
        ARGFRAME PSTACK, 0, STACK
        ARGFRAME XSTACK, 95, STACK
        ARGFRAME IOVERLAY, 0, STATIC
        ARGFRAME DOVERLAY, 0, STATIC
        FUNCALL MT_ZdoEndDevBindRequest, MT_BuildAndSendZToolResponse
        LOCFRAME ISTACK, 0, STACK
        LOCFRAME PSTACK, 0, STACK
        LOCFRAME XSTACK, 86, STACK
        LOCFRAME IOVERLAY, 0, STATIC
        LOCFRAME DOVERLAY, 0, STATIC
        ARGFRAME ISTACK, 0, STACK
        ARGFRAME PSTACK, 0, STACK
        ARGFRAME XSTACK, 86, STACK
        ARGFRAME IOVERLAY, 0, STATIC
        ARGFRAME DOVERLAY, 0, STATIC
        MOV     A,#-0x10
        LCALL   ?BANKED_ENTER_XDATA
        CFI DPH0 load(1, XDATA, add(CFA_XSP16, literal(-1)))
        CFI DPL0 load(1, XDATA, add(CFA_XSP16, literal(-2)))
        CFI ?BRET_EXT load(1, XDATA, add(CFA_XSP16, literal(-3)))
        CFI ?RET_HIGH load(1, XDATA, add(CFA_XSP16, literal(-4)))
        CFI ?RET_LOW load(1, XDATA, add(CFA_XSP16, literal(-5)))
        CFI R7 load(1, XDATA, add(CFA_XSP16, literal(-6)))
        CFI V7 load(1, XDATA, add(CFA_XSP16, literal(-7)))
        CFI V6 load(1, XDATA, add(CFA_XSP16, literal(-8)))
        CFI V5 load(1, XDATA, add(CFA_XSP16, literal(-9)))
        CFI V4 load(1, XDATA, add(CFA_XSP16, literal(-10)))
        CFI V3 load(1, XDATA, add(CFA_XSP16, literal(-11)))
        CFI V2 load(1, XDATA, add(CFA_XSP16, literal(-12)))
        CFI V1 load(1, XDATA, add(CFA_XSP16, literal(-13)))
        CFI V0 load(1, XDATA, add(CFA_XSP16, literal(-14)))
        CFI VB load(1, XDATA, add(CFA_XSP16, literal(-15)))
        CFI R6 load(1, XDATA, add(CFA_XSP16, literal(-16)))
        CFI CFA_SP SP+0
        CFI CFA_XSP16 add(XSP16, 16)
        ; Saved register size: 16
        ; Auto size: 70
        MOV     A,#-0x46
        LCALL   ?ALLOC_XSTACK8
        CFI CFA_XSP16 add(XSP16, 86)
//  849   uint8 cmdId;
//  850   uint8 retValue = 0;
        MOV     DPL,?XSP + 0
        MOV     DPH,?XSP + 1
        MOV     A,#0x0
        MOVX    @DPTR,A
//  851   uint8 i, epInt, numInClusters, numOutClusters;
//  852   zAddrType_t destAddr;
//  853   uint16 shortAddr;
//  854   uint16 profileID, inClusters[MTZDO_MAX_ED_BIND_CLUSTERS], outClusters[MTZDO_MAX_ED_BIND_CLUSTERS];
//  855 
//  856   /* parse header */
//  857   cmdId = pBuf[MT_RPC_POS_CMD1];
        MOV     DPL,R2
        MOV     DPH,R3
        INC     DPTR
        INC     DPTR
        MOVX    A,@DPTR
        MOV     R6,A
//  858   pBuf += MT_RPC_FRAME_HDR_SZ;
        MOV     A,R2
        ADD     A,#0x3
        MOV     R2,A
        MOV     A,R3
        ADDC    A,#0x0
        MOV     R3,A
//  859 
//  860   /* Dev address */
//  861   destAddr.addrMode = Addr16Bit;
        MOV     A,#0x9
        LCALL   ?XSTACK_DISP0_8
        MOV     A,#0x2
        MOVX    @DPTR,A
//  862   destAddr.addr.shortAddr = BUILD_UINT16( pBuf[0], pBuf[1] );
        MOV     DPL,R2
        MOV     DPH,R3
        MOVX    A,@DPTR
        MOV     R4,A
        MOV     R5,#0x0
        MOV     DPL,R2
        MOV     DPH,R3
        INC     DPTR
        MOVX    A,@DPTR
        MOV     R0,A
        MOV     R1,#0x0
        CLR     A
        XCH     A,R0
        MOV     R1,A
        MOV     A,R4
        ADD     A,R0
        MOV     R0,A
        MOV     A,R5
        ADDC    A,R1
        MOV     R1,A
        MOV     A,#0x1
        LCALL   ?XSTACK_DISP0_8
        MOV     A,R0
        MOVX    @DPTR,A
        INC     DPTR
        MOV     A,R1
        MOVX    @DPTR,A
//  863   pBuf += 2;
        MOV     A,R2
        ADD     A,#0x2
        MOV     R2,A
        MOV     A,R3
        ADDC    A,#0x0
        MOV     R3,A
//  864 
//  865   /* Local coordinator of the binding */
//  866   shortAddr = BUILD_UINT16( pBuf[0], pBuf[1] );
        MOV     DPL,R2
        MOV     DPH,R3
        MOVX    A,@DPTR
        MOV     R4,A
        MOV     R5,#0x0
        MOV     DPL,R2
        MOV     DPH,R3
        INC     DPTR
        MOVX    A,@DPTR
        MOV     R0,A
        MOV     R1,#0x0
        CLR     A
        XCH     A,R0
        MOV     R1,A
        MOV     A,R4
        ADD     A,R0
        MOV     R4,A
        MOV     A,R5
        ADDC    A,R1
        MOV     R5,A
//  867   pBuf += 2;
        MOV     A,R2
        ADD     A,#0x2
        MOV     R2,A
        MOV     A,R3
        ADDC    A,#0x0
        MOV     R3,A
//  868 
//  869   /* For now, skip past the extended address */
//  870   pBuf += Z_EXTADDR_LEN;
        MOV     A,R2
        ADD     A,#0x8
        MOV     R2,A
        MOV     A,R3
        ADDC    A,#0x0
        MOV     R3,A
//  871 
//  872   /* Endpoint */
//  873   epInt = *pBuf++;
        MOV     DPL,R2
        MOV     DPH,R3
        MOVX    A,@DPTR
        MOV     R7,A
        MOV     DPL,R2
        MOV     DPH,R3
        INC     DPTR
        MOV     R2,DPL
        MOV     R3,DPH
//  874 
//  875   /* Profile ID */
//  876   profileID = BUILD_UINT16( pBuf[0], pBuf[1] );
        MOV     DPL,R2
        MOV     DPH,R3
        MOVX    A,@DPTR
        MOV     ?V0 + 0,A
        MOV     ?V0 + 1,#0x0
        MOV     DPL,R2
        MOV     DPH,R3
        INC     DPTR
        MOVX    A,@DPTR
        MOV     R0,A
        MOV     R1,#0x0
        CLR     A
        XCH     A,R0
        MOV     R1,A
        MOV     A,?V0 + 0
        ADD     A,R0
        MOV     ?V0 + 0,A
        MOV     A,?V0 + 1
        ADDC    A,R1
        MOV     ?V0 + 1,A
//  877   pBuf += 2;
        MOV     A,R2
        ADD     A,#0x2
        MOV     R2,A
        MOV     A,R3
        ADDC    A,#0x0
        MOV     R3,A
//  878 
//  879   /* NumInClusters */
//  880   numInClusters = *pBuf++;
        MOV     DPL,R2
        MOV     DPH,R3
        MOVX    A,@DPTR
        MOV     ?V0 + 4,A
        MOV     DPL,R2
        MOV     DPH,R3
        INC     DPTR
        MOV     R2,DPL
        MOV     R3,DPH
//  881   if ( numInClusters <= MTZDO_MAX_ED_BIND_CLUSTERS )
        MOV     A,?V0 + 4
        CLR     C
        SUBB    A,#0x10
        JNC     ??MT_ZdoEndDevBindRequest_0
//  882   {
//  883     for ( i = 0; i < numInClusters; i++ )
        MOV     ?V0 + 2,#0x0
??MT_ZdoEndDevBindRequest_1:
        MOV     A,?V0 + 2
        CLR     C
        SUBB    A,?V0 + 4
        JNC     ??MT_ZdoEndDevBindRequest_2
//  884     {
//  885       inClusters[i] = BUILD_UINT16(pBuf[0], pBuf[1]);
        MOV     DPL,R2
        MOV     DPH,R3
        MOVX    A,@DPTR
        MOV     ?V0 + 6,A
        MOV     ?V0 + 7,#0x0
        MOV     DPL,R2
        MOV     DPH,R3
        INC     DPTR
        MOVX    A,@DPTR
        MOV     R0,A
        MOV     R1,#0x0
        CLR     A
        XCH     A,R0
        MOV     R1,A
        MOV     A,?V0 + 6
        ADD     A,R0
        MOV     ?V0 + 6,A
        MOV     A,?V0 + 7
        ADDC    A,R1
        MOV     ?V0 + 7,A
        MOV     A,?V0 + 2
        MOV     R0,?V0 + 2
        MOV     R1,#0x0
        MOV     A,R0
        MOV     B,#0x2
        MUL     AB
        XCH     A,R0
        MOV     ?V0 + 3,B
        MOV     B,#0x0
        MUL     AB
        ADD     A,?V0 + 3
        MOV     ?V0 + 3,A
        MOV     B,#0x2
        MOV     A,R1
        MUL     AB
        ADD     A,?V0 + 3
        MOV     R1,A
        MOV     A,#0x28
        LCALL   ?XSTACK_DISP0_8
        MOV     A,DPL
        ADD     A,R0
        MOV     DPL,A
        MOV     A,DPH
        ADDC    A,R1
        MOV     DPH,A
        MOV     A,?V0 + 6
        MOVX    @DPTR,A
        INC     DPTR
        MOV     A,?V0 + 7
        MOVX    @DPTR,A
//  886       pBuf += 2;
        MOV     A,R2
        ADD     A,#0x2
        MOV     R2,A
        MOV     A,R3
        ADDC    A,#0x0
        MOV     R3,A
//  887     }
        INC     ?V0 + 2
        SJMP    ??MT_ZdoEndDevBindRequest_1
//  888   }
//  889   else
//  890   {
//  891     retValue = ZDP_INVALID_REQTYPE;
??MT_ZdoEndDevBindRequest_0:
        MOV     DPL,?XSP + 0
        MOV     DPH,?XSP + 1
        MOV     A,#-0x80
        MOVX    @DPTR,A
//  892   }
//  893 
//  894   /* NumOutClusters */
//  895   numOutClusters = *pBuf++;
??MT_ZdoEndDevBindRequest_2:
        MOV     DPL,R2
        MOV     DPH,R3
        MOVX    A,@DPTR
        MOV     ?V0 + 5,A
        MOV     DPL,R2
        MOV     DPH,R3
        INC     DPTR
        MOV     R2,DPL
        MOV     R3,DPH
//  896   if ( numOutClusters <= MTZDO_MAX_ED_BIND_CLUSTERS )
        MOV     A,?V0 + 5
        CLR     C
        SUBB    A,#0x10
        JNC     ??MT_ZdoEndDevBindRequest_3
//  897   {
//  898     for ( i = 0; i < numOutClusters; i++ )
        MOV     ?V0 + 2,#0x0
??MT_ZdoEndDevBindRequest_4:
        MOV     A,?V0 + 2
        CLR     C
        SUBB    A,?V0 + 5
        JNC     ??MT_ZdoEndDevBindRequest_5
//  899     {
//  900       outClusters[i] = BUILD_UINT16(pBuf[0], pBuf[1]);
        MOV     DPL,R2
        MOV     DPH,R3
        MOVX    A,@DPTR
        MOV     ?V0 + 6,A
        MOV     ?V0 + 7,#0x0
        MOV     DPL,R2
        MOV     DPH,R3
        INC     DPTR
        MOVX    A,@DPTR
        MOV     R0,A
        MOV     R1,#0x0
        CLR     A
        XCH     A,R0
        MOV     R1,A
        MOV     A,?V0 + 6
        ADD     A,R0
        MOV     ?V0 + 6,A
        MOV     A,?V0 + 7
        ADDC    A,R1
        MOV     ?V0 + 7,A
        MOV     A,?V0 + 2
        MOV     R0,?V0 + 2
        MOV     R1,#0x0
        MOV     A,R0
        MOV     B,#0x2
        MUL     AB
        XCH     A,R0
        MOV     ?V0 + 3,B
        MOV     B,#0x0
        MUL     AB
        ADD     A,?V0 + 3
        MOV     ?V0 + 3,A
        MOV     B,#0x2
        MOV     A,R1
        MUL     AB
        ADD     A,?V0 + 3
        MOV     R1,A
        MOV     A,#0xa
        LCALL   ?XSTACK_DISP0_8
        MOV     A,DPL
        ADD     A,R0
        MOV     DPL,A
        MOV     A,DPH
        ADDC    A,R1
        MOV     DPH,A
        MOV     A,?V0 + 6
        MOVX    @DPTR,A
        INC     DPTR
        MOV     A,?V0 + 7
        MOVX    @DPTR,A
//  901       pBuf += 2;
        MOV     A,R2
        ADD     A,#0x2
        MOV     R2,A
        MOV     A,R3
        ADDC    A,#0x0
        MOV     R3,A
//  902     }
        INC     ?V0 + 2
        SJMP    ??MT_ZdoEndDevBindRequest_4
//  903   }
//  904   else
//  905   {
//  906     retValue = ZDP_INVALID_REQTYPE;
??MT_ZdoEndDevBindRequest_3:
        MOV     DPL,?XSP + 0
        MOV     DPH,?XSP + 1
        MOV     A,#-0x80
        MOVX    @DPTR,A
//  907   }
//  908 
//  909   if ( retValue == 0 )
??MT_ZdoEndDevBindRequest_5:
        MOV     DPL,?XSP + 0
        MOV     DPH,?XSP + 1
        MOVX    A,@DPTR
        JNZ     ??MT_ZdoEndDevBindRequest_6
//  910   {
//  911     retValue = (uint8)ZDP_EndDeviceBindReq( &destAddr, shortAddr, epInt, profileID,
//  912                                           numInClusters, inClusters, numOutClusters, outClusters, 0);
        ; Setup parameters for call to function ZDP_EndDeviceBindReq
        MOV     ?V0 + 2,#0x0
        MOV     R0,#?V0 + 2
        LCALL   ?PUSH_XSTACK_I_ONE
        CFI CFA_XSP16 add(XSP16, 87)
        MOV     A,#0xb
        LCALL   ?XSTACK_DISP0_8
        MOV     ?V0 + 2,DPL
        MOV     ?V0 + 3,DPH
        MOV     R0,#?V0 + 2
        LCALL   ?PUSH_XSTACK_I_TWO
        CFI CFA_XSP16 add(XSP16, 89)
        MOV     A,?V0 + 5
        MOV     ?V0 + 2,A
        MOV     R0,#?V0 + 2
        LCALL   ?PUSH_XSTACK_I_ONE
        CFI CFA_XSP16 add(XSP16, 90)
        MOV     A,#0x2c
        LCALL   ?XSTACK_DISP0_8
        MOV     ?V0 + 2,DPL
        MOV     ?V0 + 3,DPH
        MOV     R0,#?V0 + 2
        LCALL   ?PUSH_XSTACK_I_TWO
        CFI CFA_XSP16 add(XSP16, 92)
        MOV     A,?V0 + 4
        MOV     ?V0 + 2,A
        MOV     R0,#?V0 + 2
        LCALL   ?PUSH_XSTACK_I_ONE
        CFI CFA_XSP16 add(XSP16, 93)
        MOV     R0,#?V0 + 0
        LCALL   ?PUSH_XSTACK_I_TWO
        CFI CFA_XSP16 add(XSP16, 95)
        MOV     A,R7
        MOV     R1,A
        MOV     A,#0xa
        LCALL   ?XSTACK_DISP0_8
        MOV     R2,DPL
        MOV     R3,DPH
        LCALL   ??ZDP_EndDeviceBindReq?relay
        MOV     A,#0x9
        LCALL   ?DEALLOC_XSTACK8
        CFI CFA_XSP16 add(XSP16, 86)
        MOV     A,R1
        MOV     DPL,?XSP + 0
        MOV     DPH,?XSP + 1
        MOVX    @DPTR,A
//  913   }
//  914 
//  915   MT_BuildAndSendZToolResponse(((uint8)MT_RPC_CMD_SRSP | (uint8)MT_RPC_SYS_ZDO), cmdId, 1, &retValue);
??MT_ZdoEndDevBindRequest_6:
        ; Setup parameters for call to function MT_BuildAndSendZToolResponse
        MOV     DPL,?XSP + 0
        MOV     DPH,?XSP + 1
        MOV     R4,DPL
        MOV     R5,DPH
        MOV     R3,#0x1
        MOV     A,R6
        MOV     R2,A
        MOV     R1,#0x65
        LCALL   ??MT_BuildAndSendZToolResponse?relay
//  916 }
        MOV     A,#0x46
        LCALL   ?DEALLOC_XSTACK8
        CFI CFA_XSP16 add(XSP16, 16)
        MOV     R7,#0x8
        LJMP    ?BANKED_LEAVE_XDATA
        CFI EndBlock cfiBlock14
//  917 
//  918 /***************************************************************************************************
//  919  * @fn      MT_ZdoBindRequest
//  920  *
//  921  * @brief   Handle a Bind request.
//  922  *
//  923  * @param   pBuf  - MT message data
//  924  *
//  925  * @return  void
//  926  ***************************************************************************************************/

        RSEG BANKED_CODE:CODE:NOROOT(0)
//  927 void MT_ZdoBindRequest(uint8 *pBuf)
MT_ZdoBindRequest:
        CFI Block cfiBlock15 Using cfiCommon0
        CFI Function MT_ZdoBindRequest
        CODE
//  928 {
        FUNCALL MT_ZdoBindRequest, sAddrExtCpy
        LOCFRAME ISTACK, 0, STACK
        LOCFRAME PSTACK, 0, STACK
        LOCFRAME XSTACK, 35, STACK
        LOCFRAME IOVERLAY, 0, STATIC
        LOCFRAME DOVERLAY, 0, STATIC
        ARGFRAME ISTACK, 0, STACK
        ARGFRAME PSTACK, 0, STACK
        ARGFRAME XSTACK, 35, STACK
        ARGFRAME IOVERLAY, 0, STATIC
        ARGFRAME DOVERLAY, 0, STATIC
        FUNCALL MT_ZdoBindRequest, ZDP_BindUnbindReq
        LOCFRAME ISTACK, 0, STACK
        LOCFRAME PSTACK, 0, STACK
        LOCFRAME XSTACK, 43, STACK
        LOCFRAME IOVERLAY, 0, STATIC
        LOCFRAME DOVERLAY, 0, STATIC
        ARGFRAME ISTACK, 0, STACK
        ARGFRAME PSTACK, 0, STACK
        ARGFRAME XSTACK, 43, STACK
        ARGFRAME IOVERLAY, 0, STATIC
        ARGFRAME DOVERLAY, 0, STATIC
        FUNCALL MT_ZdoBindRequest, MT_BuildAndSendZToolResponse
        LOCFRAME ISTACK, 0, STACK
        LOCFRAME PSTACK, 0, STACK
        LOCFRAME XSTACK, 35, STACK
        LOCFRAME IOVERLAY, 0, STATIC
        LOCFRAME DOVERLAY, 0, STATIC
        ARGFRAME ISTACK, 0, STACK
        ARGFRAME PSTACK, 0, STACK
        ARGFRAME XSTACK, 35, STACK
        ARGFRAME IOVERLAY, 0, STATIC
        ARGFRAME DOVERLAY, 0, STATIC
        MOV     A,#-0x10
        LCALL   ?BANKED_ENTER_XDATA
        CFI DPH0 load(1, XDATA, add(CFA_XSP16, literal(-1)))
        CFI DPL0 load(1, XDATA, add(CFA_XSP16, literal(-2)))
        CFI ?BRET_EXT load(1, XDATA, add(CFA_XSP16, literal(-3)))
        CFI ?RET_HIGH load(1, XDATA, add(CFA_XSP16, literal(-4)))
        CFI ?RET_LOW load(1, XDATA, add(CFA_XSP16, literal(-5)))
        CFI R7 load(1, XDATA, add(CFA_XSP16, literal(-6)))
        CFI V7 load(1, XDATA, add(CFA_XSP16, literal(-7)))
        CFI V6 load(1, XDATA, add(CFA_XSP16, literal(-8)))
        CFI V5 load(1, XDATA, add(CFA_XSP16, literal(-9)))
        CFI V4 load(1, XDATA, add(CFA_XSP16, literal(-10)))
        CFI V3 load(1, XDATA, add(CFA_XSP16, literal(-11)))
        CFI V2 load(1, XDATA, add(CFA_XSP16, literal(-12)))
        CFI V1 load(1, XDATA, add(CFA_XSP16, literal(-13)))
        CFI V0 load(1, XDATA, add(CFA_XSP16, literal(-14)))
        CFI VB load(1, XDATA, add(CFA_XSP16, literal(-15)))
        CFI R6 load(1, XDATA, add(CFA_XSP16, literal(-16)))
        CFI CFA_SP SP+0
        CFI CFA_XSP16 add(XSP16, 16)
        ; Saved register size: 16
        ; Auto size: 19
        MOV     A,#-0x13
        LCALL   ?ALLOC_XSTACK8
        CFI CFA_XSP16 add(XSP16, 35)
        MOV     A,R2
        MOV     R6,A
        MOV     A,R3
        MOV     R7,A
//  929   uint8 cmdId;
//  930   uint8 retValue;
//  931   zAddrType_t destAddr, devAddr;
//  932   uint8 *pSrcAddr, *ptr;
//  933   uint8 srcEPInt, dstEPInt;
//  934   uint16 clusterID;
//  935 
//  936   /* parse header */
//  937   cmdId = pBuf[MT_RPC_POS_CMD1];
        MOV     DPL,R6
        MOV     DPH,R7
        INC     DPTR
        INC     DPTR
        MOVX    A,@DPTR
        MOV     ?V0 + 0,A
//  938   pBuf += MT_RPC_FRAME_HDR_SZ;
        MOV     A,R6
        ADD     A,#0x3
        MOV     R6,A
        MOV     A,R7
        ADDC    A,#0x0
        MOV     R7,A
//  939 
//  940   /* Dev address */
//  941   destAddr.addrMode = Addr16Bit;
        MOV     A,#0x12
        LCALL   ?XSTACK_DISP0_8
        MOV     A,#0x2
        MOVX    @DPTR,A
//  942   destAddr.addr.shortAddr = BUILD_UINT16( pBuf[0], pBuf[1] );
        MOV     DPL,R6
        MOV     DPH,R7
        MOVX    A,@DPTR
        MOV     R2,A
        MOV     R3,#0x0
        MOV     DPL,R6
        MOV     DPH,R7
        INC     DPTR
        MOVX    A,@DPTR
        MOV     R0,A
        MOV     R1,#0x0
        CLR     A
        XCH     A,R0
        MOV     R1,A
        MOV     A,R2
        ADD     A,R0
        MOV     R0,A
        MOV     A,R3
        ADDC    A,R1
        MOV     R1,A
        MOV     A,#0xa
        LCALL   ?XSTACK_DISP0_8
        MOV     A,R0
        MOVX    @DPTR,A
        INC     DPTR
        MOV     A,R1
        MOVX    @DPTR,A
//  943   pBuf += 2;
        MOV     A,R6
        ADD     A,#0x2
        MOV     R6,A
        MOV     A,R7
        ADDC    A,#0x0
        MOV     R7,A
//  944 
//  945   /* SrcAddress */
//  946   pSrcAddr = pBuf;
        MOV     ?V0 + 2,R6
        MOV     ?V0 + 3,R7
//  947   pBuf += Z_EXTADDR_LEN;
        MOV     A,R6
        ADD     A,#0x8
        MOV     R6,A
        MOV     A,R7
        ADDC    A,#0x0
        MOV     R7,A
//  948 
//  949   /* SrcEPInt */
//  950   srcEPInt = *pBuf++;
        MOV     DPL,R6
        MOV     DPH,R7
        MOVX    A,@DPTR
        MOV     ?V0 + 1,A
        MOV     DPL,R6
        MOV     DPH,R7
        INC     DPTR
        MOV     R6,DPL
        MOV     R7,DPH
//  951 
//  952   /* ClusterID */
//  953   clusterID = BUILD_UINT16( pBuf[0], pBuf[1]);
        MOV     DPL,R6
        MOV     DPH,R7
        MOVX    A,@DPTR
        MOV     R2,A
        MOV     R3,#0x0
        MOV     DPL,R6
        MOV     DPH,R7
        INC     DPTR
        MOVX    A,@DPTR
        MOV     R0,A
        MOV     R1,#0x0
        CLR     A
        XCH     A,R0
        MOV     R1,A
        MOV     A,R2
        ADD     A,R0
        MOV     ?V0 + 4,A
        MOV     A,R3
        ADDC    A,R1
        MOV     ?V0 + 5,A
//  954   pBuf += 2;
        MOV     A,R6
        ADD     A,#0x2
        MOV     R6,A
        MOV     A,R7
        ADDC    A,#0x0
        MOV     R7,A
//  955 
//  956   /* Destination Address mode */
//  957   devAddr.addrMode = *pBuf++;
        MOV     DPL,R6
        MOV     DPH,R7
        MOVX    A,@DPTR
        PUSH    A
        CFI CFA_SP SP+-1
        MOV     A,#0x9
        LCALL   ?XSTACK_DISP0_8
        POP     A
        CFI CFA_SP SP+0
        MOVX    @DPTR,A
        MOV     DPL,R6
        MOV     DPH,R7
        INC     DPTR
        MOV     R6,DPL
        MOV     R7,DPH
//  958 
//  959   /* Destination Address */
//  960   if ( devAddr.addrMode == Addr64Bit )
        MOV     A,#0x9
        LCALL   ?XSTACK_DISP0_8
        MOVX    A,@DPTR
        XRL     A,#0x3
        JNZ     ??MT_ZdoBindRequest_0
//  961   {
//  962     ptr = pBuf;
        MOV     A,R6
        MOV     R4,A
        MOV     A,R7
        MOV     R5,A
//  963     osal_cpyExtAddr( devAddr.addr.extAddr, ptr );
        ; Setup parameters for call to function sAddrExtCpy
        MOV     A,#0x1
        LCALL   ?XSTACK_DISP0_8
        MOV     R2,DPL
        MOV     R3,DPH
        LCALL   ??sAddrExtCpy?relay
        SJMP    ??MT_ZdoBindRequest_1
//  964   }
//  965   else
//  966   {
//  967     devAddr.addr.shortAddr = BUILD_UINT16( pBuf[0], pBuf[1] );
??MT_ZdoBindRequest_0:
        MOV     DPL,R6
        MOV     DPH,R7
        MOVX    A,@DPTR
        MOV     R2,A
        MOV     R3,#0x0
        MOV     DPL,R6
        MOV     DPH,R7
        INC     DPTR
        MOVX    A,@DPTR
        MOV     R0,A
        MOV     R1,#0x0
        CLR     A
        XCH     A,R0
        MOV     R1,A
        MOV     A,R2
        ADD     A,R0
        MOV     R0,A
        MOV     A,R3
        ADDC    A,R1
        MOV     R1,A
        MOV     A,#0x1
        LCALL   ?XSTACK_DISP0_8
        MOV     A,R0
        MOVX    @DPTR,A
        INC     DPTR
        MOV     A,R1
        MOVX    @DPTR,A
//  968   }
//  969   /* The short address occupies LSB two bytes */
//  970   pBuf += Z_EXTADDR_LEN;
??MT_ZdoBindRequest_1:
        MOV     A,R6
        ADD     A,#0x8
        MOV     R6,A
        MOV     A,R7
        ADDC    A,#0x0
        MOV     R7,A
//  971 
//  972   /* DstEPInt */
//  973   dstEPInt = *pBuf;
        MOV     DPL,R6
        MOV     DPH,R7
        MOVX    A,@DPTR
        MOV     R1,A
//  974 
//  975   retValue = (uint8)ZDP_BindReq( &destAddr, pSrcAddr, srcEPInt, clusterID, &devAddr, dstEPInt, 0);
        ; Setup parameters for call to function ZDP_BindUnbindReq
        MOV     ?V0 + 6,#0x0
        MOV     R0,#?V0 + 6
        LCALL   ?PUSH_XSTACK_I_ONE
        CFI CFA_XSP16 add(XSP16, 36)
        MOV     A,R1
        MOV     ?V0 + 6,A
        MOV     R0,#?V0 + 6
        LCALL   ?PUSH_XSTACK_I_ONE
        CFI CFA_XSP16 add(XSP16, 37)
        MOV     A,#0x3
        LCALL   ?XSTACK_DISP0_8
        MOV     ?V0 + 6,DPL
        MOV     ?V0 + 7,DPH
        MOV     R0,#?V0 + 6
        LCALL   ?PUSH_XSTACK_I_TWO
        CFI CFA_XSP16 add(XSP16, 39)
        MOV     R0,#?V0 + 4
        LCALL   ?PUSH_XSTACK_I_TWO
        CFI CFA_XSP16 add(XSP16, 41)
        MOV     R0,#?V0 + 2
        LCALL   ?PUSH_XSTACK_I_TWO
        CFI CFA_XSP16 add(XSP16, 43)
        MOV     R1,?V0 + 1
        MOV     A,#0x12
        LCALL   ?XSTACK_DISP0_8
        MOV     R4,DPL
        MOV     R5,DPH
        MOV     R2,#0x21
        MOV     R3,#0x0
        LCALL   ??ZDP_BindUnbindReq?relay
        MOV     A,#0x8
        LCALL   ?DEALLOC_XSTACK8
        CFI CFA_XSP16 add(XSP16, 35)
        MOV     A,R1
        MOV     DPL,?XSP + 0
        MOV     DPH,?XSP + 1
        MOVX    @DPTR,A
//  976 
//  977   MT_BuildAndSendZToolResponse(((uint8)MT_RPC_CMD_SRSP | (uint8)MT_RPC_SYS_ZDO), cmdId, 1, &retValue);
        ; Setup parameters for call to function MT_BuildAndSendZToolResponse
        MOV     DPL,?XSP + 0
        MOV     DPH,?XSP + 1
        MOV     R4,DPL
        MOV     R5,DPH
        MOV     R3,#0x1
        MOV     R2,?V0 + 0
        MOV     R1,#0x65
        LCALL   ??MT_BuildAndSendZToolResponse?relay
//  978 }
        MOV     A,#0x13
        LCALL   ?DEALLOC_XSTACK8
        CFI CFA_XSP16 add(XSP16, 16)
        MOV     R7,#0x8
        LJMP    ?BANKED_LEAVE_XDATA
        CFI EndBlock cfiBlock15
//  979 
//  980 /***************************************************************************************************
//  981  * @fn      MT_ZdoUnbindRequest
//  982  *
//  983  * @brief   Handle a Unbind request.
//  984  *
//  985  * @param   pBuf  - MT message data
//  986  *
//  987  * @return  void
//  988  ***************************************************************************************************/

        RSEG BANKED_CODE:CODE:NOROOT(0)
//  989 void MT_ZdoUnbindRequest(uint8 *pBuf)
MT_ZdoUnbindRequest:
        CFI Block cfiBlock16 Using cfiCommon0
        CFI Function MT_ZdoUnbindRequest
        CODE
//  990 {
        FUNCALL MT_ZdoUnbindRequest, sAddrExtCpy
        LOCFRAME ISTACK, 0, STACK
        LOCFRAME PSTACK, 0, STACK
        LOCFRAME XSTACK, 35, STACK
        LOCFRAME IOVERLAY, 0, STATIC
        LOCFRAME DOVERLAY, 0, STATIC
        ARGFRAME ISTACK, 0, STACK
        ARGFRAME PSTACK, 0, STACK
        ARGFRAME XSTACK, 35, STACK
        ARGFRAME IOVERLAY, 0, STATIC
        ARGFRAME DOVERLAY, 0, STATIC
        FUNCALL MT_ZdoUnbindRequest, ZDP_BindUnbindReq
        LOCFRAME ISTACK, 0, STACK
        LOCFRAME PSTACK, 0, STACK
        LOCFRAME XSTACK, 43, STACK
        LOCFRAME IOVERLAY, 0, STATIC
        LOCFRAME DOVERLAY, 0, STATIC
        ARGFRAME ISTACK, 0, STACK
        ARGFRAME PSTACK, 0, STACK
        ARGFRAME XSTACK, 43, STACK
        ARGFRAME IOVERLAY, 0, STATIC
        ARGFRAME DOVERLAY, 0, STATIC
        FUNCALL MT_ZdoUnbindRequest, MT_BuildAndSendZToolResponse
        LOCFRAME ISTACK, 0, STACK
        LOCFRAME PSTACK, 0, STACK
        LOCFRAME XSTACK, 35, STACK
        LOCFRAME IOVERLAY, 0, STATIC
        LOCFRAME DOVERLAY, 0, STATIC
        ARGFRAME ISTACK, 0, STACK
        ARGFRAME PSTACK, 0, STACK
        ARGFRAME XSTACK, 35, STACK
        ARGFRAME IOVERLAY, 0, STATIC
        ARGFRAME DOVERLAY, 0, STATIC
        MOV     A,#-0x10
        LCALL   ?BANKED_ENTER_XDATA
        CFI DPH0 load(1, XDATA, add(CFA_XSP16, literal(-1)))
        CFI DPL0 load(1, XDATA, add(CFA_XSP16, literal(-2)))
        CFI ?BRET_EXT load(1, XDATA, add(CFA_XSP16, literal(-3)))
        CFI ?RET_HIGH load(1, XDATA, add(CFA_XSP16, literal(-4)))
        CFI ?RET_LOW load(1, XDATA, add(CFA_XSP16, literal(-5)))
        CFI R7 load(1, XDATA, add(CFA_XSP16, literal(-6)))
        CFI V7 load(1, XDATA, add(CFA_XSP16, literal(-7)))
        CFI V6 load(1, XDATA, add(CFA_XSP16, literal(-8)))
        CFI V5 load(1, XDATA, add(CFA_XSP16, literal(-9)))
        CFI V4 load(1, XDATA, add(CFA_XSP16, literal(-10)))
        CFI V3 load(1, XDATA, add(CFA_XSP16, literal(-11)))
        CFI V2 load(1, XDATA, add(CFA_XSP16, literal(-12)))
        CFI V1 load(1, XDATA, add(CFA_XSP16, literal(-13)))
        CFI V0 load(1, XDATA, add(CFA_XSP16, literal(-14)))
        CFI VB load(1, XDATA, add(CFA_XSP16, literal(-15)))
        CFI R6 load(1, XDATA, add(CFA_XSP16, literal(-16)))
        CFI CFA_SP SP+0
        CFI CFA_XSP16 add(XSP16, 16)
        ; Saved register size: 16
        ; Auto size: 19
        MOV     A,#-0x13
        LCALL   ?ALLOC_XSTACK8
        CFI CFA_XSP16 add(XSP16, 35)
        MOV     A,R2
        MOV     R6,A
        MOV     A,R3
        MOV     R7,A
//  991   uint8 cmdId;
//  992   uint8 retValue;
//  993   zAddrType_t destAddr, devAddr;
//  994   uint8 *pSrcAddr, *ptr;
//  995   uint8 srcEPInt, dstEPInt;
//  996   uint16 clusterID;
//  997 
//  998   /* parse header */
//  999   cmdId = pBuf[MT_RPC_POS_CMD1];
        MOV     DPL,R6
        MOV     DPH,R7
        INC     DPTR
        INC     DPTR
        MOVX    A,@DPTR
        MOV     ?V0 + 0,A
// 1000   pBuf += MT_RPC_FRAME_HDR_SZ;
        MOV     A,R6
        ADD     A,#0x3
        MOV     R6,A
        MOV     A,R7
        ADDC    A,#0x0
        MOV     R7,A
// 1001 
// 1002   /* dev address */
// 1003   destAddr.addrMode = Addr16Bit;
        MOV     A,#0x12
        LCALL   ?XSTACK_DISP0_8
        MOV     A,#0x2
        MOVX    @DPTR,A
// 1004   destAddr.addr.shortAddr = BUILD_UINT16( pBuf[0], pBuf[1] );
        MOV     DPL,R6
        MOV     DPH,R7
        MOVX    A,@DPTR
        MOV     R2,A
        MOV     R3,#0x0
        MOV     DPL,R6
        MOV     DPH,R7
        INC     DPTR
        MOVX    A,@DPTR
        MOV     R0,A
        MOV     R1,#0x0
        CLR     A
        XCH     A,R0
        MOV     R1,A
        MOV     A,R2
        ADD     A,R0
        MOV     R0,A
        MOV     A,R3
        ADDC    A,R1
        MOV     R1,A
        MOV     A,#0xa
        LCALL   ?XSTACK_DISP0_8
        MOV     A,R0
        MOVX    @DPTR,A
        INC     DPTR
        MOV     A,R1
        MOVX    @DPTR,A
// 1005   pBuf += 2;
        MOV     A,R6
        ADD     A,#0x2
        MOV     R6,A
        MOV     A,R7
        ADDC    A,#0x0
        MOV     R7,A
// 1006 
// 1007   /* SrcAddress */
// 1008   pSrcAddr = pBuf;
        MOV     ?V0 + 2,R6
        MOV     ?V0 + 3,R7
// 1009   pBuf += Z_EXTADDR_LEN;
        MOV     A,R6
        ADD     A,#0x8
        MOV     R6,A
        MOV     A,R7
        ADDC    A,#0x0
        MOV     R7,A
// 1010 
// 1011   /* SrcEPInt */
// 1012   srcEPInt = *pBuf++;
        MOV     DPL,R6
        MOV     DPH,R7
        MOVX    A,@DPTR
        MOV     ?V0 + 1,A
        MOV     DPL,R6
        MOV     DPH,R7
        INC     DPTR
        MOV     R6,DPL
        MOV     R7,DPH
// 1013 
// 1014   /* ClusterID */
// 1015   clusterID = BUILD_UINT16( pBuf[0], pBuf[1]);
        MOV     DPL,R6
        MOV     DPH,R7
        MOVX    A,@DPTR
        MOV     R2,A
        MOV     R3,#0x0
        MOV     DPL,R6
        MOV     DPH,R7
        INC     DPTR
        MOVX    A,@DPTR
        MOV     R0,A
        MOV     R1,#0x0
        CLR     A
        XCH     A,R0
        MOV     R1,A
        MOV     A,R2
        ADD     A,R0
        MOV     ?V0 + 4,A
        MOV     A,R3
        ADDC    A,R1
        MOV     ?V0 + 5,A
// 1016   pBuf += 2;
        MOV     A,R6
        ADD     A,#0x2
        MOV     R6,A
        MOV     A,R7
        ADDC    A,#0x0
        MOV     R7,A
// 1017 
// 1018   /* Destination Address mode */
// 1019   devAddr.addrMode = *pBuf++;
        MOV     DPL,R6
        MOV     DPH,R7
        MOVX    A,@DPTR
        PUSH    A
        CFI CFA_SP SP+-1
        MOV     A,#0x9
        LCALL   ?XSTACK_DISP0_8
        POP     A
        CFI CFA_SP SP+0
        MOVX    @DPTR,A
        MOV     DPL,R6
        MOV     DPH,R7
        INC     DPTR
        MOV     R6,DPL
        MOV     R7,DPH
// 1020 
// 1021   /* Destination Address */
// 1022   if ( devAddr.addrMode == Addr64Bit )
        MOV     A,#0x9
        LCALL   ?XSTACK_DISP0_8
        MOVX    A,@DPTR
        XRL     A,#0x3
        JNZ     ??MT_ZdoUnbindRequest_0
// 1023   {
// 1024     ptr = pBuf;
        MOV     A,R6
        MOV     R4,A
        MOV     A,R7
        MOV     R5,A
// 1025     osal_cpyExtAddr( devAddr.addr.extAddr, ptr );
        ; Setup parameters for call to function sAddrExtCpy
        MOV     A,#0x1
        LCALL   ?XSTACK_DISP0_8
        MOV     R2,DPL
        MOV     R3,DPH
        LCALL   ??sAddrExtCpy?relay
        SJMP    ??MT_ZdoUnbindRequest_1
// 1026   }
// 1027   else
// 1028   {
// 1029     devAddr.addr.shortAddr = BUILD_UINT16( pBuf[0], pBuf[1] );
??MT_ZdoUnbindRequest_0:
        MOV     DPL,R6
        MOV     DPH,R7
        MOVX    A,@DPTR
        MOV     R2,A
        MOV     R3,#0x0
        MOV     DPL,R6
        MOV     DPH,R7
        INC     DPTR
        MOVX    A,@DPTR
        MOV     R0,A
        MOV     R1,#0x0
        CLR     A
        XCH     A,R0
        MOV     R1,A
        MOV     A,R2
        ADD     A,R0
        MOV     R0,A
        MOV     A,R3
        ADDC    A,R1
        MOV     R1,A
        MOV     A,#0x1
        LCALL   ?XSTACK_DISP0_8
        MOV     A,R0
        MOVX    @DPTR,A
        INC     DPTR
        MOV     A,R1
        MOVX    @DPTR,A
// 1030   }
// 1031   /* The short address occupies LSB two bytes */
// 1032   pBuf += Z_EXTADDR_LEN;
??MT_ZdoUnbindRequest_1:
        MOV     A,R6
        ADD     A,#0x8
        MOV     R6,A
        MOV     A,R7
        ADDC    A,#0x0
        MOV     R7,A
// 1033 
// 1034   /* dstEPInt */
// 1035   dstEPInt = *pBuf;
        MOV     DPL,R6
        MOV     DPH,R7
        MOVX    A,@DPTR
        MOV     R1,A
// 1036 
// 1037   retValue = (uint8)ZDP_UnbindReq( &destAddr, pSrcAddr, srcEPInt, clusterID, &devAddr, dstEPInt, 0);
        ; Setup parameters for call to function ZDP_BindUnbindReq
        MOV     ?V0 + 6,#0x0
        MOV     R0,#?V0 + 6
        LCALL   ?PUSH_XSTACK_I_ONE
        CFI CFA_XSP16 add(XSP16, 36)
        MOV     A,R1
        MOV     ?V0 + 6,A
        MOV     R0,#?V0 + 6
        LCALL   ?PUSH_XSTACK_I_ONE
        CFI CFA_XSP16 add(XSP16, 37)
        MOV     A,#0x3
        LCALL   ?XSTACK_DISP0_8
        MOV     ?V0 + 6,DPL
        MOV     ?V0 + 7,DPH
        MOV     R0,#?V0 + 6
        LCALL   ?PUSH_XSTACK_I_TWO
        CFI CFA_XSP16 add(XSP16, 39)
        MOV     R0,#?V0 + 4
        LCALL   ?PUSH_XSTACK_I_TWO
        CFI CFA_XSP16 add(XSP16, 41)
        MOV     R0,#?V0 + 2
        LCALL   ?PUSH_XSTACK_I_TWO
        CFI CFA_XSP16 add(XSP16, 43)
        MOV     R1,?V0 + 1
        MOV     A,#0x12
        LCALL   ?XSTACK_DISP0_8
        MOV     R4,DPL
        MOV     R5,DPH
        MOV     R2,#0x22
        MOV     R3,#0x0
        LCALL   ??ZDP_BindUnbindReq?relay
        MOV     A,#0x8
        LCALL   ?DEALLOC_XSTACK8
        CFI CFA_XSP16 add(XSP16, 35)
        MOV     A,R1
        MOV     DPL,?XSP + 0
        MOV     DPH,?XSP + 1
        MOVX    @DPTR,A
// 1038 
// 1039   MT_BuildAndSendZToolResponse(((uint8)MT_RPC_CMD_SRSP | (uint8)MT_RPC_SYS_ZDO), cmdId, 1, &retValue);
        ; Setup parameters for call to function MT_BuildAndSendZToolResponse
        MOV     DPL,?XSP + 0
        MOV     DPH,?XSP + 1
        MOV     R4,DPL
        MOV     R5,DPH
        MOV     R3,#0x1
        MOV     R2,?V0 + 0
        MOV     R1,#0x65
        LCALL   ??MT_BuildAndSendZToolResponse?relay
// 1040 }
        MOV     A,#0x13
        LCALL   ?DEALLOC_XSTACK8
        CFI CFA_XSP16 add(XSP16, 16)
        MOV     R7,#0x8
        LJMP    ?BANKED_LEAVE_XDATA
        CFI EndBlock cfiBlock16
// 1041 
// 1042 #if defined (MT_SYS_KEY_MANAGEMENT)
// 1043 /***************************************************************************************************
// 1044  * @fn      MT_ZdoSetLinkKey
// 1045  *
// 1046  * @brief   Set an application or trust center link key.
// 1047  *
// 1048  * @param   pBuf  - MT message data
// 1049  *
// 1050  * @return  void
// 1051  ***************************************************************************************************/
// 1052 void MT_ZdoSetLinkKey(uint8 *pBuf)
// 1053 {
// 1054   uint8 cmdId;
// 1055   uint8 retValue;
// 1056   uint8 *pExtAddr;
// 1057   uint8 *pKey;
// 1058   uint16 shortAddr;
// 1059 
// 1060   /* parse header */
// 1061   cmdId = pBuf[MT_RPC_POS_CMD1];
// 1062   pBuf += MT_RPC_FRAME_HDR_SZ;
// 1063 
// 1064   /* ShortAddr */
// 1065   shortAddr = BUILD_UINT16( pBuf[0], pBuf[1] );
// 1066   pBuf += 2;
// 1067 
// 1068   /* Extended Addr */
// 1069   pExtAddr = pBuf;
// 1070   pBuf += Z_EXTADDR_LEN;
// 1071 
// 1072   /* Key data */
// 1073   pKey = pBuf;
// 1074 
// 1075   retValue = (uint8)ZDSecMgrAddLinkKey( shortAddr, pExtAddr, pKey);
// 1076 
// 1077   MT_BuildAndSendZToolResponse(((uint8)MT_RPC_CMD_SRSP | (uint8)MT_RPC_SYS_ZDO), cmdId, 1, &retValue);
// 1078 }
// 1079 
// 1080 /***************************************************************************************************
// 1081  * @fn      MT_ZdoRemoveLinkKey
// 1082  *
// 1083  * @brief   Remove an application or trust center link key.
// 1084  *
// 1085  * @param   pBuf  - MT message data
// 1086  *
// 1087  * @return  void
// 1088  ***************************************************************************************************/
// 1089 void MT_ZdoRemoveLinkKey(uint8 *pBuf)
// 1090 {
// 1091   uint8 cmdId;
// 1092   uint8 retValue;
// 1093   uint8 *pExtAddr;
// 1094 
// 1095   /* parse header */
// 1096   cmdId = pBuf[MT_RPC_POS_CMD1];
// 1097   pBuf += MT_RPC_FRAME_HDR_SZ;
// 1098 
// 1099   /* ShortAddr */
// 1100   pExtAddr = pBuf;
// 1101 
// 1102   retValue = ZDSecMgrDeviceRemoveByExtAddr( pExtAddr );
// 1103 
// 1104   MT_BuildAndSendZToolResponse(((uint8)MT_RPC_CMD_SRSP | (uint8)MT_RPC_SYS_ZDO), cmdId, 1, &retValue);
// 1105 }
// 1106 
// 1107 /***************************************************************************************************
// 1108  * @fn      MT_ZdoGetLinkKey
// 1109  *
// 1110  * @brief   Get the application link key.
// 1111  *
// 1112  * @param   pBuf  - MT message data
// 1113  *
// 1114  * @return  void
// 1115  ***************************************************************************************************/
// 1116 void MT_ZdoGetLinkKey(uint8 *pBuf)
// 1117 {
// 1118   uint8 cmdId;
// 1119   uint8 retValue;
// 1120   uint8 *pExtAddr;
// 1121   uint8 *retBuf = NULL;
// 1122   uint8 len;
// 1123   APSME_LinkKeyData_t *pApsLinkKey = NULL;
// 1124   uint16 apsLinkKeyNvId;
// 1125 
// 1126   // parse header
// 1127   cmdId = pBuf[MT_RPC_POS_CMD1];
// 1128   pBuf += MT_RPC_FRAME_HDR_SZ;
// 1129 
// 1130   // Extended Address
// 1131   pExtAddr = pBuf;
// 1132 
// 1133   // Fetch the key NV ID
// 1134   retValue = APSME_LinkKeyNVIdGet( pExtAddr, &apsLinkKeyNvId );
// 1135 
// 1136   if (retValue == ZSuccess)
// 1137   {
// 1138     if ((pApsLinkKey = (APSME_LinkKeyData_t *)osal_mem_alloc(sizeof(APSME_LinkKeyData_t))) != NULL)
// 1139     {
// 1140       // retrieve key from NV
// 1141       if (osal_nv_read( apsLinkKeyNvId, 0,
// 1142                        sizeof(APSME_LinkKeyData_t), pApsLinkKey) != SUCCESS)
// 1143       {
// 1144         retValue = ZNwkUnknownDevice;
// 1145       }
// 1146     }
// 1147     else
// 1148     {
// 1149       retValue = ZNwkUnknownDevice;
// 1150     }
// 1151   }
// 1152 
// 1153   // Construct the response message
// 1154   len = MT_ZDO_STATUS_LEN + Z_EXTADDR_LEN + SEC_KEY_LEN; // status + extAddr + key
// 1155   if ((retBuf = (uint8 *)osal_mem_alloc(len)) != NULL)
// 1156   {
// 1157     if (retValue == ZSuccess)
// 1158     {
// 1159       // Extended Address
// 1160       osal_memcpy( &(retBuf[1]), pExtAddr, Z_EXTADDR_LEN );
// 1161 
// 1162       // Key data
// 1163       osal_memcpy( &(retBuf[1 + Z_EXTADDR_LEN]), pApsLinkKey->key, SEC_KEY_LEN );
// 1164     }
// 1165     else
// 1166     {
// 1167       // Failed case - set the rest fields to all FF
// 1168       osal_memset( &(retBuf[1]), 0xFF, Z_EXTADDR_LEN + SEC_KEY_LEN );
// 1169     }
// 1170 
// 1171     retBuf[0] = retValue;  // Status
// 1172 
// 1173     MT_BuildAndSendZToolResponse(((uint8)MT_RPC_CMD_SRSP | (uint8)MT_RPC_SYS_ZDO), cmdId, len, retBuf);
// 1174 
// 1175     // clear retBuf because it contains key data and free allocated memory
// 1176     osal_memset(retBuf, 0x00, len);
// 1177 
// 1178     osal_mem_free(retBuf);
// 1179   }
// 1180 
// 1181   // clear copy of key in RAM
// 1182   if (pApsLinkKey != NULL)
// 1183   {
// 1184     osal_memset(pApsLinkKey, 0x00, sizeof(APSME_LinkKeyData_t));
// 1185 
// 1186     osal_mem_free(pApsLinkKey);
// 1187   }
// 1188 
// 1189   return;
// 1190 }
// 1191 #endif // MT_SYS_KEY_MANAGEMENT
// 1192 
// 1193 #if defined (MT_ZDO_MGMT)
// 1194 /***************************************************************************************************
// 1195  * @fn      MT_ZdoMgmtNwkDiscRequest
// 1196  *
// 1197  * @brief   Handle a Mgmt Nwk Discovery request.
// 1198  *
// 1199  * @param   pBuf  - MT message data
// 1200  *
// 1201  * @return  void
// 1202  ***************************************************************************************************/
// 1203 void MT_ZdoMgmtNwkDiscRequest(uint8 *pBuf)
// 1204 {
// 1205   uint8 cmdId;
// 1206   uint8 retValue;
// 1207   zAddrType_t destAddr;
// 1208   uint32 scanChannels;
// 1209   uint8 scanDuration, startIndex;
// 1210 
// 1211   /* parse header */
// 1212   cmdId = pBuf[MT_RPC_POS_CMD1];
// 1213   pBuf += MT_RPC_FRAME_HDR_SZ;
// 1214 
// 1215   /* Dev address */
// 1216   destAddr.addrMode = Addr16Bit;
// 1217   destAddr.addr.shortAddr = BUILD_UINT16( pBuf[0], pBuf[1] );
// 1218   pBuf += 2;
// 1219 
// 1220   /* Scan Channels */
// 1221   scanChannels = BUILD_UINT32( pBuf[0], pBuf[1], pBuf[2], pBuf[3] );
// 1222   pBuf += 4;
// 1223 
// 1224   /* Scan Duration */
// 1225   scanDuration = *pBuf++;
// 1226 
// 1227   /* Start Index */
// 1228   startIndex = *pBuf;
// 1229 
// 1230   retValue = (uint8)ZDP_MgmtNwkDiscReq( &destAddr, scanChannels, scanDuration, startIndex, 0);
// 1231 
// 1232   MT_BuildAndSendZToolResponse(((uint8)MT_RPC_CMD_SRSP | (uint8)MT_RPC_SYS_ZDO), cmdId, 1, &retValue);
// 1233 }
// 1234 
// 1235 /***************************************************************************************************
// 1236  * @fn      MT_ZdoMgmtLqiRequest
// 1237  *
// 1238  * @brief   Handle a Mgmt Lqi request.
// 1239  *
// 1240  * @param   pBuf  - MT message data
// 1241  *
// 1242  * @return  void
// 1243  ***************************************************************************************************/
// 1244 void MT_ZdoMgmtLqiRequest(uint8 *pBuf)
// 1245 {
// 1246   uint8 cmdId;
// 1247   uint8 retValue;
// 1248   zAddrType_t destAddr;
// 1249   uint8 startIndex;
// 1250 
// 1251   /* parse header */
// 1252   cmdId = pBuf[MT_RPC_POS_CMD1];
// 1253   pBuf += MT_RPC_FRAME_HDR_SZ;
// 1254 
// 1255   /* Dev address */
// 1256   destAddr.addrMode = Addr16Bit;
// 1257   destAddr.addr.shortAddr = BUILD_UINT16( pBuf[0], pBuf[1] );
// 1258   pBuf += 2;
// 1259 
// 1260   /* Start Index */
// 1261   startIndex = *pBuf;
// 1262 
// 1263   retValue = (uint8)ZDP_MgmtLqiReq( &destAddr, startIndex, 0);
// 1264 
// 1265   MT_BuildAndSendZToolResponse(((uint8)MT_RPC_CMD_SRSP | (uint8)MT_RPC_SYS_ZDO), cmdId, 1, &retValue);
// 1266 }
// 1267 
// 1268 /***************************************************************************************************
// 1269  * @fn      MT_ZdoMgmtRtgRequest
// 1270  *
// 1271  * @brief   Handle a Mgmt Rtg request.
// 1272  *
// 1273  * @param   pBuf  - MT message data
// 1274  *
// 1275  * @return  void
// 1276  ***************************************************************************************************/
// 1277 void MT_ZdoMgmtRtgRequest(uint8 *pBuf)
// 1278 {
// 1279   uint8 cmdId;
// 1280   uint8 retValue;
// 1281   zAddrType_t destAddr;
// 1282   uint8 startIndex;
// 1283 
// 1284   /* parse header */
// 1285   cmdId = pBuf[MT_RPC_POS_CMD1];
// 1286   pBuf += MT_RPC_FRAME_HDR_SZ;
// 1287 
// 1288   /* Dev Address */
// 1289   destAddr.addrMode = Addr16Bit;
// 1290   destAddr.addr.shortAddr = BUILD_UINT16( pBuf[0], pBuf[1]);
// 1291   pBuf += 2;
// 1292 
// 1293   /* Start Index */
// 1294   startIndex = *pBuf;
// 1295 
// 1296   retValue = (byte)ZDP_MgmtRtgReq( &destAddr, startIndex, 0);
// 1297 
// 1298   MT_BuildAndSendZToolResponse(((uint8)MT_RPC_CMD_SRSP | (uint8)MT_RPC_SYS_ZDO), cmdId, 1, &retValue);
// 1299 }
// 1300 
// 1301 /***************************************************************************************************
// 1302  * @fn      MT_ZdoMgmtBindRequest
// 1303  *
// 1304  * @brief   Handle a Mgmt Bind request.
// 1305  *
// 1306  * @param   pBuf  - MT message data
// 1307  *
// 1308  * @return  void
// 1309  ***************************************************************************************************/
// 1310 void MT_ZdoMgmtBindRequest(uint8 *pBuf)
// 1311 {
// 1312   uint8 cmdId;
// 1313   uint8 retValue;
// 1314   zAddrType_t destAddr;
// 1315   uint8 startIndex;
// 1316 
// 1317   /* parse header */
// 1318   cmdId = pBuf[MT_RPC_POS_CMD1];
// 1319   pBuf += MT_RPC_FRAME_HDR_SZ;
// 1320 
// 1321   /* Dev Address */
// 1322   destAddr.addrMode = Addr16Bit;
// 1323   destAddr.addr.shortAddr = BUILD_UINT16( pBuf[0], pBuf[1] );
// 1324   pBuf += 2;
// 1325 
// 1326   /* Start Index */
// 1327   startIndex = *pBuf;
// 1328 
// 1329   retValue = (uint8)ZDP_MgmtBindReq( &destAddr, startIndex, 0);
// 1330 
// 1331   MT_BuildAndSendZToolResponse(((uint8)MT_RPC_CMD_SRSP | (uint8)MT_RPC_SYS_ZDO), cmdId, 1, &retValue);
// 1332 }
// 1333 
// 1334 /***************************************************************************************************
// 1335  * @fn      MT_ZdoMgmtLeaveRequest
// 1336  *
// 1337  * @brief   Handle a Mgmt Leave request.
// 1338  *
// 1339  * @param   pBuf  - MT message data
// 1340  *
// 1341  * @return  void
// 1342  ***************************************************************************************************/
// 1343 void MT_ZdoMgmtLeaveRequest(uint8 *pBuf)
// 1344 {
// 1345   uint8 cmdId;
// 1346   uint8 retValue;
// 1347   zAddrType_t destAddr;
// 1348   uint8 *pIEEEAddr;
// 1349   uint8 removeChildren, rejoin;
// 1350 
// 1351   /* parse header */
// 1352   cmdId = pBuf[MT_RPC_POS_CMD1];
// 1353   pBuf += MT_RPC_FRAME_HDR_SZ;
// 1354 
// 1355   /* Destination Address */
// 1356   destAddr.addrMode = Addr16Bit;
// 1357   destAddr.addr.shortAddr = BUILD_UINT16( pBuf[0], pBuf[1] );
// 1358   pBuf += 2;
// 1359 
// 1360   /* IEEE address */
// 1361   pIEEEAddr = pBuf;
// 1362   pBuf += Z_EXTADDR_LEN;
// 1363 
// 1364   /* Remove Children */
// 1365   removeChildren = *pBuf++;
// 1366 
// 1367   /* Rejoin */
// 1368   rejoin = *pBuf;
// 1369 
// 1370   retValue = (byte)ZDP_MgmtLeaveReq( &destAddr, pIEEEAddr, removeChildren, rejoin, 0);
// 1371 
// 1372   MT_BuildAndSendZToolResponse(((uint8)MT_RPC_CMD_SRSP | (uint8)MT_RPC_SYS_ZDO), cmdId, 1, &retValue);
// 1373 }
// 1374 
// 1375 
// 1376 /***************************************************************************************************
// 1377  * @fn      MT_ZdoMgmtDirectJoinRequest
// 1378  *
// 1379  * @brief   Handle a Mgmt Direct Join request.
// 1380  *
// 1381  * @param   pBuf  - MT message data
// 1382  *
// 1383  * @return  void
// 1384  ***************************************************************************************************/
// 1385 void MT_ZdoMgmtDirectJoinRequest(uint8 *pBuf)
// 1386 {
// 1387   uint8 cmdId;
// 1388   uint8 retValue;
// 1389   zAddrType_t destAddr;
// 1390   uint8 *deviceAddr;
// 1391   uint8 capInfo;
// 1392 
// 1393   /* parse header */
// 1394   cmdId = pBuf[MT_RPC_POS_CMD1];
// 1395   pBuf += MT_RPC_FRAME_HDR_SZ;
// 1396 
// 1397   /* Destination Address */
// 1398   destAddr.addrMode = Addr16Bit;
// 1399   destAddr.addr.shortAddr = BUILD_UINT16( pBuf[0], pBuf[1] );
// 1400   pBuf += 2;
// 1401 
// 1402   /* Device Address */
// 1403   deviceAddr = pBuf;
// 1404   pBuf += Z_EXTADDR_LEN;
// 1405 
// 1406   /* Capability information */
// 1407   capInfo = *pBuf;
// 1408 
// 1409   retValue = (uint8)ZDP_MgmtDirectJoinReq( &destAddr, deviceAddr, capInfo, 0);
// 1410 
// 1411   MT_BuildAndSendZToolResponse(((uint8)MT_RPC_CMD_SRSP | (uint8)MT_RPC_SYS_ZDO), cmdId, 1, &retValue);
// 1412 }
// 1413 
// 1414 /***************************************************************************************************
// 1415  * @fn      MT_ZdoMgmtPermitJoinRequest
// 1416  *
// 1417  * @brief   Handle a Mgmt Permit Join request.
// 1418  *
// 1419  * @param   pBuf  - MT message data
// 1420  *
// 1421  * @return  void
// 1422  ***************************************************************************************************/
// 1423 void MT_ZdoMgmtPermitJoinRequest(uint8 *pBuf)
// 1424 {
// 1425   uint8 cmdId;
// 1426   uint8 retValue;
// 1427   zAddrType_t destAddr;
// 1428   uint8 duration, tcSignificance;
// 1429 
// 1430   /* parse header */
// 1431   cmdId = pBuf[MT_RPC_POS_CMD1];
// 1432   pBuf += MT_RPC_FRAME_HDR_SZ;
// 1433 
// 1434   /* Destination Address */
// 1435   destAddr.addrMode = Addr16Bit;
// 1436   destAddr.addr.shortAddr = BUILD_UINT16( pBuf[0], pBuf[1] );
// 1437   pBuf += 2;
// 1438 
// 1439   /* Duration */
// 1440   duration = *pBuf++;
// 1441 
// 1442   /* Trust center significance */
// 1443   tcSignificance = *pBuf;
// 1444 
// 1445   retValue = (byte)ZDP_MgmtPermitJoinReq( &destAddr, duration, tcSignificance, 0);
// 1446 
// 1447   MT_BuildAndSendZToolResponse(((uint8)MT_RPC_CMD_SRSP | (uint8)MT_RPC_SYS_ZDO), cmdId, 1, &retValue);
// 1448 }
// 1449 
// 1450 /***************************************************************************************************
// 1451  * @fn      MT_ZdoMgmtNwkUpdateRequest
// 1452  *
// 1453  * @brief   Handle a Mgmt Nwk Update request.
// 1454  *
// 1455  * @param   pBuf  - MT message data
// 1456  *
// 1457  * @return  void
// 1458  ***************************************************************************************************/
// 1459 void MT_ZdoMgmtNwkUpdateRequest(uint8 *pBuf)
// 1460 {
// 1461   uint8 cmdId;
// 1462   uint8 retValue;
// 1463   zAddrType_t destAddr;
// 1464   uint32 channelMask;
// 1465   uint8 scanDuration, scanCount;
// 1466   uint16 nwkManagerAddr;
// 1467 
// 1468     /* parse header */
// 1469   cmdId = pBuf[MT_RPC_POS_CMD1];
// 1470   pBuf += MT_RPC_FRAME_HDR_SZ;
// 1471 
// 1472   /* Destination address */
// 1473   destAddr.addr.shortAddr = BUILD_UINT16( pBuf[0], pBuf[1] );
// 1474   pBuf += 2;
// 1475 
// 1476   /* Destination address mode */
// 1477   destAddr.addrMode = *pBuf++;
// 1478 
// 1479   channelMask = BUILD_UINT32( pBuf[0], pBuf[1], pBuf[2], pBuf[3]);
// 1480   pBuf += 4;
// 1481 
// 1482   /* Scan duration */
// 1483   scanDuration = *pBuf++;
// 1484 
// 1485   /* Scan count */
// 1486   scanCount = *pBuf++;
// 1487 
// 1488   /* NWK manager address */
// 1489   nwkManagerAddr = BUILD_UINT16( pBuf[0], pBuf[1] );
// 1490 
// 1491   /* Send the Management Network Update request */
// 1492   retValue = (uint8)ZDP_MgmtNwkUpdateReq( &destAddr, channelMask, scanDuration,
// 1493                                           scanCount, _NIB.nwkUpdateId+1, nwkManagerAddr );
// 1494 
// 1495   /*
// 1496     Since we don't recevied our own broadcast messages, we should
// 1497     send a unicast copy of the message to ourself.
// 1498   */
// 1499   if ( destAddr.addrMode == AddrBroadcast )
// 1500   {
// 1501     destAddr.addrMode = Addr16Bit;
// 1502     destAddr.addr.shortAddr = _NIB.nwkDevAddress;
// 1503     retValue = (uint8) ZDP_MgmtNwkUpdateReq( &destAddr, channelMask, scanDuration,
// 1504                                              scanCount, _NIB.nwkUpdateId+1, nwkManagerAddr );
// 1505   }
// 1506 
// 1507   MT_BuildAndSendZToolResponse(((uint8)MT_RPC_CMD_SRSP | (uint8)MT_RPC_SYS_ZDO), cmdId, 1, &retValue);
// 1508 }
// 1509 #endif /* MT_ZDO_MGMT */
// 1510 
// 1511 /***************************************************************************************************
// 1512  * @fn      MT_ZdoStartupFromApp
// 1513  *
// 1514  * @brief   Handle a Startup from App request.
// 1515  *
// 1516  * @param   pBuf  - MT message data
// 1517  *
// 1518  * @return  void
// 1519  ***************************************************************************************************/

        RSEG BANKED_CODE:CODE:NOROOT(0)
// 1520 void MT_ZdoStartupFromApp(uint8 *pBuf)
MT_ZdoStartupFromApp:
        CFI Block cfiBlock17 Using cfiCommon0
        CFI Function MT_ZdoStartupFromApp
        CODE
// 1521 {
        FUNCALL MT_ZdoStartupFromApp, ZDOInitDevice
        LOCFRAME ISTACK, 0, STACK
        LOCFRAME PSTACK, 0, STACK
        LOCFRAME XSTACK, 11, STACK
        LOCFRAME IOVERLAY, 0, STATIC
        LOCFRAME DOVERLAY, 0, STATIC
        ARGFRAME ISTACK, 0, STACK
        ARGFRAME PSTACK, 0, STACK
        ARGFRAME XSTACK, 11, STACK
        ARGFRAME IOVERLAY, 0, STATIC
        ARGFRAME DOVERLAY, 0, STATIC
        FUNCALL MT_ZdoStartupFromApp, MT_BuildAndSendZToolResponse
        LOCFRAME ISTACK, 0, STACK
        LOCFRAME PSTACK, 0, STACK
        LOCFRAME XSTACK, 11, STACK
        LOCFRAME IOVERLAY, 0, STATIC
        LOCFRAME DOVERLAY, 0, STATIC
        ARGFRAME ISTACK, 0, STACK
        ARGFRAME PSTACK, 0, STACK
        ARGFRAME XSTACK, 11, STACK
        ARGFRAME IOVERLAY, 0, STATIC
        ARGFRAME DOVERLAY, 0, STATIC
        MOV     A,#-0xa
        LCALL   ?BANKED_ENTER_XDATA
        CFI DPH0 load(1, XDATA, add(CFA_XSP16, literal(-1)))
        CFI DPL0 load(1, XDATA, add(CFA_XSP16, literal(-2)))
        CFI ?BRET_EXT load(1, XDATA, add(CFA_XSP16, literal(-3)))
        CFI ?RET_HIGH load(1, XDATA, add(CFA_XSP16, literal(-4)))
        CFI ?RET_LOW load(1, XDATA, add(CFA_XSP16, literal(-5)))
        CFI R7 load(1, XDATA, add(CFA_XSP16, literal(-6)))
        CFI V1 load(1, XDATA, add(CFA_XSP16, literal(-7)))
        CFI V0 load(1, XDATA, add(CFA_XSP16, literal(-8)))
        CFI VB load(1, XDATA, add(CFA_XSP16, literal(-9)))
        CFI R6 load(1, XDATA, add(CFA_XSP16, literal(-10)))
        CFI CFA_SP SP+0
        CFI CFA_XSP16 add(XSP16, 10)
        ; Saved register size: 10
        ; Auto size: 1
        MOV     A,#-0x1
        LCALL   ?ALLOC_XSTACK8
        CFI CFA_XSP16 add(XSP16, 11)
        MOV     A,R2
        MOV     R6,A
        MOV     A,R3
        MOV     R7,A
// 1522   uint8 cmd0, cmd1, retValue;
// 1523 
// 1524   /* parse header */
// 1525   cmd0 = pBuf[MT_RPC_POS_CMD0];
        MOV     DPL,R6
        MOV     DPH,R7
        INC     DPTR
        MOVX    A,@DPTR
        MOV     ?V0 + 1,A
// 1526   cmd1 = pBuf[MT_RPC_POS_CMD1];
        MOV     DPL,R6
        MOV     DPH,R7
        INC     DPTR
        INC     DPTR
        MOVX    A,@DPTR
        MOV     ?V0 + 0,A
// 1527   pBuf += MT_RPC_FRAME_HDR_SZ;
        MOV     A,R6
        ADD     A,#0x3
        MOV     R6,A
        MOV     A,R7
        ADDC    A,#0x0
        MOV     R7,A
// 1528 
// 1529   retValue = ZDOInitDevice(100);
        ; Setup parameters for call to function ZDOInitDevice
        MOV     R2,#0x64
        MOV     R3,#0x0
        LCALL   ??ZDOInitDevice?relay
        MOV     A,R1
        MOV     DPL,?XSP + 0
        MOV     DPH,?XSP + 1
        MOVX    @DPTR,A
// 1530 
// 1531   if (MT_RPC_CMD_SREQ == (cmd0 & MT_RPC_CMD_TYPE_MASK))
        MOV     A,#-0x20
        ANL     A,?V0 + 1
        XRL     A,#0x20
        JNZ     ??MT_ZdoStartupFromApp_0
// 1532   {
// 1533     MT_BuildAndSendZToolResponse(((uint8)MT_RPC_CMD_SRSP|(uint8)MT_RPC_SYS_ZDO), cmd1,1, &retValue);
        ; Setup parameters for call to function MT_BuildAndSendZToolResponse
        MOV     DPL,?XSP + 0
        MOV     DPH,?XSP + 1
        MOV     R4,DPL
        MOV     R5,DPH
        MOV     R3,#0x1
        MOV     R2,?V0 + 0
        MOV     R1,#0x65
        LCALL   ??MT_BuildAndSendZToolResponse?relay
// 1534   }
// 1535 }
??MT_ZdoStartupFromApp_0:
        MOV     A,#0x1
        LCALL   ?DEALLOC_XSTACK8
        CFI CFA_XSP16 add(XSP16, 10)
        MOV     R7,#0x2
        LJMP    ?BANKED_LEAVE_XDATA
        CFI EndBlock cfiBlock17
// 1536 
// 1537 
// 1538 /***************************************************************************************************
// 1539  * @fn      MT_ZdoNetworkDiscoveryReq
// 1540  *
// 1541  * @brief   Handle a ZDO Network Discovery request.
// 1542  *
// 1543  * @param   pBuf  - MT message data
// 1544  *
// 1545  * @return  void
// 1546  ***************************************************************************************************/

        RSEG BANKED_CODE:CODE:NOROOT(0)
// 1547 void MT_ZdoNetworkDiscoveryReq(uint8 *pBuf)
MT_ZdoNetworkDiscoveryReq:
        CFI Block cfiBlock18 Using cfiCommon0
        CFI Function MT_ZdoNetworkDiscoveryReq
        CODE
// 1548 {
        FUNCALL MT_ZdoNetworkDiscoveryReq, osal_build_uint32
        LOCFRAME ISTACK, 0, STACK
        LOCFRAME PSTACK, 0, STACK
        LOCFRAME XSTACK, 17, STACK
        LOCFRAME IOVERLAY, 0, STATIC
        LOCFRAME DOVERLAY, 0, STATIC
        ARGFRAME ISTACK, 0, STACK
        ARGFRAME PSTACK, 0, STACK
        ARGFRAME XSTACK, 17, STACK
        ARGFRAME IOVERLAY, 0, STATIC
        ARGFRAME DOVERLAY, 0, STATIC
        FUNCALL MT_ZdoNetworkDiscoveryReq, ZDApp_NetworkDiscoveryReq
        LOCFRAME ISTACK, 0, STACK
        LOCFRAME PSTACK, 0, STACK
        LOCFRAME XSTACK, 17, STACK
        LOCFRAME IOVERLAY, 0, STATIC
        LOCFRAME DOVERLAY, 0, STATIC
        ARGFRAME ISTACK, 0, STACK
        ARGFRAME PSTACK, 0, STACK
        ARGFRAME XSTACK, 17, STACK
        ARGFRAME IOVERLAY, 0, STATIC
        ARGFRAME DOVERLAY, 0, STATIC
        FUNCALL MT_ZdoNetworkDiscoveryReq, ZDO_RegisterForZdoCB
        LOCFRAME ISTACK, 0, STACK
        LOCFRAME PSTACK, 0, STACK
        LOCFRAME XSTACK, 17, STACK
        LOCFRAME IOVERLAY, 0, STATIC
        LOCFRAME DOVERLAY, 0, STATIC
        ARGFRAME ISTACK, 0, STACK
        ARGFRAME PSTACK, 0, STACK
        ARGFRAME XSTACK, 17, STACK
        ARGFRAME IOVERLAY, 0, STATIC
        ARGFRAME DOVERLAY, 0, STATIC
        FUNCALL MT_ZdoNetworkDiscoveryReq, ZDO_RegisterForZdoCB
        LOCFRAME ISTACK, 0, STACK
        LOCFRAME PSTACK, 0, STACK
        LOCFRAME XSTACK, 17, STACK
        LOCFRAME IOVERLAY, 0, STATIC
        LOCFRAME DOVERLAY, 0, STATIC
        ARGFRAME ISTACK, 0, STACK
        ARGFRAME PSTACK, 0, STACK
        ARGFRAME XSTACK, 17, STACK
        ARGFRAME IOVERLAY, 0, STATIC
        ARGFRAME DOVERLAY, 0, STATIC
        FUNCALL MT_ZdoNetworkDiscoveryReq, MT_BuildAndSendZToolResponse
        LOCFRAME ISTACK, 0, STACK
        LOCFRAME PSTACK, 0, STACK
        LOCFRAME XSTACK, 17, STACK
        LOCFRAME IOVERLAY, 0, STATIC
        LOCFRAME DOVERLAY, 0, STATIC
        ARGFRAME ISTACK, 0, STACK
        ARGFRAME PSTACK, 0, STACK
        ARGFRAME XSTACK, 17, STACK
        ARGFRAME IOVERLAY, 0, STATIC
        ARGFRAME DOVERLAY, 0, STATIC
        MOV     A,#-0x10
        LCALL   ?BANKED_ENTER_XDATA
        CFI DPH0 load(1, XDATA, add(CFA_XSP16, literal(-1)))
        CFI DPL0 load(1, XDATA, add(CFA_XSP16, literal(-2)))
        CFI ?BRET_EXT load(1, XDATA, add(CFA_XSP16, literal(-3)))
        CFI ?RET_HIGH load(1, XDATA, add(CFA_XSP16, literal(-4)))
        CFI ?RET_LOW load(1, XDATA, add(CFA_XSP16, literal(-5)))
        CFI R7 load(1, XDATA, add(CFA_XSP16, literal(-6)))
        CFI V7 load(1, XDATA, add(CFA_XSP16, literal(-7)))
        CFI V6 load(1, XDATA, add(CFA_XSP16, literal(-8)))
        CFI V5 load(1, XDATA, add(CFA_XSP16, literal(-9)))
        CFI V4 load(1, XDATA, add(CFA_XSP16, literal(-10)))
        CFI V3 load(1, XDATA, add(CFA_XSP16, literal(-11)))
        CFI V2 load(1, XDATA, add(CFA_XSP16, literal(-12)))
        CFI V1 load(1, XDATA, add(CFA_XSP16, literal(-13)))
        CFI V0 load(1, XDATA, add(CFA_XSP16, literal(-14)))
        CFI VB load(1, XDATA, add(CFA_XSP16, literal(-15)))
        CFI R6 load(1, XDATA, add(CFA_XSP16, literal(-16)))
        CFI CFA_SP SP+0
        CFI CFA_XSP16 add(XSP16, 16)
        ; Saved register size: 16
        ; Auto size: 1
        MOV     A,#-0x1
        LCALL   ?ALLOC_XSTACK8
        CFI CFA_XSP16 add(XSP16, 17)
        MOV     A,R2
        MOV     R6,A
        MOV     A,R3
        MOV     R7,A
// 1549   uint8  retValue = ZFailure;
        MOV     DPL,?XSP + 0
        MOV     DPH,?XSP + 1
        MOV     A,#0x1
        MOVX    @DPTR,A
// 1550   uint8  cmdId;
// 1551   uint32 scanChannels;
// 1552 
// 1553   /* parse header */
// 1554   cmdId = pBuf[MT_RPC_POS_CMD1];
        MOV     DPL,R6
        MOV     DPH,R7
        INC     DPTR
        INC     DPTR
        MOVX    A,@DPTR
        MOV     ?V0 + 0,A
// 1555   pBuf += MT_RPC_FRAME_HDR_SZ;
        MOV     A,R6
        ADD     A,#0x3
        MOV     R6,A
        MOV     A,R7
        ADDC    A,#0x0
        MOV     R7,A
// 1556 
// 1557   /* Packet format */
// 1558   /* scan channels (4) | scan duration (1) */
// 1559 
// 1560   /* Scan channels */
// 1561   scanChannels = osal_build_uint32(pBuf, 4);
        ; Setup parameters for call to function osal_build_uint32
        MOV     R1,#0x4
        MOV     A,R6
        MOV     R2,A
        MOV     A,R7
        MOV     R3,A
        LCALL   ??osal_build_uint32?relay
        MOV     ?V0 + 4,R2
        MOV     ?V0 + 5,R3
        MOV     ?V0 + 6,R4
        MOV     ?V0 + 7,R5
// 1562   pBuf += 4;
        MOV     A,R6
        ADD     A,#0x4
        MOV     R6,A
        MOV     A,R7
        ADDC    A,#0x0
        MOV     R7,A
// 1563 
// 1564   retValue = ZDApp_NetworkDiscoveryReq(scanChannels, *pBuf);
        ; Setup parameters for call to function ZDApp_NetworkDiscoveryReq
        MOV     DPL,R6
        MOV     DPH,R7
        MOVX    A,@DPTR
        MOV     R1,A
        MOV     R2,?V0 + 4
        MOV     R3,?V0 + 5
        MOV     R4,?V0 + 6
        MOV     R5,?V0 + 7
        LCALL   ??ZDApp_NetworkDiscoveryReq?relay
        MOV     A,R1
        MOV     DPL,?XSP + 0
        MOV     DPH,?XSP + 1
        MOVX    @DPTR,A
// 1565 
// 1566   // Register ZDO callback for MT to handle the network discovery confirm
// 1567   // and beacon notification confirm
// 1568   ZDO_RegisterForZdoCB( ZDO_NWK_DISCOVERY_CNF_CBID, &MT_ZdoNwkDiscoveryCnfCB );
        ; Setup parameters for call to function ZDO_RegisterForZdoCB
        MOV     R2,#??MT_ZdoNwkDiscoveryCnfCB?relay & 0xff
        MOV     R3,#(??MT_ZdoNwkDiscoveryCnfCB?relay >> 8) & 0xff
        MOV     R1,#0x2
        LCALL   ??ZDO_RegisterForZdoCB?relay
        MOV     A,R1
// 1569   ZDO_RegisterForZdoCB( ZDO_BEACON_NOTIFY_IND_CBID, &MT_ZdoBeaconIndCB );
        ; Setup parameters for call to function ZDO_RegisterForZdoCB
        MOV     R2,#??MT_ZdoBeaconIndCB?relay & 0xff
        MOV     R3,#(??MT_ZdoBeaconIndCB?relay >> 8) & 0xff
        MOV     R1,#0x3
        LCALL   ??ZDO_RegisterForZdoCB?relay
        MOV     A,R1
// 1570 
// 1571   /* Build and send back the response */
// 1572   MT_BuildAndSendZToolResponse(((uint8)MT_RPC_CMD_SRSP | (uint8)MT_RPC_SYS_ZDO), cmdId, 1, &retValue );
        ; Setup parameters for call to function MT_BuildAndSendZToolResponse
        MOV     DPL,?XSP + 0
        MOV     DPH,?XSP + 1
        MOV     R4,DPL
        MOV     R5,DPH
        MOV     R3,#0x1
        MOV     R2,?V0 + 0
        MOV     R1,#0x65
        LCALL   ??MT_BuildAndSendZToolResponse?relay
// 1573 }
        MOV     A,#0x1
        LCALL   ?DEALLOC_XSTACK8
        CFI CFA_XSP16 add(XSP16, 16)
        MOV     R7,#0x8
        LJMP    ?BANKED_LEAVE_XDATA
        CFI EndBlock cfiBlock18
// 1574 
// 1575 
// 1576 /***************************************************************************************************
// 1577  * @fn      MT_ZdoJoinReq
// 1578  *
// 1579  * @brief   Handle a ZDO Join request.
// 1580  *
// 1581  * @param   pBuf  - MT message data
// 1582  *
// 1583  * @return  void
// 1584  ***************************************************************************************************/

        RSEG BANKED_CODE:CODE:NOROOT(0)
// 1585 void MT_ZdoJoinReq(uint8 *pBuf)
MT_ZdoJoinReq:
        CFI Block cfiBlock19 Using cfiCommon0
        CFI Function MT_ZdoJoinReq
        CODE
// 1586 {
        FUNCALL MT_ZdoJoinReq, ZDApp_JoinReq
        LOCFRAME ISTACK, 0, STACK
        LOCFRAME PSTACK, 0, STACK
        LOCFRAME XSTACK, 17, STACK
        LOCFRAME IOVERLAY, 0, STATIC
        LOCFRAME DOVERLAY, 0, STATIC
        ARGFRAME ISTACK, 0, STACK
        ARGFRAME PSTACK, 0, STACK
        ARGFRAME XSTACK, 17, STACK
        ARGFRAME IOVERLAY, 0, STATIC
        ARGFRAME DOVERLAY, 0, STATIC
        FUNCALL MT_ZdoJoinReq, ZDO_RegisterForZdoCB
        LOCFRAME ISTACK, 0, STACK
        LOCFRAME PSTACK, 0, STACK
        LOCFRAME XSTACK, 13, STACK
        LOCFRAME IOVERLAY, 0, STATIC
        LOCFRAME DOVERLAY, 0, STATIC
        ARGFRAME ISTACK, 0, STACK
        ARGFRAME PSTACK, 0, STACK
        ARGFRAME XSTACK, 13, STACK
        ARGFRAME IOVERLAY, 0, STATIC
        ARGFRAME DOVERLAY, 0, STATIC
        FUNCALL MT_ZdoJoinReq, MT_BuildAndSendZToolResponse
        LOCFRAME ISTACK, 0, STACK
        LOCFRAME PSTACK, 0, STACK
        LOCFRAME XSTACK, 13, STACK
        LOCFRAME IOVERLAY, 0, STATIC
        LOCFRAME DOVERLAY, 0, STATIC
        ARGFRAME ISTACK, 0, STACK
        ARGFRAME PSTACK, 0, STACK
        ARGFRAME XSTACK, 13, STACK
        ARGFRAME IOVERLAY, 0, STATIC
        ARGFRAME DOVERLAY, 0, STATIC
        MOV     A,#-0xc
        LCALL   ?BANKED_ENTER_XDATA
        CFI DPH0 load(1, XDATA, add(CFA_XSP16, literal(-1)))
        CFI DPL0 load(1, XDATA, add(CFA_XSP16, literal(-2)))
        CFI ?BRET_EXT load(1, XDATA, add(CFA_XSP16, literal(-3)))
        CFI ?RET_HIGH load(1, XDATA, add(CFA_XSP16, literal(-4)))
        CFI ?RET_LOW load(1, XDATA, add(CFA_XSP16, literal(-5)))
        CFI R7 load(1, XDATA, add(CFA_XSP16, literal(-6)))
        CFI V3 load(1, XDATA, add(CFA_XSP16, literal(-7)))
        CFI V2 load(1, XDATA, add(CFA_XSP16, literal(-8)))
        CFI V1 load(1, XDATA, add(CFA_XSP16, literal(-9)))
        CFI V0 load(1, XDATA, add(CFA_XSP16, literal(-10)))
        CFI VB load(1, XDATA, add(CFA_XSP16, literal(-11)))
        CFI R6 load(1, XDATA, add(CFA_XSP16, literal(-12)))
        CFI CFA_SP SP+0
        CFI CFA_XSP16 add(XSP16, 12)
        ; Saved register size: 12
        ; Auto size: 1
        MOV     A,#-0x1
        LCALL   ?ALLOC_XSTACK8
        CFI CFA_XSP16 add(XSP16, 13)
        MOV     A,R2
        MOV     R6,A
        MOV     A,R3
        MOV     R7,A
// 1587   uint8  retValue = ZFailure;
        MOV     DPL,?XSP + 0
        MOV     DPH,?XSP + 1
        MOV     A,#0x1
        MOVX    @DPTR,A
// 1588   uint8  cmdId;
// 1589   uint16 panId;
// 1590   uint16 chosenParent;
// 1591 
// 1592   /* parse header */
// 1593   cmdId = pBuf[MT_RPC_POS_CMD1];
        MOV     DPL,R6
        MOV     DPH,R7
        INC     DPTR
        INC     DPTR
        MOVX    A,@DPTR
        MOV     ?V0 + 0,A
// 1594   pBuf += MT_RPC_FRAME_HDR_SZ;
        MOV     A,R6
        ADD     A,#0x3
        MOV     R6,A
        MOV     A,R7
        ADDC    A,#0x0
        MOV     R7,A
// 1595 
// 1596   /* Packet format */
// 1597   /* channel     (1) | panID (2) | extendedPanID (8) | chosenParent (2) |
// 1598    * parentDepth (1) | stackProfile  (1)
// 1599    */
// 1600 
// 1601   panId        = BUILD_UINT16(pBuf[1], pBuf[2]);
        MOV     DPL,R6
        MOV     DPH,R7
        INC     DPTR
        MOVX    A,@DPTR
        MOV     R2,A
        MOV     R3,#0x0
        MOV     DPL,R6
        MOV     DPH,R7
        INC     DPTR
        INC     DPTR
        MOVX    A,@DPTR
        MOV     R0,A
        MOV     R1,#0x0
        CLR     A
        XCH     A,R0
        MOV     R1,A
        MOV     A,R2
        ADD     A,R0
        MOV     R2,A
        MOV     A,R3
        ADDC    A,R1
        MOV     R3,A
// 1602   chosenParent = BUILD_UINT16(pBuf[11], pBuf[12]);
        MOV     A,R6
        ADD     A,#0xb
        MOV     DPL,A
        MOV     A,R7
        ADDC    A,#0x0
        MOV     DPH,A
        MOVX    A,@DPTR
        MOV     R4,A
        MOV     R5,#0x0
        MOV     A,R6
        ADD     A,#0xc
        MOV     DPL,A
        MOV     A,R7
        ADDC    A,#0x0
        MOV     DPH,A
        MOVX    A,@DPTR
        MOV     R0,A
        MOV     R1,#0x0
        CLR     A
        XCH     A,R0
        MOV     R1,A
        MOV     A,R4
        ADD     A,R0
        MOV     ?V0 + 2,A
        MOV     A,R5
        ADDC    A,R1
        MOV     ?V0 + 3,A
// 1603 
// 1604   retValue = ZDApp_JoinReq(pBuf[0], panId, &(pBuf[3]), chosenParent, pBuf[13], pBuf[14]);
        ; Setup parameters for call to function ZDApp_JoinReq
        MOV     A,R6
        ADD     A,#0xe
        MOV     DPL,A
        MOV     A,R7
        ADDC    A,#0x0
        MOV     DPH,A
        MOVX    A,@DPTR
        MOV     ?V0 + 1,A
        MOV     R0,#?V0 + 1
        LCALL   ?PUSH_XSTACK_I_ONE
        CFI CFA_XSP16 add(XSP16, 14)
        MOV     A,R6
        ADD     A,#0xd
        MOV     DPL,A
        MOV     A,R7
        ADDC    A,#0x0
        MOV     DPH,A
        MOVX    A,@DPTR
        MOV     ?V0 + 1,A
        MOV     R0,#?V0 + 1
        LCALL   ?PUSH_XSTACK_I_ONE
        CFI CFA_XSP16 add(XSP16, 15)
        MOV     R0,#?V0 + 2
        LCALL   ?PUSH_XSTACK_I_TWO
        CFI CFA_XSP16 add(XSP16, 17)
        MOV     A,R6
        ADD     A,#0x3
        MOV     R4,A
        MOV     A,R7
        ADDC    A,#0x0
        MOV     R5,A
        MOV     DPL,R6
        MOV     DPH,R7
        MOVX    A,@DPTR
        MOV     R1,A
        LCALL   ??ZDApp_JoinReq?relay
        MOV     A,#0x4
        LCALL   ?DEALLOC_XSTACK8
        CFI CFA_XSP16 add(XSP16, 13)
        MOV     A,R1
        MOV     DPL,?XSP + 0
        MOV     DPH,?XSP + 1
        MOVX    @DPTR,A
// 1605 
// 1606   /* Register for MT to receive Join Confirm */
// 1607   ZDO_RegisterForZdoCB( ZDO_JOIN_CNF_CBID, &MT_ZdoJoinCnfCB );
        ; Setup parameters for call to function ZDO_RegisterForZdoCB
        MOV     R2,#??MT_ZdoJoinCnfCB?relay & 0xff
        MOV     R3,#(??MT_ZdoJoinCnfCB?relay >> 8) & 0xff
        MOV     R1,#0x4
        LCALL   ??ZDO_RegisterForZdoCB?relay
        MOV     A,R1
// 1608 
// 1609   /* Build and send back the response */
// 1610   MT_BuildAndSendZToolResponse(((uint8)MT_RPC_CMD_SRSP | (uint8)MT_RPC_SYS_ZDO), cmdId, 1, &retValue );
        ; Setup parameters for call to function MT_BuildAndSendZToolResponse
        MOV     DPL,?XSP + 0
        MOV     DPH,?XSP + 1
        MOV     R4,DPL
        MOV     R5,DPH
        MOV     R3,#0x1
        MOV     R2,?V0 + 0
        MOV     R1,#0x65
        LCALL   ??MT_BuildAndSendZToolResponse?relay
// 1611 
// 1612 }
        MOV     A,#0x1
        LCALL   ?DEALLOC_XSTACK8
        CFI CFA_XSP16 add(XSP16, 12)
        MOV     R7,#0x4
        LJMP    ?BANKED_LEAVE_XDATA
        CFI EndBlock cfiBlock19
// 1613 
// 1614 /***************************************************************************************************
// 1615  * @fn          MT_ZdoNwkDiscoveryCnfCB
// 1616  *
// 1617  * @brief       Send an indication to inform host device the completion of
// 1618  *              network discovery scan
// 1619  *
// 1620  * @param       pStr - pointer to a parameter and a structure of parameters
// 1621  *
// 1622  * @return      void
// 1623  ***************************************************************************************************/

        RSEG BANKED_CODE:CODE:NOROOT(0)
// 1624 void *MT_ZdoNwkDiscoveryCnfCB ( void *pStr )
MT_ZdoNwkDiscoveryCnfCB:
        CFI Block cfiBlock20 Using cfiCommon0
        CFI Function MT_ZdoNwkDiscoveryCnfCB
        CODE
// 1625 {
        FUNCALL MT_ZdoNwkDiscoveryCnfCB, ZDO_DeregisterForZdoCB
        LOCFRAME ISTACK, 0, STACK
        LOCFRAME PSTACK, 0, STACK
        LOCFRAME XSTACK, 9, STACK
        LOCFRAME IOVERLAY, 0, STATIC
        LOCFRAME DOVERLAY, 0, STATIC
        ARGFRAME ISTACK, 0, STACK
        ARGFRAME PSTACK, 0, STACK
        ARGFRAME XSTACK, 9, STACK
        ARGFRAME IOVERLAY, 0, STATIC
        ARGFRAME DOVERLAY, 0, STATIC
        FUNCALL MT_ZdoNwkDiscoveryCnfCB, ZDO_DeregisterForZdoCB
        LOCFRAME ISTACK, 0, STACK
        LOCFRAME PSTACK, 0, STACK
        LOCFRAME XSTACK, 9, STACK
        LOCFRAME IOVERLAY, 0, STATIC
        LOCFRAME DOVERLAY, 0, STATIC
        ARGFRAME ISTACK, 0, STACK
        ARGFRAME PSTACK, 0, STACK
        ARGFRAME XSTACK, 9, STACK
        ARGFRAME IOVERLAY, 0, STATIC
        ARGFRAME DOVERLAY, 0, STATIC
        FUNCALL MT_ZdoNwkDiscoveryCnfCB, MT_ZdoBeaconIndCB
        LOCFRAME ISTACK, 0, STACK
        LOCFRAME PSTACK, 0, STACK
        LOCFRAME XSTACK, 9, STACK
        LOCFRAME IOVERLAY, 0, STATIC
        LOCFRAME DOVERLAY, 0, STATIC
        ARGFRAME ISTACK, 0, STACK
        ARGFRAME PSTACK, 0, STACK
        ARGFRAME XSTACK, 9, STACK
        ARGFRAME IOVERLAY, 0, STATIC
        ARGFRAME DOVERLAY, 0, STATIC
        FUNCALL MT_ZdoNwkDiscoveryCnfCB, MT_BuildAndSendZToolResponse
        LOCFRAME ISTACK, 0, STACK
        LOCFRAME PSTACK, 0, STACK
        LOCFRAME XSTACK, 9, STACK
        LOCFRAME IOVERLAY, 0, STATIC
        LOCFRAME DOVERLAY, 0, STATIC
        ARGFRAME ISTACK, 0, STACK
        ARGFRAME PSTACK, 0, STACK
        ARGFRAME XSTACK, 9, STACK
        ARGFRAME IOVERLAY, 0, STATIC
        ARGFRAME DOVERLAY, 0, STATIC
        MOV     A,#-0x9
        LCALL   ?BANKED_ENTER_XDATA
        CFI DPH0 load(1, XDATA, add(CFA_XSP16, literal(-1)))
        CFI DPL0 load(1, XDATA, add(CFA_XSP16, literal(-2)))
        CFI ?BRET_EXT load(1, XDATA, add(CFA_XSP16, literal(-3)))
        CFI ?RET_HIGH load(1, XDATA, add(CFA_XSP16, literal(-4)))
        CFI ?RET_LOW load(1, XDATA, add(CFA_XSP16, literal(-5)))
        CFI R7 load(1, XDATA, add(CFA_XSP16, literal(-6)))
        CFI V0 load(1, XDATA, add(CFA_XSP16, literal(-7)))
        CFI VB load(1, XDATA, add(CFA_XSP16, literal(-8)))
        CFI R6 load(1, XDATA, add(CFA_XSP16, literal(-9)))
        CFI CFA_SP SP+0
        CFI CFA_XSP16 add(XSP16, 9)
        ; Saved register size: 9
        ; Auto size: 0
        MOV     A,R2
        MOV     R6,A
        MOV     A,R3
        MOV     R7,A
// 1626   /* pStr: status (uint8) */
// 1627   /* Packet Format */
// 1628   /* Status (1) */
// 1629 
// 1630   // Scan completed. De-register the callback with ZDO
// 1631   ZDO_DeregisterForZdoCB( ZDO_NWK_DISCOVERY_CNF_CBID );
        ; Setup parameters for call to function ZDO_DeregisterForZdoCB
        MOV     R1,#0x2
        LCALL   ??ZDO_DeregisterForZdoCB?relay
        MOV     A,R1
// 1632   ZDO_DeregisterForZdoCB( ZDO_BEACON_NOTIFY_IND_CBID );
        ; Setup parameters for call to function ZDO_DeregisterForZdoCB
        MOV     R1,#0x3
        LCALL   ??ZDO_DeregisterForZdoCB?relay
        MOV     A,R1
// 1633 
// 1634   // Send the buffered beacon indication
// 1635   MT_ZdoBeaconIndCB ( NULL );
        ; Setup parameters for call to function MT_ZdoBeaconIndCB
        MOV     R2,#0x0
        MOV     R3,#0x0
        LCALL   ??MT_ZdoBeaconIndCB?relay
// 1636 
// 1637   MT_BuildAndSendZToolResponse(((uint8)MT_RPC_CMD_AREQ | (uint8)MT_RPC_SYS_ZDO),
// 1638                                          MT_ZDO_NWK_DISCOVERY_CNF, 1, pStr);
        ; Setup parameters for call to function MT_BuildAndSendZToolResponse
        MOV     A,R6
        MOV     R4,A
        MOV     A,R7
        MOV     R5,A
        MOV     R3,#0x1
        MOV     R2,#-0x39
        MOV     R1,#0x45
        LCALL   ??MT_BuildAndSendZToolResponse?relay
// 1639   return NULL;
        MOV     R2,#0x0
        MOV     R3,#0x0
        MOV     R7,#0x1
        LJMP    ?BANKED_LEAVE_XDATA
        CFI EndBlock cfiBlock20
// 1640 }
// 1641 
// 1642 
// 1643 
// 1644 /***************************************************************************************************
// 1645  * @fn          MT_ZdoBeaconIndCB
// 1646  *
// 1647  * @brief       Send an indication to host device of a beacon notification
// 1648  *
// 1649  * @param       pStr -  pointer to a parameter and a structure of parameters
// 1650  *
// 1651  * @return      void
// 1652  ***************************************************************************************************/

        RSEG BANKED_CODE:CODE:NOROOT(0)
// 1653 void *MT_ZdoBeaconIndCB ( void *pStr )
MT_ZdoBeaconIndCB:
        CFI Block cfiBlock21 Using cfiCommon0
        CFI Function MT_ZdoBeaconIndCB
        CODE
// 1654 {
        FUNCALL MT_ZdoBeaconIndCB, osal_mem_alloc
        LOCFRAME ISTACK, 0, STACK
        LOCFRAME PSTACK, 0, STACK
        LOCFRAME XSTACK, 11, STACK
        LOCFRAME IOVERLAY, 0, STATIC
        LOCFRAME DOVERLAY, 0, STATIC
        ARGFRAME ISTACK, 0, STACK
        ARGFRAME PSTACK, 0, STACK
        ARGFRAME XSTACK, 11, STACK
        ARGFRAME IOVERLAY, 0, STATIC
        ARGFRAME DOVERLAY, 0, STATIC
        FUNCALL MT_ZdoBeaconIndCB, osal_memcpy
        LOCFRAME ISTACK, 0, STACK
        LOCFRAME PSTACK, 0, STACK
        LOCFRAME XSTACK, 14, STACK
        LOCFRAME IOVERLAY, 0, STATIC
        LOCFRAME DOVERLAY, 0, STATIC
        ARGFRAME ISTACK, 0, STACK
        ARGFRAME PSTACK, 0, STACK
        ARGFRAME XSTACK, 14, STACK
        ARGFRAME IOVERLAY, 0, STATIC
        ARGFRAME DOVERLAY, 0, STATIC
        FUNCALL MT_ZdoBeaconIndCB, MT_BuildAndSendZToolResponse
        LOCFRAME ISTACK, 0, STACK
        LOCFRAME PSTACK, 0, STACK
        LOCFRAME XSTACK, 11, STACK
        LOCFRAME IOVERLAY, 0, STATIC
        LOCFRAME DOVERLAY, 0, STATIC
        ARGFRAME ISTACK, 0, STACK
        ARGFRAME PSTACK, 0, STACK
        ARGFRAME XSTACK, 11, STACK
        ARGFRAME IOVERLAY, 0, STATIC
        ARGFRAME DOVERLAY, 0, STATIC
        FUNCALL MT_ZdoBeaconIndCB, MT_BuildAndSendZToolResponse
        LOCFRAME ISTACK, 0, STACK
        LOCFRAME PSTACK, 0, STACK
        LOCFRAME XSTACK, 11, STACK
        LOCFRAME IOVERLAY, 0, STATIC
        LOCFRAME DOVERLAY, 0, STATIC
        ARGFRAME ISTACK, 0, STACK
        ARGFRAME PSTACK, 0, STACK
        ARGFRAME XSTACK, 11, STACK
        ARGFRAME IOVERLAY, 0, STATIC
        ARGFRAME DOVERLAY, 0, STATIC
        FUNCALL MT_ZdoBeaconIndCB, osal_mem_free
        LOCFRAME ISTACK, 0, STACK
        LOCFRAME PSTACK, 0, STACK
        LOCFRAME XSTACK, 11, STACK
        LOCFRAME IOVERLAY, 0, STATIC
        LOCFRAME DOVERLAY, 0, STATIC
        ARGFRAME ISTACK, 0, STACK
        ARGFRAME PSTACK, 0, STACK
        ARGFRAME XSTACK, 11, STACK
        ARGFRAME IOVERLAY, 0, STATIC
        ARGFRAME DOVERLAY, 0, STATIC
        MOV     A,#-0xb
        LCALL   ?BANKED_ENTER_XDATA
        CFI DPH0 load(1, XDATA, add(CFA_XSP16, literal(-1)))
        CFI DPL0 load(1, XDATA, add(CFA_XSP16, literal(-2)))
        CFI ?BRET_EXT load(1, XDATA, add(CFA_XSP16, literal(-3)))
        CFI ?RET_HIGH load(1, XDATA, add(CFA_XSP16, literal(-4)))
        CFI ?RET_LOW load(1, XDATA, add(CFA_XSP16, literal(-5)))
        CFI R7 load(1, XDATA, add(CFA_XSP16, literal(-6)))
        CFI V2 load(1, XDATA, add(CFA_XSP16, literal(-7)))
        CFI V1 load(1, XDATA, add(CFA_XSP16, literal(-8)))
        CFI V0 load(1, XDATA, add(CFA_XSP16, literal(-9)))
        CFI VB load(1, XDATA, add(CFA_XSP16, literal(-10)))
        CFI R6 load(1, XDATA, add(CFA_XSP16, literal(-11)))
        CFI CFA_SP SP+0
        CFI CFA_XSP16 add(XSP16, 11)
        ; Saved register size: 11
        ; Auto size: 0
// 1655   zdoBeaconInd_t *pBeacon = pStr;
        MOV     A,R2
        MOV     R6,A
        MOV     A,R3
        MOV     R7,A
// 1656   uint8 *pTmp;
// 1657 
// 1658   /* Packet Format */
// 1659   /* devCnt (1) | device #1 (21) | device #2 (21) |... | device #n (21) */
// 1660 
// 1661   if( pStr != NULL)
        MOV     A,R2
        ORL     A,R3
        JNZ     $+5
        LJMP    ??MT_ZdoBeaconIndCB_0 & 0xFFFF
// 1662   {
// 1663     if( pBeaconIndBuf == NULL )
        MOV     DPTR,#pBeaconIndBuf
        MOVX    A,@DPTR
        MOV     R0,A
        INC     DPTR
        MOVX    A,@DPTR
        MOV     R1,A
        MOV     A,R0
        ORL     A,R1
        JNZ     ??MT_ZdoBeaconIndCB_1
// 1664     {
// 1665       // If pBeaconIndBuf has not been allocated yet
// 1666       // allocate memory now with MAX_UART_TX_BUFF
// 1667       if( NULL == (pBeaconIndBuf = (uint8 *)osal_mem_alloc(MT_ZDO_BEACON_IND_PACK_LEN)))
        ; Setup parameters for call to function osal_mem_alloc
        MOV     R2,#0x7b
        MOV     R3,#0x0
        LCALL   ??osal_mem_alloc?relay
        MOV     ?V0 + 0,R2
        MOV     ?V0 + 1,R3
        MOV     R0,?V0 + 0
        MOV     R1,?V0 + 1
        MOV     DPTR,#pBeaconIndBuf
        MOV     A,R0
        MOVX    @DPTR,A
        INC     DPTR
        MOV     A,R1
        MOVX    @DPTR,A
        MOV     A,R0
        ORL     A,R1
        JNZ     ??MT_ZdoBeaconIndCB_2
// 1668       {
// 1669         // Memory failure
// 1670         return NULL;
        MOV     R2,#0x0
        MOV     R3,#0x0
        LJMP    ??MT_ZdoBeaconIndCB_3 & 0xFFFF
// 1671       }
// 1672       pBeaconIndBuf[0] = 0; // First byte is devCnt. Initialize to 0.
??MT_ZdoBeaconIndCB_2:
        MOV     DPTR,#pBeaconIndBuf
        MOVX    A,@DPTR
        MOV     R0,A
        INC     DPTR
        MOVX    A,@DPTR
        MOV     DPH,A
        MOV     DPL,R0
        MOV     A,#0x0
        MOVX    @DPTR,A
// 1673     }
// 1674 
// 1675     // Fill in the buffer with the beacon indication
// 1676     pTmp = pBeaconIndBuf + (1 + pBeaconIndBuf[0] * MT_ZDO_BEACON_IND_LEN);
??MT_ZdoBeaconIndCB_1:
        MOV     DPTR,#pBeaconIndBuf
        MOVX    A,@DPTR
        MOV     R0,A
        INC     DPTR
        MOVX    A,@DPTR
        MOV     DPH,A
        MOV     DPL,R0
        MOVX    A,@DPTR
        MOV     R0,A
        MOV     R1,#0x0
        MOV     A,R0
        MOV     B,#0x15
        MUL     AB
        XCH     A,R0
        MOV     R2,B
        MOV     B,#0x0
        MUL     AB
        ADD     A,R2
        MOV     R2,A
        MOV     B,#0x15
        MOV     A,R1
        MUL     AB
        ADD     A,R2
        MOV     R1,A
        MOV     DPTR,#pBeaconIndBuf
        MOVX    A,@DPTR
        ADD     A,R0
        MOV     R2,A
        INC     DPTR
        MOVX    A,@DPTR
        ADDC    A,R1
        MOV     DPL,R2
        MOV     DPH,A
        INC     DPTR
        MOV     R2,DPL
        MOV     R3,DPH
// 1677     *pTmp++ = LO_UINT16(pBeacon->sourceAddr);
        MOV     DPL,R6
        MOV     DPH,R7
        MOVX    A,@DPTR
        MOV     R0,A
        INC     DPTR
        MOVX    A,@DPTR
        MOV     R1,A
        MOV     A,R0
        MOV     DPL,R2
        MOV     DPH,R3
        MOVX    @DPTR,A
        MOV     DPL,R2
        MOV     DPH,R3
        INC     DPTR
        MOV     R2,DPL
        MOV     R3,DPH
// 1678     *pTmp++ = HI_UINT16(pBeacon->sourceAddr);
        MOV     DPL,R6
        MOV     DPH,R7
        MOVX    A,@DPTR
        MOV     R0,A
        INC     DPTR
        MOVX    A,@DPTR
        MOV     R1,A
        CLR     A
        MOV     A,R1
        MOV     R0,A
        MOV     DPL,R2
        MOV     DPH,R3
        MOVX    @DPTR,A
        MOV     DPL,R2
        MOV     DPH,R3
        INC     DPTR
        MOV     R2,DPL
        MOV     R3,DPH
// 1679     *pTmp++ = LO_UINT16(pBeacon->panID);
        MOV     DPL,R6
        MOV     DPH,R7
        INC     DPTR
        INC     DPTR
        MOVX    A,@DPTR
        MOV     R0,A
        INC     DPTR
        MOVX    A,@DPTR
        MOV     R1,A
        MOV     A,R0
        MOV     DPL,R2
        MOV     DPH,R3
        MOVX    @DPTR,A
        MOV     DPL,R2
        MOV     DPH,R3
        INC     DPTR
        MOV     R2,DPL
        MOV     R3,DPH
// 1680     *pTmp++ = HI_UINT16(pBeacon->panID);
        MOV     DPL,R6
        MOV     DPH,R7
        INC     DPTR
        INC     DPTR
        MOVX    A,@DPTR
        MOV     R0,A
        INC     DPTR
        MOVX    A,@DPTR
        MOV     R1,A
        CLR     A
        MOV     A,R1
        MOV     R0,A
        MOV     DPL,R2
        MOV     DPH,R3
        MOVX    @DPTR,A
        MOV     DPL,R2
        MOV     DPH,R3
        INC     DPTR
        MOV     R2,DPL
        MOV     R3,DPH
// 1681     *pTmp++ = pBeacon->logicalChannel;
        MOV     DPL,R6
        MOV     DPH,R7
        INC     DPTR
        INC     DPTR
        INC     DPTR
        INC     DPTR
        MOVX    A,@DPTR
        MOV     DPL,R2
        MOV     DPH,R3
        MOVX    @DPTR,A
        MOV     DPL,R2
        MOV     DPH,R3
        INC     DPTR
        MOV     R2,DPL
        MOV     R3,DPH
// 1682     *pTmp++ = pBeacon->permitJoining;
        MOV     DPL,R6
        MOV     DPH,R7
        INC     DPTR
        INC     DPTR
        INC     DPTR
        INC     DPTR
        INC     DPTR
        MOVX    A,@DPTR
        MOV     DPL,R2
        MOV     DPH,R3
        MOVX    @DPTR,A
        MOV     DPL,R2
        MOV     DPH,R3
        INC     DPTR
        MOV     R2,DPL
        MOV     R3,DPH
// 1683     *pTmp++ = pBeacon->routerCapacity;
        MOV     DPL,R6
        MOV     DPH,R7
        INC     DPTR
        INC     DPTR
        INC     DPTR
        INC     DPTR
        INC     DPTR
        INC     DPTR
        MOVX    A,@DPTR
        MOV     DPL,R2
        MOV     DPH,R3
        MOVX    @DPTR,A
        MOV     DPL,R2
        MOV     DPH,R3
        INC     DPTR
        MOV     R2,DPL
        MOV     R3,DPH
// 1684     *pTmp++ = pBeacon->deviceCapacity;
        MOV     DPL,R6
        MOV     DPH,R7
        INC     DPTR
        INC     DPTR
        INC     DPTR
        INC     DPTR
        INC     DPTR
        INC     DPTR
        INC     DPTR
        MOVX    A,@DPTR
        MOV     DPL,R2
        MOV     DPH,R3
        MOVX    @DPTR,A
        MOV     DPL,R2
        MOV     DPH,R3
        INC     DPTR
        MOV     R2,DPL
        MOV     R3,DPH
// 1685     *pTmp++ = pBeacon->protocolVersion;
        MOV     DPL,R6
        MOV     DPH,R7
        INC     DPTR
        INC     DPTR
        INC     DPTR
        INC     DPTR
        INC     DPTR
        INC     DPTR
        INC     DPTR
        INC     DPTR
        MOVX    A,@DPTR
        MOV     DPL,R2
        MOV     DPH,R3
        MOVX    @DPTR,A
        MOV     DPL,R2
        MOV     DPH,R3
        INC     DPTR
        MOV     R2,DPL
        MOV     R3,DPH
// 1686     *pTmp++ = pBeacon->stackProfile;
        MOV     DPL,R6
        MOV     DPH,R7
        INC     DPTR
        INC     DPTR
        INC     DPTR
        INC     DPTR
        INC     DPTR
        INC     DPTR
        INC     DPTR
        INC     DPTR
        INC     DPTR
        MOVX    A,@DPTR
        MOV     DPL,R2
        MOV     DPH,R3
        MOVX    @DPTR,A
        MOV     DPL,R2
        MOV     DPH,R3
        INC     DPTR
        MOV     R2,DPL
        MOV     R3,DPH
// 1687     *pTmp++ = pBeacon->LQI;
        MOV     DPL,R6
        MOV     DPH,R7
        INC     DPTR
        INC     DPTR
        INC     DPTR
        INC     DPTR
        INC     DPTR
        INC     DPTR
        INC     DPTR
        INC     DPTR
        INC     DPTR
        INC     DPTR
        MOVX    A,@DPTR
        MOV     DPL,R2
        MOV     DPH,R3
        MOVX    @DPTR,A
        MOV     DPL,R2
        MOV     DPH,R3
        INC     DPTR
        MOV     R2,DPL
        MOV     R3,DPH
// 1688     *pTmp++ = pBeacon->depth;
        MOV     A,R6
        ADD     A,#0xb
        MOV     DPL,A
        MOV     A,R7
        ADDC    A,#0x0
        MOV     DPH,A
        MOVX    A,@DPTR
        MOV     DPL,R2
        MOV     DPH,R3
        MOVX    @DPTR,A
        MOV     DPL,R2
        MOV     DPH,R3
        INC     DPTR
        MOV     R2,DPL
        MOV     R3,DPH
// 1689     *pTmp++ = pBeacon->updateID;
        MOV     A,R6
        ADD     A,#0xc
        MOV     DPL,A
        MOV     A,R7
        ADDC    A,#0x0
        MOV     DPH,A
        MOVX    A,@DPTR
        MOV     DPL,R2
        MOV     DPH,R3
        MOVX    @DPTR,A
        MOV     DPL,R2
        MOV     DPH,R3
        INC     DPTR
        MOV     R2,DPL
        MOV     R3,DPH
// 1690     osal_memcpy( pTmp, pBeacon->extendedPanID, Z_EXTADDR_LEN);
        ; Setup parameters for call to function osal_memcpy
        MOV     A,R6
        ADD     A,#0xd
        MOV     ?V0 + 0,A
        MOV     A,R7
        ADDC    A,#0x0
        MOV     ?V0 + 1,A
        MOV     ?V0 + 2,#0x0
        MOV     R0,#?V0 + 0
        LCALL   ?PUSH_XSTACK_I_THREE
        CFI CFA_XSP16 add(XSP16, 14)
        MOV     R4,#0x8
        MOV     R5,#0x0
        LCALL   ??osal_memcpy?relay
        MOV     A,#0x3
        LCALL   ?DEALLOC_XSTACK8
        CFI CFA_XSP16 add(XSP16, 11)
// 1691 
// 1692     pBeaconIndBuf[0] += 1; // Increment the devCnt
        MOV     DPTR,#pBeaconIndBuf
        MOVX    A,@DPTR
        MOV     R0,A
        INC     DPTR
        MOVX    A,@DPTR
        MOV     DPH,A
        MOV     DPL,R0
        MOVX    A,@DPTR
        ADD     A,#0x1
        MOVX    @DPTR,A
// 1693 
// 1694     // Check if the buffer can fit in another beacon
// 1695     if( ((pBeaconIndBuf[0] + 1) * MT_ZDO_BEACON_IND_LEN + 1) > MT_ZDO_BEACON_IND_PACK_LEN )
        MOV     DPTR,#pBeaconIndBuf
        MOVX    A,@DPTR
        MOV     R0,A
        INC     DPTR
        MOVX    A,@DPTR
        MOV     DPH,A
        MOV     DPL,R0
        MOVX    A,@DPTR
        MOV     R0,A
        MOV     R1,#0x0
        MOV     A,R0
        MOV     B,#0x15
        MUL     AB
        XCH     A,R0
        MOV     R2,B
        MOV     B,#0x0
        MUL     AB
        ADD     A,R2
        MOV     R2,A
        MOV     B,#0x15
        MOV     A,R1
        MUL     AB
        ADD     A,R2
        MOV     R1,A
        MOV     A,R0
        ADD     A,#0x16
        MOV     R0,A
        MOV     A,R1
        ADDC    A,#0x0
        MOV     R1,A
        CLR     C
        MOV     A,R0
        SUBB    A,#0x7c
        MOV     A,R1
        SUBB    A,#0x0
        MOV     C,0xD0 /* PSW */.2
        XRL     A,PSW
        RLC     A
        JNC     $+5
        LJMP    ??MT_ZdoBeaconIndCB_4 & 0xFFFF
// 1696     {
// 1697       // Packet full, send the packet over MT
// 1698       MT_BuildAndSendZToolResponse(((uint8)MT_RPC_CMD_AREQ | (uint8)MT_RPC_SYS_ZDO),
// 1699                                    MT_ZDO_BEACON_NOTIFY_IND,
// 1700                                    (pBeaconIndBuf[0] * MT_ZDO_BEACON_IND_LEN + 1), pBeaconIndBuf);
        ; Setup parameters for call to function MT_BuildAndSendZToolResponse
        MOV     DPTR,#pBeaconIndBuf
        MOVX    A,@DPTR
        MOV     R4,A
        INC     DPTR
        MOVX    A,@DPTR
        MOV     R5,A
        MOV     B,#0x15
        MOV     DPTR,#pBeaconIndBuf
        MOVX    A,@DPTR
        MOV     R0,A
        INC     DPTR
        MOVX    A,@DPTR
        MOV     DPH,A
        MOV     DPL,R0
        MOVX    A,@DPTR
        MUL     AB
        ADD     A,#0x1
        MOV     R3,A
        MOV     R2,#-0x3b
        MOV     R1,#0x45
        LCALL   ??MT_BuildAndSendZToolResponse?relay
// 1701       pBeaconIndBuf[0] = 0; // Reset the devCnt back to zero
        MOV     DPTR,#pBeaconIndBuf
        MOVX    A,@DPTR
        MOV     R0,A
        INC     DPTR
        MOVX    A,@DPTR
        MOV     DPH,A
        MOV     DPL,R0
        MOV     A,#0x0
        MOVX    @DPTR,A
        SJMP    ??MT_ZdoBeaconIndCB_4
// 1702     }
// 1703   }
// 1704   else
// 1705   {
// 1706     if( (pBeaconIndBuf != NULL) && (pBeaconIndBuf[0] != 0) )
??MT_ZdoBeaconIndCB_0:
        MOV     DPTR,#pBeaconIndBuf
        MOVX    A,@DPTR
        MOV     R0,A
        INC     DPTR
        MOVX    A,@DPTR
        MOV     R1,A
        MOV     A,R0
        ORL     A,R1
        JZ      ??MT_ZdoBeaconIndCB_5
        MOV     DPTR,#pBeaconIndBuf
        MOVX    A,@DPTR
        MOV     R0,A
        INC     DPTR
        MOVX    A,@DPTR
        MOV     DPH,A
        MOV     DPL,R0
        MOVX    A,@DPTR
        JZ      ??MT_ZdoBeaconIndCB_5
// 1707     {
// 1708       // End of beacon indication, send the packet over MT
// 1709       MT_BuildAndSendZToolResponse(((uint8)MT_RPC_CMD_AREQ | (uint8)MT_RPC_SYS_ZDO),
// 1710                                    MT_ZDO_BEACON_NOTIFY_IND,
// 1711                                    (pBeaconIndBuf[0] * MT_ZDO_BEACON_IND_LEN + 1), pBeaconIndBuf);
        ; Setup parameters for call to function MT_BuildAndSendZToolResponse
        MOV     DPTR,#pBeaconIndBuf
        MOVX    A,@DPTR
        MOV     R4,A
        INC     DPTR
        MOVX    A,@DPTR
        MOV     R5,A
        MOV     B,#0x15
        MOV     DPTR,#pBeaconIndBuf
        MOVX    A,@DPTR
        MOV     R0,A
        INC     DPTR
        MOVX    A,@DPTR
        MOV     DPH,A
        MOV     DPL,R0
        MOVX    A,@DPTR
        MUL     AB
        ADD     A,#0x1
        MOV     R3,A
        MOV     R2,#-0x3b
        MOV     R1,#0x45
        LCALL   ??MT_BuildAndSendZToolResponse?relay
// 1712     }
// 1713     // Free the allocated memory
// 1714     if(pBeaconIndBuf != NULL)
??MT_ZdoBeaconIndCB_5:
        MOV     DPTR,#pBeaconIndBuf
        MOVX    A,@DPTR
        MOV     R0,A
        INC     DPTR
        MOVX    A,@DPTR
        MOV     R1,A
        MOV     A,R0
        ORL     A,R1
        JZ      ??MT_ZdoBeaconIndCB_4
// 1715     {
// 1716       osal_mem_free(pBeaconIndBuf);
        ; Setup parameters for call to function osal_mem_free
        MOV     DPTR,#pBeaconIndBuf
        MOVX    A,@DPTR
        MOV     R2,A
        INC     DPTR
        MOVX    A,@DPTR
        MOV     R3,A
        LCALL   ??osal_mem_free?relay
// 1717       pBeaconIndBuf = NULL;
        MOV     DPTR,#pBeaconIndBuf
        MOV     A,#0x0
        MOVX    @DPTR,A
        INC     DPTR
        MOV     A,#0x0
        MOVX    @DPTR,A
// 1718     }
// 1719   }
// 1720 
// 1721   return NULL;
??MT_ZdoBeaconIndCB_4:
        MOV     R2,#0x0
        MOV     R3,#0x0
??MT_ZdoBeaconIndCB_3:
        MOV     R7,#0x3
        LJMP    ?BANKED_LEAVE_XDATA
        CFI EndBlock cfiBlock21
// 1722 }
// 1723 
// 1724 
// 1725 
// 1726 /***************************************************************************************************
// 1727  * @fn          MT_ZdoJoinCnfCB
// 1728  *
// 1729  * @brief       Handle the ZDO Join Confirm from ZDO
// 1730  *
// 1731  * @param       pStr - pointer to a parameter and a structure of parameters
// 1732  *
// 1733  * @return      void
// 1734  ***************************************************************************************************/

        RSEG BANKED_CODE:CODE:NOROOT(0)
// 1735 void *MT_ZdoJoinCnfCB ( void *pStr )
MT_ZdoJoinCnfCB:
        CFI Block cfiBlock22 Using cfiCommon0
        CFI Function MT_ZdoJoinCnfCB
        CODE
// 1736 {
        FUNCALL MT_ZdoJoinCnfCB, ZDO_DeregisterForZdoCB
        LOCFRAME ISTACK, 0, STACK
        LOCFRAME PSTACK, 0, STACK
        LOCFRAME XSTACK, 14, STACK
        LOCFRAME IOVERLAY, 0, STATIC
        LOCFRAME DOVERLAY, 0, STATIC
        ARGFRAME ISTACK, 0, STACK
        ARGFRAME PSTACK, 0, STACK
        ARGFRAME XSTACK, 14, STACK
        ARGFRAME IOVERLAY, 0, STATIC
        ARGFRAME DOVERLAY, 0, STATIC
        FUNCALL MT_ZdoJoinCnfCB, MT_BuildAndSendZToolResponse
        LOCFRAME ISTACK, 0, STACK
        LOCFRAME PSTACK, 0, STACK
        LOCFRAME XSTACK, 14, STACK
        LOCFRAME IOVERLAY, 0, STATIC
        LOCFRAME DOVERLAY, 0, STATIC
        ARGFRAME ISTACK, 0, STACK
        ARGFRAME PSTACK, 0, STACK
        ARGFRAME XSTACK, 14, STACK
        ARGFRAME IOVERLAY, 0, STATIC
        ARGFRAME DOVERLAY, 0, STATIC
        MOV     A,#-0x9
        LCALL   ?BANKED_ENTER_XDATA
        CFI DPH0 load(1, XDATA, add(CFA_XSP16, literal(-1)))
        CFI DPL0 load(1, XDATA, add(CFA_XSP16, literal(-2)))
        CFI ?BRET_EXT load(1, XDATA, add(CFA_XSP16, literal(-3)))
        CFI ?RET_HIGH load(1, XDATA, add(CFA_XSP16, literal(-4)))
        CFI ?RET_LOW load(1, XDATA, add(CFA_XSP16, literal(-5)))
        CFI R7 load(1, XDATA, add(CFA_XSP16, literal(-6)))
        CFI V0 load(1, XDATA, add(CFA_XSP16, literal(-7)))
        CFI VB load(1, XDATA, add(CFA_XSP16, literal(-8)))
        CFI R6 load(1, XDATA, add(CFA_XSP16, literal(-9)))
        CFI CFA_SP SP+0
        CFI CFA_XSP16 add(XSP16, 9)
        ; Saved register size: 9
        ; Auto size: 5
        MOV     A,#-0x5
        LCALL   ?ALLOC_XSTACK8
        CFI CFA_XSP16 add(XSP16, 14)
// 1737   /* pStr: zdoJoinCnf_t* */
// 1738   /* Packet Format */
// 1739   /* Status (1) | device addr (2) | parent addr (2) */
// 1740 
// 1741   uint8 buf[MT_ZDO_JOIN_CNF_LEN];
// 1742   zdoJoinCnf_t *joinCnf = pStr;
        MOV     A,R2
        MOV     R6,A
        MOV     A,R3
        MOV     R7,A
// 1743 
// 1744   /* Join Complete. De-register the callback with ZDO */
// 1745   ZDO_DeregisterForZdoCB( ZDO_JOIN_CNF_CBID );
        ; Setup parameters for call to function ZDO_DeregisterForZdoCB
        MOV     R1,#0x4
        LCALL   ??ZDO_DeregisterForZdoCB?relay
        MOV     A,R1
// 1746 
// 1747   buf[0] = joinCnf->status;
        MOV     DPL,R6
        MOV     DPH,R7
        MOVX    A,@DPTR
        MOV     DPL,?XSP + 0
        MOV     DPH,?XSP + 1
        MOVX    @DPTR,A
// 1748   buf[1] = LO_UINT16( joinCnf->deviceAddr );
        MOV     DPL,R6
        MOV     DPH,R7
        INC     DPTR
        MOVX    A,@DPTR
        MOV     R0,A
        INC     DPTR
        MOVX    A,@DPTR
        MOV     R1,A
        MOV     A,R0
        PUSH    A
        CFI CFA_SP SP+-1
        MOV     A,#0x1
        LCALL   ?XSTACK_DISP0_8
        POP     A
        CFI CFA_SP SP+0
        MOVX    @DPTR,A
// 1749   buf[2] = HI_UINT16( joinCnf->deviceAddr );
        MOV     DPL,R6
        MOV     DPH,R7
        INC     DPTR
        MOVX    A,@DPTR
        MOV     R0,A
        INC     DPTR
        MOVX    A,@DPTR
        MOV     R1,A
        CLR     A
        MOV     A,R1
        MOV     R0,A
        PUSH    A
        CFI CFA_SP SP+-1
        MOV     A,#0x2
        LCALL   ?XSTACK_DISP0_8
        POP     A
        CFI CFA_SP SP+0
        MOVX    @DPTR,A
// 1750   buf[3] = LO_UINT16( joinCnf->parentAddr );
        MOV     DPL,R6
        MOV     DPH,R7
        INC     DPTR
        INC     DPTR
        INC     DPTR
        MOVX    A,@DPTR
        MOV     R0,A
        INC     DPTR
        MOVX    A,@DPTR
        MOV     R1,A
        MOV     A,R0
        PUSH    A
        CFI CFA_SP SP+-1
        MOV     A,#0x3
        LCALL   ?XSTACK_DISP0_8
        POP     A
        CFI CFA_SP SP+0
        MOVX    @DPTR,A
// 1751   buf[4] = HI_UINT16( joinCnf->parentAddr );
        MOV     DPL,R6
        MOV     DPH,R7
        INC     DPTR
        INC     DPTR
        INC     DPTR
        MOVX    A,@DPTR
        MOV     R0,A
        INC     DPTR
        MOVX    A,@DPTR
        MOV     R1,A
        CLR     A
        MOV     A,R1
        MOV     R0,A
        PUSH    A
        CFI CFA_SP SP+-1
        MOV     A,#0x4
        LCALL   ?XSTACK_DISP0_8
        POP     A
        CFI CFA_SP SP+0
        MOVX    @DPTR,A
// 1752 
// 1753   MT_BuildAndSendZToolResponse(((uint8)MT_RPC_CMD_AREQ | (uint8)MT_RPC_SYS_ZDO),
// 1754                                MT_ZDO_JOIN_CNF, MT_ZDO_JOIN_CNF_LEN, buf);
        ; Setup parameters for call to function MT_BuildAndSendZToolResponse
        MOV     DPL,?XSP + 0
        MOV     DPH,?XSP + 1
        MOV     R4,DPL
        MOV     R5,DPH
        MOV     R3,#0x5
        MOV     R2,#-0x3a
        MOV     R1,#0x45
        LCALL   ??MT_BuildAndSendZToolResponse?relay
// 1755 
// 1756   return NULL;
        MOV     R2,#0x0
        MOV     R3,#0x0
        MOV     A,#0x5
        LCALL   ?DEALLOC_XSTACK8
        CFI CFA_XSP16 add(XSP16, 9)
        MOV     R7,#0x1
        LJMP    ?BANKED_LEAVE_XDATA
        CFI EndBlock cfiBlock22
// 1757 }
// 1758 
// 1759 /*************************************************************************************************
// 1760  * @fn      MT_ZdoRegisterForZDOMsg(pBuf);
// 1761  *
// 1762  * @brief   MT proxy for ZDO_RegisterForZDOMsg.
// 1763  *
// 1764  * @param   pBuf  - MT message data
// 1765  *
// 1766  * @return  void
// 1767  *************************************************************************************************/

        RSEG BANKED_CODE:CODE:NOROOT(0)
// 1768 void MT_ZdoRegisterForZDOMsg(uint8 *pBuf)
MT_ZdoRegisterForZDOMsg:
        CFI Block cfiBlock23 Using cfiCommon0
        CFI Function MT_ZdoRegisterForZDOMsg
        CODE
// 1769 {
        FUNCALL MT_ZdoRegisterForZDOMsg, ZDO_RegisterForZDOMsg
        LOCFRAME ISTACK, 0, STACK
        LOCFRAME PSTACK, 0, STACK
        LOCFRAME XSTACK, 10, STACK
        LOCFRAME IOVERLAY, 0, STATIC
        LOCFRAME DOVERLAY, 0, STATIC
        ARGFRAME ISTACK, 0, STACK
        ARGFRAME PSTACK, 0, STACK
        ARGFRAME XSTACK, 10, STACK
        ARGFRAME IOVERLAY, 0, STATIC
        ARGFRAME DOVERLAY, 0, STATIC
        FUNCALL MT_ZdoRegisterForZDOMsg, MT_BuildAndSendZToolResponse
        LOCFRAME ISTACK, 0, STACK
        LOCFRAME PSTACK, 0, STACK
        LOCFRAME XSTACK, 10, STACK
        LOCFRAME IOVERLAY, 0, STATIC
        LOCFRAME DOVERLAY, 0, STATIC
        ARGFRAME ISTACK, 0, STACK
        ARGFRAME PSTACK, 0, STACK
        ARGFRAME XSTACK, 10, STACK
        ARGFRAME IOVERLAY, 0, STATIC
        ARGFRAME DOVERLAY, 0, STATIC
        MOV     A,#-0x9
        LCALL   ?BANKED_ENTER_XDATA
        CFI DPH0 load(1, XDATA, add(CFA_XSP16, literal(-1)))
        CFI DPL0 load(1, XDATA, add(CFA_XSP16, literal(-2)))
        CFI ?BRET_EXT load(1, XDATA, add(CFA_XSP16, literal(-3)))
        CFI ?RET_HIGH load(1, XDATA, add(CFA_XSP16, literal(-4)))
        CFI ?RET_LOW load(1, XDATA, add(CFA_XSP16, literal(-5)))
        CFI R7 load(1, XDATA, add(CFA_XSP16, literal(-6)))
        CFI V0 load(1, XDATA, add(CFA_XSP16, literal(-7)))
        CFI VB load(1, XDATA, add(CFA_XSP16, literal(-8)))
        CFI R6 load(1, XDATA, add(CFA_XSP16, literal(-9)))
        CFI CFA_SP SP+0
        CFI CFA_XSP16 add(XSP16, 9)
        ; Saved register size: 9
        ; Auto size: 1
        MOV     A,#-0x1
        LCALL   ?ALLOC_XSTACK8
        CFI CFA_XSP16 add(XSP16, 10)
// 1770   uint8 cmd0, cmd1, tmp;
// 1771   uint16 cId;
// 1772 
// 1773   /* parse header */
// 1774   cmd0 = pBuf[MT_RPC_POS_CMD0];
        MOV     DPL,R2
        MOV     DPH,R3
        INC     DPTR
        MOVX    A,@DPTR
        MOV     R7,A
// 1775   cmd1 = pBuf[MT_RPC_POS_CMD1];
        MOV     DPL,R2
        MOV     DPH,R3
        INC     DPTR
        INC     DPTR
        MOVX    A,@DPTR
        MOV     R6,A
// 1776   pBuf += MT_RPC_FRAME_HDR_SZ;
        MOV     A,R2
        ADD     A,#0x3
        MOV     R2,A
        MOV     A,R3
        ADDC    A,#0x0
        MOV     R3,A
// 1777 
// 1778   cId = BUILD_UINT16(pBuf[0], pBuf[1]);
        MOV     DPL,R2
        MOV     DPH,R3
        MOVX    A,@DPTR
        MOV     R4,A
        MOV     R5,#0x0
        MOV     DPL,R2
        MOV     DPH,R3
        INC     DPTR
        MOVX    A,@DPTR
        MOV     R0,A
        MOV     R1,#0x0
        CLR     A
        XCH     A,R0
        MOV     R1,A
        MOV     A,R4
        ADD     A,R0
        MOV     R2,A
        MOV     A,R5
        ADDC    A,R1
        MOV     R3,A
// 1779   tmp = ZDO_RegisterForZDOMsg(MT_TaskID, cId);
        ; Setup parameters for call to function ZDO_RegisterForZDOMsg
        MOV     DPTR,#MT_TaskID
        MOVX    A,@DPTR
        MOV     R1,A
        LCALL   ??ZDO_RegisterForZDOMsg?relay
        MOV     A,R1
        MOV     DPL,?XSP + 0
        MOV     DPH,?XSP + 1
        MOVX    @DPTR,A
// 1780 
// 1781   if (MT_RPC_CMD_SREQ == (cmd0 & MT_RPC_CMD_TYPE_MASK))
        MOV     A,#-0x20
        ANL     A,R7
        XRL     A,#0x20
        JNZ     ??MT_ZdoRegisterForZDOMsg_0
// 1782   {
// 1783     MT_BuildAndSendZToolResponse(((uint8)MT_RPC_CMD_SRSP|(uint8)MT_RPC_SYS_ZDO), cmd1, 1, &tmp);
        ; Setup parameters for call to function MT_BuildAndSendZToolResponse
        MOV     DPL,?XSP + 0
        MOV     DPH,?XSP + 1
        MOV     R4,DPL
        MOV     R5,DPH
        MOV     R3,#0x1
        MOV     A,R6
        MOV     R2,A
        MOV     R1,#0x65
        LCALL   ??MT_BuildAndSendZToolResponse?relay
// 1784   }
// 1785 }
??MT_ZdoRegisterForZDOMsg_0:
        MOV     A,#0x1
        LCALL   ?DEALLOC_XSTACK8
        CFI CFA_XSP16 add(XSP16, 9)
        MOV     R7,#0x1
        LJMP    ?BANKED_LEAVE_XDATA
        CFI EndBlock cfiBlock23
// 1786 
// 1787 /*************************************************************************************************
// 1788  * @fn      MT_ZdoRemoveRegisteredCB(pBuf);
// 1789  *
// 1790  * @brief   MT proxy for ZDO_RemoveRegisteredCB.
// 1791  *
// 1792  * @param   pBuf  - MT message data
// 1793  *
// 1794  * @return  void
// 1795  *************************************************************************************************/

        RSEG BANKED_CODE:CODE:NOROOT(0)
// 1796 void MT_ZdoRemoveRegisteredCB(uint8 *pBuf)
MT_ZdoRemoveRegisteredCB:
        CFI Block cfiBlock24 Using cfiCommon0
        CFI Function MT_ZdoRemoveRegisteredCB
        CODE
// 1797 {
        FUNCALL MT_ZdoRemoveRegisteredCB, ZDO_RemoveRegisteredCB
        LOCFRAME ISTACK, 0, STACK
        LOCFRAME PSTACK, 0, STACK
        LOCFRAME XSTACK, 10, STACK
        LOCFRAME IOVERLAY, 0, STATIC
        LOCFRAME DOVERLAY, 0, STATIC
        ARGFRAME ISTACK, 0, STACK
        ARGFRAME PSTACK, 0, STACK
        ARGFRAME XSTACK, 10, STACK
        ARGFRAME IOVERLAY, 0, STATIC
        ARGFRAME DOVERLAY, 0, STATIC
        FUNCALL MT_ZdoRemoveRegisteredCB, MT_BuildAndSendZToolResponse
        LOCFRAME ISTACK, 0, STACK
        LOCFRAME PSTACK, 0, STACK
        LOCFRAME XSTACK, 10, STACK
        LOCFRAME IOVERLAY, 0, STATIC
        LOCFRAME DOVERLAY, 0, STATIC
        ARGFRAME ISTACK, 0, STACK
        ARGFRAME PSTACK, 0, STACK
        ARGFRAME XSTACK, 10, STACK
        ARGFRAME IOVERLAY, 0, STATIC
        ARGFRAME DOVERLAY, 0, STATIC
        MOV     A,#-0x9
        LCALL   ?BANKED_ENTER_XDATA
        CFI DPH0 load(1, XDATA, add(CFA_XSP16, literal(-1)))
        CFI DPL0 load(1, XDATA, add(CFA_XSP16, literal(-2)))
        CFI ?BRET_EXT load(1, XDATA, add(CFA_XSP16, literal(-3)))
        CFI ?RET_HIGH load(1, XDATA, add(CFA_XSP16, literal(-4)))
        CFI ?RET_LOW load(1, XDATA, add(CFA_XSP16, literal(-5)))
        CFI R7 load(1, XDATA, add(CFA_XSP16, literal(-6)))
        CFI V0 load(1, XDATA, add(CFA_XSP16, literal(-7)))
        CFI VB load(1, XDATA, add(CFA_XSP16, literal(-8)))
        CFI R6 load(1, XDATA, add(CFA_XSP16, literal(-9)))
        CFI CFA_SP SP+0
        CFI CFA_XSP16 add(XSP16, 9)
        ; Saved register size: 9
        ; Auto size: 1
        MOV     A,#-0x1
        LCALL   ?ALLOC_XSTACK8
        CFI CFA_XSP16 add(XSP16, 10)
// 1798   uint8 cmd0, cmd1, tmp;
// 1799   uint16 cId;
// 1800 
// 1801   /* parse header */
// 1802   cmd0 = pBuf[MT_RPC_POS_CMD0];
        MOV     DPL,R2
        MOV     DPH,R3
        INC     DPTR
        MOVX    A,@DPTR
        MOV     R7,A
// 1803   cmd1 = pBuf[MT_RPC_POS_CMD1];
        MOV     DPL,R2
        MOV     DPH,R3
        INC     DPTR
        INC     DPTR
        MOVX    A,@DPTR
        MOV     R6,A
// 1804   pBuf += MT_RPC_FRAME_HDR_SZ;
        MOV     A,R2
        ADD     A,#0x3
        MOV     R2,A
        MOV     A,R3
        ADDC    A,#0x0
        MOV     R3,A
// 1805 
// 1806   cId = BUILD_UINT16(pBuf[0], pBuf[1]);
        MOV     DPL,R2
        MOV     DPH,R3
        MOVX    A,@DPTR
        MOV     R4,A
        MOV     R5,#0x0
        MOV     DPL,R2
        MOV     DPH,R3
        INC     DPTR
        MOVX    A,@DPTR
        MOV     R0,A
        MOV     R1,#0x0
        CLR     A
        XCH     A,R0
        MOV     R1,A
        MOV     A,R4
        ADD     A,R0
        MOV     R2,A
        MOV     A,R5
        ADDC    A,R1
        MOV     R3,A
// 1807   tmp = ZDO_RemoveRegisteredCB(MT_TaskID, cId);
        ; Setup parameters for call to function ZDO_RemoveRegisteredCB
        MOV     DPTR,#MT_TaskID
        MOVX    A,@DPTR
        MOV     R1,A
        LCALL   ??ZDO_RemoveRegisteredCB?relay
        MOV     A,R1
        MOV     DPL,?XSP + 0
        MOV     DPH,?XSP + 1
        MOVX    @DPTR,A
// 1808 
// 1809   if (MT_RPC_CMD_SREQ == (cmd0 & MT_RPC_CMD_TYPE_MASK))
        MOV     A,#-0x20
        ANL     A,R7
        XRL     A,#0x20
        JNZ     ??MT_ZdoRemoveRegisteredCB_0
// 1810   {
// 1811     MT_BuildAndSendZToolResponse(((uint8)MT_RPC_CMD_SRSP|(uint8)MT_RPC_SYS_ZDO), cmd1, 1, &tmp);
        ; Setup parameters for call to function MT_BuildAndSendZToolResponse
        MOV     DPL,?XSP + 0
        MOV     DPH,?XSP + 1
        MOV     R4,DPL
        MOV     R5,DPH
        MOV     R3,#0x1
        MOV     A,R6
        MOV     R2,A
        MOV     R1,#0x65
        LCALL   ??MT_BuildAndSendZToolResponse?relay
// 1812   }
// 1813 }
??MT_ZdoRemoveRegisteredCB_0:
        MOV     A,#0x1
        LCALL   ?DEALLOC_XSTACK8
        CFI CFA_XSP16 add(XSP16, 9)
        MOV     R7,#0x1
        LJMP    ?BANKED_LEAVE_XDATA
        CFI EndBlock cfiBlock24
// 1814 
// 1815 #endif /* MT_ZDO_FUNC */
// 1816 
// 1817 
// 1818 /***************************************************************************************************
// 1819  * Callback handling function
// 1820  ***************************************************************************************************/
// 1821 
// 1822 #if defined (MT_ZDO_CB_FUNC)
// 1823 
// 1824 /***************************************************************************************************
// 1825  * @fn      MT_ZdoStateChangeCB
// 1826  *
// 1827  * @brief   Handle state change OSAL message from ZDO.
// 1828  *
// 1829  * @param   pMsg  - Message data
// 1830  *
// 1831  * @return  void
// 1832  */
// 1833 void MT_ZdoStateChangeCB(osal_event_hdr_t *pMsg)
// 1834 {
// 1835   MT_BuildAndSendZToolResponse(((uint8)MT_RPC_CMD_AREQ | (uint8)MT_RPC_SYS_ZDO),
// 1836                                        MT_ZDO_STATE_CHANGE_IND, 1, &pMsg->status);
// 1837 }
// 1838 
// 1839 /***************************************************************************************************
// 1840  * @fn     MT_ZdoDirectCB()
// 1841  *
// 1842  * @brief  ZDO direct callback.  Build an MT message directly from the
// 1843  *         over-the-air ZDO message.
// 1844  *
// 1845  * @param  pData - Incoming AF frame.
// 1846  *
// 1847  * @return  none
// 1848  ***************************************************************************************************/
// 1849 void MT_ZdoDirectCB( afIncomingMSGPacket_t *pData, zdoIncomingMsg_t *inMsg )
// 1850 {
// 1851   uint8 len, *pBuf;
// 1852   uint16 origClusterId;
// 1853 
// 1854   // save original value because MT_ZdoHandleExceptions() function could modify pData->clusterId
// 1855   origClusterId = pData->clusterId;
// 1856 
// 1857   // Is the message an exception or not a response?
// 1858   if ( MT_ZdoHandleExceptions( pData, inMsg ) || ( (origClusterId & ZDO_RESPONSE_BIT) == 0 ) )
// 1859   {
// 1860     return;  // Handled somewhere else or not needed.
// 1861   }
// 1862 
// 1863   /* ZDO data starts after one-byte sequence number and the msg buffer length includes
// 1864    * two bytes for srcAddr.
// 1865    */
// 1866   len = pData->cmd.DataLength - 1 + sizeof(uint16);
// 1867 
// 1868   if (NULL != (pBuf = (uint8 *)osal_mem_alloc(len)))
// 1869   {
// 1870     uint8 id = MT_ZDO_CID_TO_AREQ_ID(pData->clusterId);
// 1871 
// 1872     pBuf[0] = LO_UINT16(pData->srcAddr.addr.shortAddr);
// 1873     pBuf[1] = HI_UINT16(pData->srcAddr.addr.shortAddr);
// 1874 
// 1875     /* copy ZDO data, skipping one-byte sequence number */
// 1876     osal_memcpy(pBuf+2, (pData->cmd.Data + 1), pData->cmd.DataLength-1);
// 1877 
// 1878     MT_BuildAndSendZToolResponse(((uint8)MT_RPC_CMD_AREQ | (uint8)MT_RPC_SYS_ZDO), id, len, pBuf);
// 1879     osal_mem_free(pBuf);
// 1880   }
// 1881 }
// 1882 
// 1883 /***************************************************************************************************
// 1884  * @fn     MT_ZdoHandleExceptions()
// 1885  *
// 1886  * @brief  Handles all messages that are an exception to the generic MT ZDO Response.
// 1887  *
// 1888  * @param  pData - Incoming AF frame.
// 1889  *
// 1890  * @return  TRUE if handled by this function, FALSE if not
// 1891  ***************************************************************************************************/
// 1892 uint8 MT_ZdoHandleExceptions( afIncomingMSGPacket_t *pData, zdoIncomingMsg_t *inMsg )
// 1893 {
// 1894   uint8 ret = TRUE;
// 1895   ZDO_NwkIEEEAddrResp_t *nwkRsp;
// 1896   ZDO_DeviceAnnce_t devAnnce;
// 1897   uint8 doDefault = FALSE;
// 1898 
// 1899   switch ( inMsg->clusterID )
// 1900   {
// 1901     case NWK_addr_rsp:
// 1902     case IEEE_addr_rsp:
// 1903       if ( NULL != (nwkRsp = ZDO_ParseAddrRsp(inMsg)) )
// 1904       {
// 1905         if ( nwkRsp->status == ZDO_SUCCESS )
// 1906         {
// 1907           MT_ZdoAddrRspCB( nwkRsp, inMsg->clusterID );
// 1908         }
// 1909         osal_mem_free( nwkRsp );
// 1910       }
// 1911       break;
// 1912 
// 1913     case Device_annce:
// 1914       ZDO_ParseDeviceAnnce( inMsg, &devAnnce );
// 1915       MT_ZdoEndDevAnnceCB( &devAnnce, inMsg->srcAddr.addr.shortAddr );
// 1916       break;
// 1917 
// 1918     case Simple_Desc_rsp:
// 1919       if ( pData->cmd.DataLength > 5 )
// 1920       {
// 1921         ret = FALSE;
// 1922       }
// 1923       else
// 1924       {
// 1925         doDefault = TRUE;
// 1926       }
// 1927       break;
// 1928 
// 1929     default:
// 1930       ret = FALSE;
// 1931       break;
// 1932   }
// 1933 
// 1934   if ( doDefault )
// 1935   {
// 1936     ret = FALSE;
// 1937     pData->clusterId = MtZdoDef_rsp;
// 1938     pData->cmd.DataLength = 2;
// 1939   }
// 1940 
// 1941   return ( ret );
// 1942 }
// 1943 
// 1944 /***************************************************************************************************
// 1945  * @fn      MT_ZdoAddrRspCB
// 1946  *
// 1947  * @brief   Handle IEEE or nwk address response OSAL message from ZDO.
// 1948  *
// 1949  * @param   pMsg  - Message data
// 1950  *
// 1951  * @return  void
// 1952  */
// 1953 void MT_ZdoAddrRspCB( ZDO_NwkIEEEAddrResp_t *pMsg, uint16 clusterID )
// 1954 {
// 1955   uint8   listLen, len, *pBuf;
// 1956 
// 1957   /* both ZDO_NwkAddrResp_t and ZDO_IEEEAddrResp_t must be the same */
// 1958 
// 1959   /* get length, sanity check length */
// 1960   listLen = pMsg->numAssocDevs;
// 1961 
// 1962   /* calculate msg length */
// 1963   len = MT_ZDO_ADDR_RSP_LEN + (listLen * sizeof(uint16));
// 1964 
// 1965   /* get buffer */
// 1966   if (NULL != (pBuf = (uint8 *)osal_mem_alloc(len)))
// 1967   {
// 1968     uint8 id = MT_ZDO_CID_TO_AREQ_ID(clusterID);
// 1969     uint8 *pTmp = pBuf;
// 1970 
// 1971     *pTmp++ = pMsg->status;
// 1972 
// 1973     osal_cpyExtAddr(pTmp, pMsg->extAddr);
// 1974     pTmp += Z_EXTADDR_LEN;
// 1975 
// 1976     *pTmp++ = LO_UINT16(pMsg->nwkAddr);
// 1977     *pTmp++ = HI_UINT16(pMsg->nwkAddr);
// 1978 
// 1979     *pTmp++ = pMsg->startIndex;
// 1980     *pTmp++ = listLen;
// 1981 
// 1982     MT_Word2Buf(pTmp, pMsg->devList, listLen);
// 1983 
// 1984     MT_BuildAndSendZToolResponse(((uint8)MT_RPC_CMD_AREQ | (uint8)MT_RPC_SYS_ZDO), id, len, pBuf);
// 1985     osal_mem_free(pBuf);
// 1986   }
// 1987 }
// 1988 
// 1989 /***************************************************************************************************
// 1990  * @fn      MT_ZdoEndDevAnnceCB
// 1991  *
// 1992  * @brief   Handle end device announce OSAL message from ZDO.
// 1993  *
// 1994  * @param   pMsg  - Message data
// 1995  *
// 1996  * @return  void
// 1997  */
// 1998 void MT_ZdoEndDevAnnceCB( ZDO_DeviceAnnce_t *pMsg, uint16 srcAddr )
// 1999 {
// 2000   uint8 *pBuf;
// 2001 
// 2002   if (NULL != (pBuf = (uint8 *)osal_mem_alloc(MT_ZDO_END_DEVICE_ANNCE_IND_LEN)))
// 2003   {
// 2004     uint8 *pTmp = pBuf;
// 2005 
// 2006     *pTmp++ = LO_UINT16(srcAddr);
// 2007     *pTmp++ = HI_UINT16(srcAddr);
// 2008 
// 2009     *pTmp++ = LO_UINT16(pMsg->nwkAddr);
// 2010     *pTmp++ = HI_UINT16(pMsg->nwkAddr);
// 2011 
// 2012     osal_cpyExtAddr(pTmp, pMsg->extAddr);
// 2013     pTmp += Z_EXTADDR_LEN;
// 2014 
// 2015     *pTmp = pMsg->capabilities;
// 2016 
// 2017     MT_BuildAndSendZToolResponse(((uint8)MT_RPC_CMD_AREQ | (uint8)MT_RPC_SYS_ZDO),
// 2018                                          MT_ZDO_END_DEVICE_ANNCE_IND,
// 2019                                          MT_ZDO_END_DEVICE_ANNCE_IND_LEN, pBuf);
// 2020     osal_mem_free(pBuf);
// 2021   }
// 2022 }
// 2023 
// 2024 /***************************************************************************************************
// 2025  * @fn      MT_ZdoSrcRtgCB
// 2026  *
// 2027  * @brief   Handle Src Route from ZDO.
// 2028  *
// 2029  * @param   pStr  - pointer to the data structure for the src route
// 2030  *
// 2031  * @return  void*
// 2032  */
// 2033 void* MT_ZdoSrcRtgCB( void *pStr )
// 2034 {
// 2035   uint8 len, *pBuf;
// 2036   zdoSrcRtg_t *pSrcRtg = pStr;
// 2037 
// 2038   // srcAddr (2) + relayCnt (1) + relayList( relaycnt * 2 )
// 2039   len = 2 + 1 + pSrcRtg->relayCnt * sizeof(uint16);
// 2040 
// 2041   if (NULL != (pBuf = (uint8 *)osal_mem_alloc(len)))
// 2042   {
// 2043     uint8 idx, *pTmp = pBuf;
// 2044     uint16 *pRelay;
// 2045 
// 2046     // Packet payload
// 2047     *pTmp++ = LO_UINT16(pSrcRtg->srcAddr);
// 2048     *pTmp++ = HI_UINT16(pSrcRtg->srcAddr);
// 2049     *pTmp++ = pSrcRtg->relayCnt;
// 2050 
// 2051     // Relay List
// 2052     if( ( pRelay = pSrcRtg->pRelayList ) != NULL )
// 2053     {
// 2054       for( idx = 0; idx < pSrcRtg->relayCnt; idx ++ )
// 2055       {
// 2056         *pTmp++ = LO_UINT16(*pRelay);
// 2057         *pTmp++ = HI_UINT16(*pRelay);
// 2058         pRelay++;
// 2059       }
// 2060     }
// 2061     MT_BuildAndSendZToolResponse(((uint8)MT_RPC_CMD_AREQ | (uint8)MT_RPC_SYS_ZDO),
// 2062                                          MT_ZDO_SRC_RTG_IND, len, pBuf);
// 2063     osal_mem_free(pBuf);
// 2064   }
// 2065 
// 2066   return NULL;
// 2067 }
// 2068 
// 2069 /***************************************************************************************************
// 2070  * @fn          MT_ZdoConcentratorIndCB
// 2071  *
// 2072  * @brief       Handle the ZDO Concentrator Indication callback from the ZDO.
// 2073  *
// 2074  * @param       pStr - pointer to a parameter and a structure of parameters
// 2075  *
// 2076  * @return      NULL
// 2077  ***************************************************************************************************/
// 2078 static void *MT_ZdoConcentratorIndCB(void *pStr)
// 2079 {
// 2080   uint8 buf[MT_ZDO_CONCENTRATOR_IND_LEN], *pTmp = buf;
// 2081   zdoConcentratorInd_t *pInd = (zdoConcentratorInd_t *)pStr;
// 2082 
// 2083   *pTmp++ = LO_UINT16(pInd->nwkAddr);
// 2084   *pTmp++ = HI_UINT16(pInd->nwkAddr);
// 2085   pTmp = osal_memcpy(pTmp, pInd->extAddr, Z_EXTADDR_LEN);
// 2086   *pTmp = pInd->pktCost;
// 2087 
// 2088   MT_BuildAndSendZToolResponse(((uint8)MT_RPC_CMD_AREQ | (uint8)MT_RPC_SYS_ZDO),
// 2089                                     MT_ZDO_CONCENTRATOR_IND_CB, MT_ZDO_CONCENTRATOR_IND_LEN, buf);
// 2090   return NULL;
// 2091 }
// 2092 
// 2093 /***************************************************************************************************
// 2094  * @fn          MT_ZdoLeaveInd
// 2095  *
// 2096  * @brief       Handle the ZDO Leave Indication callback from the ZDO.
// 2097  *
// 2098  * @param       vPtr - Pointer to the received Leave Indication message.
// 2099  *
// 2100  * @return      NULL
// 2101  ***************************************************************************************************/
// 2102 static void *MT_ZdoLeaveInd(void *vPtr)
// 2103 {
// 2104   NLME_LeaveInd_t *pInd = (NLME_LeaveInd_t *)vPtr;
// 2105   uint8 buf[sizeof(NLME_LeaveInd_t)];
// 2106 
// 2107   buf[0] = LO_UINT16(pInd->srcAddr);
// 2108   buf[1] = HI_UINT16(pInd->srcAddr);
// 2109   (void)osal_memcpy(buf+2, pInd->extAddr, Z_EXTADDR_LEN);
// 2110   buf[2+Z_EXTADDR_LEN] = pInd->request;
// 2111   buf[3+Z_EXTADDR_LEN] = pInd->removeChildren;
// 2112   buf[4+Z_EXTADDR_LEN] = pInd->rejoin;
// 2113 
// 2114   MT_BuildAndSendZToolResponse(((uint8)MT_RPC_CMD_AREQ | (uint8)MT_RPC_SYS_ZDO),
// 2115                                        MT_ZDO_LEAVE_IND, 5+Z_EXTADDR_LEN, buf);
// 2116   return NULL;
// 2117 }
// 2118 #endif // MT_ZDO_CB_FUNC
// 2119 
// 2120 /***************************************************************************************************
// 2121  * @fn      MT_ZdoSendMsgCB
// 2122  *
// 2123  * @brief   Proxy the ZDO_SendMsgCBs one message at a time.
// 2124  *
// 2125  * @param   pMsg  - Message data
// 2126  *
// 2127  * @return  void
// 2128  */

        RSEG BANKED_CODE:CODE:NOROOT(0)
// 2129 void MT_ZdoSendMsgCB(zdoIncomingMsg_t *pMsg)
MT_ZdoSendMsgCB:
        CFI Block cfiBlock25 Using cfiCommon0
        CFI Function MT_ZdoSendMsgCB
        CODE
// 2130 {
        FUNCALL MT_ZdoSendMsgCB, osal_mem_alloc
        LOCFRAME ISTACK, 0, STACK
        LOCFRAME PSTACK, 0, STACK
        LOCFRAME XSTACK, 15, STACK
        LOCFRAME IOVERLAY, 0, STATIC
        LOCFRAME DOVERLAY, 0, STATIC
        ARGFRAME ISTACK, 0, STACK
        ARGFRAME PSTACK, 0, STACK
        ARGFRAME XSTACK, 15, STACK
        ARGFRAME IOVERLAY, 0, STATIC
        ARGFRAME DOVERLAY, 0, STATIC
        FUNCALL MT_ZdoSendMsgCB, osal_memcpy
        LOCFRAME ISTACK, 0, STACK
        LOCFRAME PSTACK, 0, STACK
        LOCFRAME XSTACK, 18, STACK
        LOCFRAME IOVERLAY, 0, STATIC
        LOCFRAME DOVERLAY, 0, STATIC
        ARGFRAME ISTACK, 0, STACK
        ARGFRAME PSTACK, 0, STACK
        ARGFRAME XSTACK, 18, STACK
        ARGFRAME IOVERLAY, 0, STATIC
        ARGFRAME DOVERLAY, 0, STATIC
        FUNCALL MT_ZdoSendMsgCB, MT_BuildAndSendZToolResponse
        LOCFRAME ISTACK, 0, STACK
        LOCFRAME PSTACK, 0, STACK
        LOCFRAME XSTACK, 15, STACK
        LOCFRAME IOVERLAY, 0, STATIC
        LOCFRAME DOVERLAY, 0, STATIC
        ARGFRAME ISTACK, 0, STACK
        ARGFRAME PSTACK, 0, STACK
        ARGFRAME XSTACK, 15, STACK
        ARGFRAME IOVERLAY, 0, STATIC
        ARGFRAME DOVERLAY, 0, STATIC
        FUNCALL MT_ZdoSendMsgCB, osal_mem_free
        LOCFRAME ISTACK, 0, STACK
        LOCFRAME PSTACK, 0, STACK
        LOCFRAME XSTACK, 15, STACK
        LOCFRAME IOVERLAY, 0, STATIC
        LOCFRAME DOVERLAY, 0, STATIC
        ARGFRAME ISTACK, 0, STACK
        ARGFRAME PSTACK, 0, STACK
        ARGFRAME XSTACK, 15, STACK
        ARGFRAME IOVERLAY, 0, STATIC
        ARGFRAME DOVERLAY, 0, STATIC
        MOV     A,#-0xf
        LCALL   ?BANKED_ENTER_XDATA
        CFI DPH0 load(1, XDATA, add(CFA_XSP16, literal(-1)))
        CFI DPL0 load(1, XDATA, add(CFA_XSP16, literal(-2)))
        CFI ?BRET_EXT load(1, XDATA, add(CFA_XSP16, literal(-3)))
        CFI ?RET_HIGH load(1, XDATA, add(CFA_XSP16, literal(-4)))
        CFI ?RET_LOW load(1, XDATA, add(CFA_XSP16, literal(-5)))
        CFI R7 load(1, XDATA, add(CFA_XSP16, literal(-6)))
        CFI V6 load(1, XDATA, add(CFA_XSP16, literal(-7)))
        CFI V5 load(1, XDATA, add(CFA_XSP16, literal(-8)))
        CFI V4 load(1, XDATA, add(CFA_XSP16, literal(-9)))
        CFI V3 load(1, XDATA, add(CFA_XSP16, literal(-10)))
        CFI V2 load(1, XDATA, add(CFA_XSP16, literal(-11)))
        CFI V1 load(1, XDATA, add(CFA_XSP16, literal(-12)))
        CFI V0 load(1, XDATA, add(CFA_XSP16, literal(-13)))
        CFI VB load(1, XDATA, add(CFA_XSP16, literal(-14)))
        CFI R6 load(1, XDATA, add(CFA_XSP16, literal(-15)))
        CFI CFA_SP SP+0
        CFI CFA_XSP16 add(XSP16, 15)
        ; Saved register size: 15
        ; Auto size: 0
        MOV     ?V0 + 0,R2
        MOV     ?V0 + 1,R3
// 2131   uint8 len = pMsg->asduLen + 9;
        MOV     A,?V0 + 0
        ADD     A,#0x10
        MOV     DPL,A
        MOV     A,?V0 + 1
        ADDC    A,#0x0
        MOV     DPH,A
        MOVX    A,@DPTR
        ADD     A,#0x9
        MOV     ?V0 + 2,A
// 2132   uint8 *pBuf = (uint8 *)osal_mem_alloc(len);
        ; Setup parameters for call to function osal_mem_alloc
        MOV     ?V0 + 4,?V0 + 2
        MOV     ?V0 + 5,#0x0
        MOV     R2,?V0 + 4
        MOV     R3,?V0 + 5
        LCALL   ??osal_mem_alloc?relay
        MOV     ?V0 + 4,R2
        MOV     ?V0 + 5,R3
        MOV     R6,?V0 + 4
        MOV     R7,?V0 + 5
// 2133 
// 2134   if (pBuf != NULL)
        MOV     A,R6
        ORL     A,R7
        JNZ     $+5
        LJMP    ??MT_ZdoSendMsgCB_0 & 0xFFFF
// 2135   {
// 2136     uint8 *pTmp = pBuf;
        MOV     A,R6
        MOV     R2,A
        MOV     A,R7
        MOV     R3,A
// 2137 
// 2138     // Assuming exclusive use of network short addresses.
// 2139     *pTmp++ = LO_UINT16(pMsg->srcAddr.addr.shortAddr);
        MOV     DPL,?V0 + 0
        MOV     DPH,?V0 + 1
        INC     DPTR
        INC     DPTR
        MOVX    A,@DPTR
        MOV     R0,A
        INC     DPTR
        MOVX    A,@DPTR
        MOV     R1,A
        MOV     A,R0
        MOV     DPL,R2
        MOV     DPH,R3
        MOVX    @DPTR,A
        MOV     DPL,R2
        MOV     DPH,R3
        INC     DPTR
        MOV     R2,DPL
        MOV     R3,DPH
// 2140     *pTmp++ = HI_UINT16(pMsg->srcAddr.addr.shortAddr);
        MOV     DPL,?V0 + 0
        MOV     DPH,?V0 + 1
        INC     DPTR
        INC     DPTR
        MOVX    A,@DPTR
        MOV     R0,A
        INC     DPTR
        MOVX    A,@DPTR
        MOV     R1,A
        CLR     A
        MOV     A,R1
        MOV     R0,A
        MOV     DPL,R2
        MOV     DPH,R3
        MOVX    @DPTR,A
        MOV     DPL,R2
        MOV     DPH,R3
        INC     DPTR
        MOV     R2,DPL
        MOV     R3,DPH
// 2141     *pTmp++ = pMsg->wasBroadcast;
        MOV     A,?V0 + 0
        ADD     A,#0xb
        MOV     DPL,A
        MOV     A,?V0 + 1
        ADDC    A,#0x0
        MOV     DPH,A
        MOVX    A,@DPTR
        MOV     DPL,R2
        MOV     DPH,R3
        MOVX    @DPTR,A
        MOV     DPL,R2
        MOV     DPH,R3
        INC     DPTR
        MOV     R2,DPL
        MOV     R3,DPH
// 2142     *pTmp++ = LO_UINT16(pMsg->clusterID);
        MOV     A,?V0 + 0
        ADD     A,#0xc
        MOV     DPL,A
        MOV     A,?V0 + 1
        ADDC    A,#0x0
        MOV     DPH,A
        MOVX    A,@DPTR
        MOV     R0,A
        INC     DPTR
        MOVX    A,@DPTR
        MOV     R1,A
        MOV     A,R0
        MOV     DPL,R2
        MOV     DPH,R3
        MOVX    @DPTR,A
        MOV     DPL,R2
        MOV     DPH,R3
        INC     DPTR
        MOV     R2,DPL
        MOV     R3,DPH
// 2143     *pTmp++ = HI_UINT16(pMsg->clusterID);
        MOV     A,?V0 + 0
        ADD     A,#0xc
        MOV     DPL,A
        MOV     A,?V0 + 1
        ADDC    A,#0x0
        MOV     DPH,A
        MOVX    A,@DPTR
        MOV     R0,A
        INC     DPTR
        MOVX    A,@DPTR
        MOV     R1,A
        CLR     A
        MOV     A,R1
        MOV     R0,A
        MOV     DPL,R2
        MOV     DPH,R3
        MOVX    @DPTR,A
        MOV     DPL,R2
        MOV     DPH,R3
        INC     DPTR
        MOV     R2,DPL
        MOV     R3,DPH
// 2144     *pTmp++ = pMsg->SecurityUse;
        MOV     A,?V0 + 0
        ADD     A,#0xe
        MOV     DPL,A
        MOV     A,?V0 + 1
        ADDC    A,#0x0
        MOV     DPH,A
        MOVX    A,@DPTR
        MOV     DPL,R2
        MOV     DPH,R3
        MOVX    @DPTR,A
        MOV     DPL,R2
        MOV     DPH,R3
        INC     DPTR
        MOV     R2,DPL
        MOV     R3,DPH
// 2145     *pTmp++ = pMsg->TransSeq;
        MOV     A,?V0 + 0
        ADD     A,#0xf
        MOV     DPL,A
        MOV     A,?V0 + 1
        ADDC    A,#0x0
        MOV     DPH,A
        MOVX    A,@DPTR
        MOV     DPL,R2
        MOV     DPH,R3
        MOVX    @DPTR,A
        MOV     DPL,R2
        MOV     DPH,R3
        INC     DPTR
        MOV     R2,DPL
        MOV     R3,DPH
// 2146     // Skipping asduLen since it can be deduced from the RPC packet length.
// 2147     *pTmp++ = LO_UINT16(pMsg->macDestAddr);
        MOV     A,?V0 + 0
        ADD     A,#0x11
        MOV     DPL,A
        MOV     A,?V0 + 1
        ADDC    A,#0x0
        MOV     DPH,A
        MOVX    A,@DPTR
        MOV     R0,A
        INC     DPTR
        MOVX    A,@DPTR
        MOV     R1,A
        MOV     A,R0
        MOV     DPL,R2
        MOV     DPH,R3
        MOVX    @DPTR,A
        MOV     DPL,R2
        MOV     DPH,R3
        INC     DPTR
        MOV     R2,DPL
        MOV     R3,DPH
// 2148     *pTmp++ = HI_UINT16(pMsg->macDestAddr);
        MOV     A,?V0 + 0
        ADD     A,#0x11
        MOV     DPL,A
        MOV     A,?V0 + 1
        ADDC    A,#0x0
        MOV     DPH,A
        MOVX    A,@DPTR
        MOV     R0,A
        INC     DPTR
        MOVX    A,@DPTR
        MOV     R1,A
        CLR     A
        MOV     A,R1
        MOV     R0,A
        MOV     DPL,R2
        MOV     DPH,R3
        MOVX    @DPTR,A
        MOV     DPL,R2
        MOV     DPH,R3
        INC     DPTR
        MOV     R2,DPL
        MOV     R3,DPH
// 2149     (void)osal_memcpy(pTmp, pMsg->asdu, pMsg->asduLen);
        ; Setup parameters for call to function osal_memcpy
        MOV     A,?V0 + 0
        ADD     A,#0x13
        MOV     DPL,A
        MOV     A,?V0 + 1
        ADDC    A,#0x0
        MOV     DPH,A
        MOVX    A,@DPTR
        MOV     ?V0 + 4,A
        INC     DPTR
        MOVX    A,@DPTR
        MOV     ?V0 + 5,A
        MOV     ?V0 + 6,#0x0
        MOV     R0,#?V0 + 4
        LCALL   ?PUSH_XSTACK_I_THREE
        CFI CFA_XSP16 add(XSP16, 18)
        MOV     A,?V0 + 0
        ADD     A,#0x10
        MOV     DPL,A
        MOV     A,?V0 + 1
        ADDC    A,#0x0
        MOV     DPH,A
        MOVX    A,@DPTR
        MOV     R4,A
        MOV     R5,#0x0
        LCALL   ??osal_memcpy?relay
        MOV     A,#0x3
        LCALL   ?DEALLOC_XSTACK8
        CFI CFA_XSP16 add(XSP16, 15)
        MOV     ?V0 + 4,R2
        MOV     ?V0 + 5,R3
        MOV     ?V0 + 0,?V0 + 4
        MOV     ?V0 + 1,?V0 + 5
// 2150 
// 2151     MT_BuildAndSendZToolResponse(((uint8)MT_RPC_CMD_AREQ | (uint8)MT_RPC_SYS_ZDO),
// 2152                                          MT_ZDO_MSG_CB_INCOMING, len, pBuf);
        ; Setup parameters for call to function MT_BuildAndSendZToolResponse
        MOV     A,R6
        MOV     R4,A
        MOV     A,R7
        MOV     R5,A
        MOV     R3,?V0 + 2
        MOV     R2,#-0x1
        MOV     R1,#0x45
        LCALL   ??MT_BuildAndSendZToolResponse?relay
// 2153 
// 2154     osal_mem_free(pBuf);
        ; Setup parameters for call to function osal_mem_free
        MOV     A,R6
        MOV     R2,A
        MOV     A,R7
        MOV     R3,A
        LCALL   ??osal_mem_free?relay
// 2155   }
// 2156 }
??MT_ZdoSendMsgCB_0:
        MOV     R7,#0x7
        LJMP    ?BANKED_LEAVE_XDATA
        CFI EndBlock cfiBlock25

        RSEG BANK_RELAYS:CODE:REORDER:NOROOT(0)
??MT_ZdoInit?relay:
        LCALL   ?BDISPATCH
        DATA
        DC24    MT_ZdoInit

        RSEG BANK_RELAYS:CODE:REORDER:NOROOT(0)
??MT_ZdoCommandProcessing?relay:
        LCALL   ?BDISPATCH
        DATA
        DC24    MT_ZdoCommandProcessing

        RSEG BANK_RELAYS:CODE:REORDER:NOROOT(0)
??MT_ZdoNWKAddressRequest?relay:
        LCALL   ?BDISPATCH
        DATA
        DC24    MT_ZdoNWKAddressRequest

        RSEG BANK_RELAYS:CODE:REORDER:NOROOT(0)
??MT_ZdoIEEEAddrRequest?relay:
        LCALL   ?BDISPATCH
        DATA
        DC24    MT_ZdoIEEEAddrRequest

        RSEG BANK_RELAYS:CODE:REORDER:NOROOT(0)
??MT_ZdoNodeDescRequest?relay:
        LCALL   ?BDISPATCH
        DATA
        DC24    MT_ZdoNodeDescRequest

        RSEG BANK_RELAYS:CODE:REORDER:NOROOT(0)
??MT_ZdoPowerDescRequest?relay:
        LCALL   ?BDISPATCH
        DATA
        DC24    MT_ZdoPowerDescRequest

        RSEG BANK_RELAYS:CODE:REORDER:NOROOT(0)
??MT_ZdoSimpleDescRequest?relay:
        LCALL   ?BDISPATCH
        DATA
        DC24    MT_ZdoSimpleDescRequest

        RSEG BANK_RELAYS:CODE:REORDER:NOROOT(0)
??MT_ZdoActiveEpRequest?relay:
        LCALL   ?BDISPATCH
        DATA
        DC24    MT_ZdoActiveEpRequest

        RSEG BANK_RELAYS:CODE:REORDER:NOROOT(0)
??MT_ZdoMatchDescRequest?relay:
        LCALL   ?BDISPATCH
        DATA
        DC24    MT_ZdoMatchDescRequest

        RSEG BANK_RELAYS:CODE:REORDER:NOROOT(0)
??MT_ZdoComplexDescRequest?relay:
        LCALL   ?BDISPATCH
        DATA
        DC24    MT_ZdoComplexDescRequest

        RSEG BANK_RELAYS:CODE:REORDER:NOROOT(0)
??MT_ZdoUserDescRequest?relay:
        LCALL   ?BDISPATCH
        DATA
        DC24    MT_ZdoUserDescRequest

        RSEG BANK_RELAYS:CODE:REORDER:NOROOT(0)
??MT_ZdoEndDevAnnce?relay:
        LCALL   ?BDISPATCH
        DATA
        DC24    MT_ZdoEndDevAnnce

        RSEG BANK_RELAYS:CODE:REORDER:NOROOT(0)
??MT_ZdoUserDescSet?relay:
        LCALL   ?BDISPATCH
        DATA
        DC24    MT_ZdoUserDescSet

        RSEG BANK_RELAYS:CODE:REORDER:NOROOT(0)
??MT_ZdoServiceDiscRequest?relay:
        LCALL   ?BDISPATCH
        DATA
        DC24    MT_ZdoServiceDiscRequest

        RSEG BANK_RELAYS:CODE:REORDER:NOROOT(0)
??MT_ZdoEndDevBindRequest?relay:
        LCALL   ?BDISPATCH
        DATA
        DC24    MT_ZdoEndDevBindRequest

        RSEG BANK_RELAYS:CODE:REORDER:NOROOT(0)
??MT_ZdoBindRequest?relay:
        LCALL   ?BDISPATCH
        DATA
        DC24    MT_ZdoBindRequest

        RSEG BANK_RELAYS:CODE:REORDER:NOROOT(0)
??MT_ZdoUnbindRequest?relay:
        LCALL   ?BDISPATCH
        DATA
        DC24    MT_ZdoUnbindRequest

        RSEG BANK_RELAYS:CODE:REORDER:NOROOT(0)
??MT_ZdoStartupFromApp?relay:
        LCALL   ?BDISPATCH
        DATA
        DC24    MT_ZdoStartupFromApp

        RSEG BANK_RELAYS:CODE:REORDER:NOROOT(0)
??MT_ZdoNetworkDiscoveryReq?relay:
        LCALL   ?BDISPATCH
        DATA
        DC24    MT_ZdoNetworkDiscoveryReq

        RSEG BANK_RELAYS:CODE:REORDER:NOROOT(0)
??MT_ZdoJoinReq?relay:
        LCALL   ?BDISPATCH
        DATA
        DC24    MT_ZdoJoinReq

        RSEG BANK_RELAYS:CODE:REORDER:NOROOT(0)
??MT_ZdoNwkDiscoveryCnfCB?relay:
        LCALL   ?BDISPATCH
        DATA
        DC24    MT_ZdoNwkDiscoveryCnfCB

        RSEG BANK_RELAYS:CODE:REORDER:NOROOT(0)
??MT_ZdoBeaconIndCB?relay:
        LCALL   ?BDISPATCH
        DATA
        DC24    MT_ZdoBeaconIndCB

        RSEG BANK_RELAYS:CODE:REORDER:NOROOT(0)
??MT_ZdoJoinCnfCB?relay:
        LCALL   ?BDISPATCH
        DATA
        DC24    MT_ZdoJoinCnfCB

        RSEG BANK_RELAYS:CODE:REORDER:NOROOT(0)
??MT_ZdoRegisterForZDOMsg?relay:
        LCALL   ?BDISPATCH
        DATA
        DC24    MT_ZdoRegisterForZDOMsg

        RSEG BANK_RELAYS:CODE:REORDER:NOROOT(0)
??MT_ZdoRemoveRegisteredCB?relay:
        LCALL   ?BDISPATCH
        DATA
        DC24    MT_ZdoRemoveRegisteredCB

        RSEG BANK_RELAYS:CODE:REORDER:NOROOT(0)
??MT_ZdoSendMsgCB?relay:
        LCALL   ?BDISPATCH
        DATA
        DC24    MT_ZdoSendMsgCB

        END
// 2157 
// 2158 #endif   /*ZDO Command Processing in MT*/
// 2159 /***************************************************************************************************
// 2160 ***************************************************************************************************/
// 
// 5 894 bytes in segment BANKED_CODE
//   156 bytes in segment BANK_RELAYS
//     6 bytes in segment XDATA_Z
// 
// 6 050 bytes of CODE  memory
//     6 bytes of XDATA memory
//
//Errors: none
//Warnings: none
