###############################################################################
#                                                                             #
# IAR C/C++ Compiler V8.10.3.10338/W32 for 8051         25/Aug/2018  23:10:05 #
# Copyright 2004-2011 IAR Systems AB.                                         #
#                                                                             #
#    Core               =  plain                                              #
#    Code model         =  banked                                             #
#    Data model         =  large                                              #
#    Calling convention =  xdata reentrant                                    #
#    Constant location  =  data_rom                                           #
#    Dptr setup         =  1,16                                               #
#    Source file        =  F:\work\iot-hardware\logger\logger\Components\osal #
#                          \common\OSAL_Clock.c                               #
#    Command line       =  -f F:\work\iot-hardware\logger\logger\Projects\zst #
#                          ack\Samples\GenericApp\CC2530DB\..\..\..\Tools\CC2 #
#                          530DB\f8wEndev.cfg (-DCPU32MHZ -DROOT=__near_func  #
#                          -DMAC_CFG_TX_DATA_MAX=3 -DMAC_CFG_TX_MAX=6         #
#                          -DMAC_CFG_RX_MAX=3) -f F:\work\iot-hardware\logger #
#                          \logger\Projects\zstack\Samples\GenericApp\CC2530D #
#                          B\..\..\..\Tools\CC2530DB\f8wConfig.cfg            #
#                          (-DZIGBEEPRO -DSECURE=0 -DZG_SECURE_DYNAMIC=0      #
#                          -DREFLECTOR -DDEFAULT_CHANLIST=0x00000800          #
#                          -DZDAPP_CONFIG_PAN_ID=0xFFFF                       #
#                          -DNWK_START_DELAY=100 -DEXTENDED_JOINING_RANDOM_MA #
#                          SK=0x007F -DBEACON_REQUEST_DELAY=100               #
#                          -DBEACON_REQ_DELAY_MASK=0x00FF                     #
#                          -DLINK_STATUS_JITTER_MASK=0x007F                   #
#                          -DROUTE_EXPIRY_TIME=30 -DAPSC_ACK_WAIT_DURATION_PO #
#                          LLED=3000 -DNWK_INDIRECT_MSG_TIMEOUT=7             #
#                          -DMAX_RREQ_ENTRIES=8 -DAPSC_MAX_FRAME_RETRIES=3    #
#                          -DNWK_MAX_DATA_RETRIES=2                           #
#                          -DMAX_POLL_FAILURE_RETRIES=2 -DMAX_BCAST=9         #
#                          -DAPS_MAX_GROUPS=16 -DMAX_RTG_ENTRIES=40           #
#                          -DNWK_MAX_BINDING_ENTRIES=4                        #
#                          -DMAX_BINDING_CLUSTER_IDS=4 "-DDEFAULT_KEY={0x01,  #
#                          0x03, 0x05, 0x07, 0x09, 0x0B, 0x0D, 0x0F, 0x00,    #
#                          0x02, 0x04, 0x06, 0x08, 0x0A, 0x0C, 0x0D}"         #
#                          -DMAC_MAX_FRAME_SIZE=116                           #
#                          -DZDNWKMGR_MIN_TRANSMISSIONS=20 "-DCONST=const     #
#                          __code" -DGENERIC=__generic                        #
#                          -DRFD_RCVC_ALWAYS_ON=FALSE -DPOLL_RATE=1000        #
#                          -DQUEUED_POLL_RATE=100 -DRESPONSE_POLL_RATE=100)   #
#                          -DREJOIN_POLL_RATE=440 F:\work\iot-hardware\logger #
#                          \logger\Components\osal\common\OSAL_Clock.c -D     #
#                          NWK_AUTO_POLL -D ZTOOL_P1 -D MT_TASK -D            #
#                          MT_SYS_FUNC -D MT_ZDO_FUNC -D LCD_SUPPORTED=DEBUG  #
#                          -D xPOWER_SAVING -lC F:\work\iot-hardware\logger\l #
#                          ogger\Projects\zstack\Samples\GenericApp\CC2530DB\ #
#                          EndDeviceEB\List\ -lA F:\work\iot-hardware\logger\ #
#                          logger\Projects\zstack\Samples\GenericApp\CC2530DB #
#                          \EndDeviceEB\List\ --diag_suppress Pe001,Pa010 -o  #
#                          F:\work\iot-hardware\logger\logger\Projects\zstack #
#                          \Samples\GenericApp\CC2530DB\EndDeviceEB\Obj\ -e   #
#                          --no_cse --no_unroll --no_inline --no_code_motion  #
#                          --no_tbaa --debug --core=plain --dptr=16,1         #
#                          --data_model=large --code_model=banked             #
#                          --calling_convention=xdata_reentrant               #
#                          --place_constants=data_rom --nr_virtual_regs 16    #
#                          -I F:\work\iot-hardware\logger\logger\Projects\zst #
#                          ack\Samples\GenericApp\CC2530DB\ -I                #
#                          F:\work\iot-hardware\logger\logger\Projects\zstack #
#                          \Samples\GenericApp\CC2530DB\..\Source\ -I         #
#                          F:\work\iot-hardware\logger\logger\Projects\zstack #
#                          \Samples\GenericApp\CC2530DB\..\..\..\ZMain\TI2530 #
#                          DB\ -I F:\work\iot-hardware\logger\logger\Projects #
#                          \zstack\Samples\GenericApp\CC2530DB\..\..\..\..\.. #
#                          \Components\hal\include\ -I                        #
#                          F:\work\iot-hardware\logger\logger\Projects\zstack #
#                          \Samples\GenericApp\CC2530DB\..\..\..\..\..\Compon #
#                          ents\hal\target\CC2530EB\ -I                       #
#                          F:\work\iot-hardware\logger\logger\Projects\zstack #
#                          \Samples\GenericApp\CC2530DB\..\..\..\..\..\Compon #
#                          ents\mac\include\ -I F:\work\iot-hardware\logger\l #
#                          ogger\Projects\zstack\Samples\GenericApp\CC2530DB\ #
#                          ..\..\..\..\..\Components\mac\high_level\ -I       #
#                          F:\work\iot-hardware\logger\logger\Projects\zstack #
#                          \Samples\GenericApp\CC2530DB\..\..\..\..\..\Compon #
#                          ents\mac\low_level\srf04\ -I                       #
#                          F:\work\iot-hardware\logger\logger\Projects\zstack #
#                          \Samples\GenericApp\CC2530DB\..\..\..\..\..\Compon #
#                          ents\mac\low_level\srf04\single_chip\ -I           #
#                          F:\work\iot-hardware\logger\logger\Projects\zstack #
#                          \Samples\GenericApp\CC2530DB\..\..\..\..\..\Compon #
#                          ents\mt\ -I F:\work\iot-hardware\logger\logger\Pro #
#                          jects\zstack\Samples\GenericApp\CC2530DB\..\..\..\ #
#                          ..\..\Components\osal\include\ -I                  #
#                          F:\work\iot-hardware\logger\logger\Projects\zstack #
#                          \Samples\GenericApp\CC2530DB\..\..\..\..\..\Compon #
#                          ents\services\saddr\ -I F:\work\iot-hardware\logge #
#                          r\logger\Projects\zstack\Samples\GenericApp\CC2530 #
#                          DB\..\..\..\..\..\Components\services\sdata\ -I    #
#                          F:\work\iot-hardware\logger\logger\Projects\zstack #
#                          \Samples\GenericApp\CC2530DB\..\..\..\..\..\Compon #
#                          ents\stack\af\ -I F:\work\iot-hardware\logger\logg #
#                          er\Projects\zstack\Samples\GenericApp\CC2530DB\..\ #
#                          ..\..\..\..\Components\stack\nwk\ -I               #
#                          F:\work\iot-hardware\logger\logger\Projects\zstack #
#                          \Samples\GenericApp\CC2530DB\..\..\..\..\..\Compon #
#                          ents\stack\sapi\ -I F:\work\iot-hardware\logger\lo #
#                          gger\Projects\zstack\Samples\GenericApp\CC2530DB\. #
#                          .\..\..\..\..\Components\stack\sec\ -I             #
#                          F:\work\iot-hardware\logger\logger\Projects\zstack #
#                          \Samples\GenericApp\CC2530DB\..\..\..\..\..\Compon #
#                          ents\stack\sys\ -I F:\work\iot-hardware\logger\log #
#                          ger\Projects\zstack\Samples\GenericApp\CC2530DB\.. #
#                          \..\..\..\..\Components\stack\zdo\ -I              #
#                          F:\work\iot-hardware\logger\logger\Projects\zstack #
#                          \Samples\GenericApp\CC2530DB\..\..\..\..\..\Compon #
#                          ents\zmac\ -I F:\work\iot-hardware\logger\logger\P #
#                          rojects\zstack\Samples\GenericApp\CC2530DB\..\..\. #
#                          .\..\..\Components\zmac\f8w\ -Ol                   #
#                          --require_prototypes                               #
#    List file          =  F:\work\iot-hardware\logger\logger\Projects\zstack #
#                          \Samples\GenericApp\CC2530DB\EndDeviceEB\List\OSAL #
#                          _Clock.lst                                         #
#    Object file        =  F:\work\iot-hardware\logger\logger\Projects\zstack #
#                          \Samples\GenericApp\CC2530DB\EndDeviceEB\Obj\OSAL_ #
#                          Clock.r51                                          #
#                                                                             #
#                                                                             #
###############################################################################

F:\work\iot-hardware\logger\logger\Components\osal\common\OSAL_Clock.c
      1          /******************************************************************************
      2            Filename:       OSAL_Clock.c
      3            Revised:        $Date: 2012-03-02 15:52:01 -0800 (Fri, 02 Mar 2012) $
      4            Revision:       $Revision: 29608 $
      5          
      6            Description:    OSAL Clock definition and manipulation functions.
      7          
      8            Copyright 2008-2012 Texas Instruments Incorporated. All rights reserved.
      9          
     10            IMPORTANT: Your use of this Software is limited to those specific rights
     11            granted under the terms of a software license agreement between the user
     12            who downloaded the software, his/her employer (which must be your employer)
     13            and Texas Instruments Incorporated (the "License"). You may not use this
     14            Software unless you agree to abide by the terms of the License. The License
     15            limits your use, and you acknowledge, that the Software may not be modified,
     16            copied or distributed unless embedded on a Texas Instruments microcontroller
     17            or used solely and exclusively in conjunction with a Texas Instruments radio
     18            frequency transceiver, which is integrated into your product. Other than for
     19            the foregoing purpose, you may not use, reproduce, copy, prepare derivative
     20            works of, modify, distribute, perform, display or sell this Software and/or
     21            its documentation for any purpose.
     22          
     23            YOU FURTHER ACKNOWLEDGE AND AGREE THAT THE SOFTWARE AND DOCUMENTATION ARE
     24            PROVIDED “AS IS” WITHOUT WARRANTY OF ANY KIND, EITHER EXPRESS OR IMPLIED,
     25            INCLUDING WITHOUT LIMITATION, ANY WARRANTY OF MERCHANTABILITY, TITLE,
     26            NON-INFRINGEMENT AND FITNESS FOR A PARTICULAR PURPOSE. IN NO EVENT SHALL
     27            TEXAS INSTRUMENTS OR ITS LICENSORS BE LIABLE OR OBLIGATED UNDER CONTRACT,
     28            NEGLIGENCE, STRICT LIABILITY, CONTRIBUTION, BREACH OF WARRANTY, OR OTHER
     29            LEGAL EQUITABLE THEORY ANY DIRECT OR INDIRECT DAMAGES OR EXPENSES
     30            INCLUDING BUT NOT LIMITED TO ANY INCIDENTAL, SPECIAL, INDIRECT, PUNITIVE
     31            OR CONSEQUENTIAL DAMAGES, LOST PROFITS OR LOST DATA, COST OF PROCUREMENT
     32            OF SUBSTITUTE GOODS, TECHNOLOGY, SERVICES, OR ANY CLAIMS BY THIRD PARTIES
     33            (INCLUDING BUT NOT LIMITED TO ANY DEFENSE THEREOF), OR OTHER SIMILAR COSTS.
     34          
     35            Should you have any questions regarding your right to use this Software,
     36            contact Texas Instruments Incorporated at www.TI.com.
     37          ******************************************************************************/
     38          
     39          /*********************************************************************
     40           * INCLUDES
     41           */
     42          
     43          #include "comdef.h"
     44          #include "OnBoard.h"

   \                                 In  segment SFR_AN, at 0xa8
   \   union <unnamed> volatile __sfr _A_IEN0
   \                     _A_IEN0:
   \   000000                DS 1
     45          #include "OSAL.h"
     46          #include "OSAL_Clock.h"
     47          
     48          /*********************************************************************
     49           * MACROS
     50           */
     51          
     52          #define	YearLength(yr)	((uint16)(IsLeapYear(yr) ? 366 : 365))
     53          
     54          /*********************************************************************
     55           * CONSTANTS
     56           */
     57          
     58          #define	BEGYEAR  2000     //  UTC started at 00:00:00 January 1, 2000
     59          
     60          #define	DAY      86400UL  // 24 hours * 60 minutes * 60 seconds
     61          
     62          /*********************************************************************
     63           * TYPEDEFS
     64           */
     65          
     66          /*********************************************************************
     67           * GLOBAL VARIABLES
     68           */
     69          
     70          /*********************************************************************
     71           * EXTERNAL VARIABLES
     72           */
     73          
     74          /*********************************************************************
     75           * EXTERNAL FUNCTIONS
     76           */
     77          extern uint32 macMcuPrecisionCount(void);
     78          
     79          #if (defined HAL_MCU_CC2430) || (defined HAL_MCU_CC2530) || (defined HAL_MCU_CC2533)
     80          
     81            /*  This function is used to divide a 31 bit dividend by a 16 bit
     82             *  divisor and return a packed 16 bit quotient and 16 bit
     83             *  remainder.
     84             *
     85             *  Note: This routine takes ~25.6us @32MHz. With C overhead, the
     86             *        time is ~32us.
     87             *
     88             *  dividend - 31 bit dividend.
     89             *  divisor - 16 bit divisor.
     90             *
     91             *  return - MSW divisor; LSW quotient
     92             */
     93            extern __near_func uint32 osalMcuDivide31By16To16( uint32 dividend, uint16 divisor );
     94          
     95            #define CONVERT_320US_TO_MS_ELAPSED_REMAINDER( x, y, z ) st( \
     96                                                                         \
     97              /* The 16 bit quotient is in MSW and */                    \
     98              /* the 16 bit remainder is in LSW. */                      \
     99              x = osalMcuDivide31By16To16( x, 25 );                      \
    100                                                                         \
    101              /* Add quotient to y */                                    \
    102              y += (x >> 16);                                            \
    103                                                                         \
    104              /* Copy remainder to z */                                  \
    105              z = (uint16)(x & 0x0FFFF);                                 \
    106            )
    107          
    108          #else /* (defined HAL_MCU_CC2430) || (defined HAL_MCU_CC2530) || (defined HAL_MCU_CC2533) */
    109          
    110            #define CONVERT_320US_TO_MS_ELAPSED_REMAINDER( x, y, z ) st( \
    111              y += x / 25;                                               \
    112              z = x % 25;                                                \
    113            )
    114          
    115          #endif /* (defined HAL_MCU_CC2430) || (defined HAL_MCU_CC2530) || (defined HAL_MCU_CC2533) */
    116          
    117          /*********************************************************************
    118           * LOCAL VARIABLES
    119           */

   \                                 In  segment XDATA_Z, align 1, keep-with-next
    120          static uint32 previousMacTimerTick = 0;
   \                     previousMacTimerTick:
   \   000000                DS 4
   \   000004                REQUIRE __INIT_XDATA_Z

   \                                 In  segment XDATA_Z, align 1, keep-with-next
    121          static uint16 remUsTicks = 0;
   \                     remUsTicks:
   \   000000                DS 2
   \   000002                REQUIRE __INIT_XDATA_Z

   \                                 In  segment XDATA_Z, align 1, keep-with-next
    122          static uint16 timeMSec = 0;
   \                     timeMSec:
   \   000000                DS 2
   \   000002                REQUIRE __INIT_XDATA_Z
    123          
    124          // number of seconds since 0 hrs, 0 minutes, 0 seconds, on the
    125          // 1st of January 2000 UTC

   \                                 In  segment XDATA_Z, align 1, keep-with-next
    126          UTCTime OSAL_timeSeconds = 0;
   \                     OSAL_timeSeconds:
   \   000000                DS 4
   \   000004                REQUIRE __INIT_XDATA_Z
    127          
    128          /*********************************************************************
    129           * LOCAL FUNCTION PROTOTYPES
    130           */
    131          static uint8 monthLength( uint8 lpyr, uint8 mon );
    132          
    133          static void osalClockUpdate( uint16 elapsedMSec );
    134          
    135          /*********************************************************************
    136           * FUNCTIONS
    137           *********************************************************************/
    138          
    139          /*********************************************************************
    140           * @fn      osalTimeUpdate
    141           *
    142           * @brief   Uses the free running rollover count of the MAC backoff timer;
    143           *          this timer runs freely with a constant 320 usec interval.  The
    144           *          count of 320-usec ticks is converted to msecs and used to update
    145           *          the OSAL clock and Timers by invoking osalClockUpdate() and
    146           *          osalTimerUpdate().  This function is intended to be invoked
    147           *          from the background, not interrupt level.
    148           *
    149           * @param   None.
    150           *
    151           * @return  None.
    152           */

   \                                 In  segment BANKED_CODE, align 1, keep-with-next
    153          void osalTimeUpdate( void )
   \                     osalTimeUpdate:
    154          {
   \   000000   74F0         MOV     A,#-0x10
   \   000002   12....       LCALL   ?BANKED_ENTER_XDATA
   \   000005                ; Saved register size: 16
   \   000005                ; Auto size: 0
    155            halIntState_t intState;
    156            uint32 tmp;
    157            uint32 ticks320us;
    158            uint16 elapsedMSec = 0;
   \   000005   7E00         MOV     R6,#0x0
   \   000007   7F00         MOV     R7,#0x0
    159          
    160            HAL_ENTER_CRITICAL_SECTION(intState);
   \   000009   A2AF         MOV     C,0xa8.7
   \   00000B   E4           CLR     A
   \   00000C   33           RLC     A
   \   00000D   F5..         MOV     ?V0 + 4,A
   \   00000F   C2AF         CLR     0xa8.7
    161            // Get the free-running count of 320us timer ticks
    162            tmp = macMcuPrecisionCount();
   \   000011                ; Setup parameters for call to function macMcuPrecisionCount
   \   000011   12....       LCALL   ??macMcuPrecisionCount?relay
   \   000014   8A..         MOV     ?V0 + 0,R2
   \   000016   8B..         MOV     ?V0 + 1,R3
   \   000018   8C..         MOV     ?V0 + 2,R4
   \   00001A   8D..         MOV     ?V0 + 3,R5
    163            HAL_EXIT_CRITICAL_SECTION(intState);
   \   00001C   E5..         MOV     A,?V0 + 4
   \   00001E   A2E0         MOV     C,0xE0 /* A   */.0
   \   000020   92AF         MOV     0xa8.7,C
    164            
    165            if ( tmp != previousMacTimerTick )
   \   000022   90....       MOV     DPTR,#previousMacTimerTick
   \   000025   78..         MOV     R0,#?V0 + 0
   \   000027   12....       LCALL   ?L_EQ_X
   \   00002A   7003         JNZ     $+5
   \   00002C   02....       LJMP    ??osalTimeUpdate_0 & 0xFFFF
    166            {
    167              // Calculate the elapsed ticks of the free-running timer.
    168              ticks320us = (tmp - previousMacTimerTick) & 0xffffffffu;
   \   00002F   85....       MOV     ?V0 + 4,?V0 + 0
   \   000032   85....       MOV     ?V0 + 5,?V0 + 1
   \   000035   85....       MOV     ?V0 + 6,?V0 + 2
   \   000038   85....       MOV     ?V0 + 7,?V0 + 3
   \   00003B   90....       MOV     DPTR,#previousMacTimerTick
   \   00003E   78..         MOV     R0,#?V0 + 4
   \   000040   12....       LCALL   ?L_SUB_X
    169          
    170              // Store the MAC Timer tick count for the next time through this function.
    171              previousMacTimerTick = tmp;
   \   000043   90....       MOV     DPTR,#previousMacTimerTick
   \   000046   78..         MOV     R0,#?V0 + 0
   \   000048   12....       LCALL   ?L_MOV_TO_X
    172              
    173              // update converted number with remaining ticks from loop and the
    174              // accumulated remainder from loop
    175              tmp = (ticks320us * 8) + remUsTicks;
   \   00004B   85....       MOV     ?V0 + 0,?V0 + 4
   \   00004E   85....       MOV     ?V0 + 1,?V0 + 5
   \   000051   85....       MOV     ?V0 + 2,?V0 + 6
   \   000054   85....       MOV     ?V0 + 3,?V0 + 7
   \   000057   90....       MOV     DPTR,#__Constant_8
   \   00005A   78..         MOV     R0,#?V0 + 4
   \   00005C   12....       LCALL   ?L_MOV_X
   \   00005F   78..         MOV     R0,#?V0 + 0
   \   000061   79..         MOV     R1,#?V0 + 4
   \   000063   12....       LCALL   ?L_MUL
   \   000066   90....       MOV     DPTR,#remUsTicks
   \   000069   E0           MOVX    A,@DPTR
   \   00006A   F5..         MOV     ?V0 + 4,A
   \   00006C   A3           INC     DPTR
   \   00006D   E0           MOVX    A,@DPTR
   \   00006E   F5..         MOV     ?V0 + 5,A
   \   000070   E4           CLR     A
   \   000071   F5..         MOV     ?V0 + 6,A
   \   000073   F5..         MOV     ?V0 + 7,A
   \   000075   78..         MOV     R0,#?V0 + 0
   \   000077   79..         MOV     R1,#?V0 + 4
   \   000079   12....       LCALL   ?L_ADD
    176          
    177              // Convert the 320 us ticks into milliseconds and a remainder
    178              CONVERT_320US_TO_MS_ELAPSED_REMAINDER( tmp, elapsedMSec, remUsTicks );
   \   00007C                ; Setup parameters for call to function osalMcuDivide31By16To16
   \   00007C   75..19       MOV     ?V0 + 4,#0x19
   \   00007F   75..00       MOV     ?V0 + 5,#0x0
   \   000082   78..         MOV     R0,#?V0 + 4
   \   000084   12....       LCALL   ?PUSH_XSTACK_I_TWO
   \   000087   AA..         MOV     R2,?V0 + 0
   \   000089   AB..         MOV     R3,?V0 + 1
   \   00008B   AC..         MOV     R4,?V0 + 2
   \   00008D   AD..         MOV     R5,?V0 + 3
   \   00008F   12....       LCALL   osalMcuDivide31By16To16 & 0xFFFF
   \   000092   7402         MOV     A,#0x2
   \   000094   12....       LCALL   ?DEALLOC_XSTACK8
   \   000097   8A..         MOV     ?V0 + 0,R2
   \   000099   8B..         MOV     ?V0 + 1,R3
   \   00009B   8C..         MOV     ?V0 + 2,R4
   \   00009D   8D..         MOV     ?V0 + 3,R5
   \   00009F   85....       MOV     ?V0 + 4,?V0 + 0
   \   0000A2   85....       MOV     ?V0 + 5,?V0 + 1
   \   0000A5   85....       MOV     ?V0 + 6,?V0 + 2
   \   0000A8   85....       MOV     ?V0 + 7,?V0 + 3
   \   0000AB   7410         MOV     A,#0x10
   \   0000AD   78..         MOV     R0,#?V0 + 4
   \   0000AF   12....       LCALL   ?UL_SHR
   \   0000B2   EE           MOV     A,R6
   \   0000B3   25..         ADD     A,?V0 + 4
   \   0000B5   FE           MOV     R6,A
   \   0000B6   EF           MOV     A,R7
   \   0000B7   35..         ADDC    A,?V0 + 5
   \   0000B9   FF           MOV     R7,A
   \   0000BA   90....       MOV     DPTR,#remUsTicks
   \   0000BD   E5..         MOV     A,?V0 + 0
   \   0000BF   F0           MOVX    @DPTR,A
   \   0000C0   A3           INC     DPTR
   \   0000C1   E5..         MOV     A,?V0 + 1
   \   0000C3   F0           MOVX    @DPTR,A
    179          
    180              // Update OSAL Clock and Timers
    181              if ( elapsedMSec )
   \   0000C4   EE           MOV     A,R6
   \   0000C5   4F           ORL     A,R7
   \   0000C6   600E         JZ      ??osalTimeUpdate_0
    182              {
    183                osalClockUpdate( elapsedMSec );
   \   0000C8                ; Setup parameters for call to function osalClockUpdate
   \   0000C8   EE           MOV     A,R6
   \   0000C9   FA           MOV     R2,A
   \   0000CA   EF           MOV     A,R7
   \   0000CB   FB           MOV     R3,A
   \   0000CC   12....       LCALL   ??osalClockUpdate?relay
    184                osalTimerUpdate( elapsedMSec );
   \   0000CF                ; Setup parameters for call to function osalTimerUpdate
   \   0000CF   EE           MOV     A,R6
   \   0000D0   FA           MOV     R2,A
   \   0000D1   EF           MOV     A,R7
   \   0000D2   FB           MOV     R3,A
   \   0000D3   12....       LCALL   ??osalTimerUpdate?relay
    185              }
    186            }
    187          }
   \                     ??osalTimeUpdate_0:
   \   0000D6   7F08         MOV     R7,#0x8
   \   0000D8   02....       LJMP    ?BANKED_LEAVE_XDATA
   \   0000DB                REQUIRE _A_IEN0
    188          
    189          /*********************************************************************
    190           * @fn      osalClockUpdate
    191           *
    192           * @brief   Updates the OSAL Clock time with elapsed milliseconds.
    193           *
    194           * @param   elapsedMSec - elapsed milliseconds
    195           *
    196           * @return  none
    197           */

   \                                 In  segment BANKED_CODE, align 1, keep-with-next
    198          static void osalClockUpdate( uint16 elapsedMSec )
   \                     osalClockUpdate:
    199          {
   \   000000   74F4         MOV     A,#-0xc
   \   000002   12....       LCALL   ?BANKED_ENTER_XDATA
   \   000005                ; Saved register size: 12
   \   000005                ; Auto size: 0
    200            // Add elapsed milliseconds to the saved millisecond portion of time
    201            timeMSec += elapsedMSec;
   \   000005   90....       MOV     DPTR,#timeMSec
   \   000008   E0           MOVX    A,@DPTR
   \   000009   2A           ADD     A,R2
   \   00000A   F0           MOVX    @DPTR,A
   \   00000B   A3           INC     DPTR
   \   00000C   E0           MOVX    A,@DPTR
   \   00000D   3B           ADDC    A,R3
   \   00000E   F0           MOVX    @DPTR,A
    202          
    203            // Roll up milliseconds to the number of seconds
    204            if ( timeMSec >= 1000 )
   \   00000F   90....       MOV     DPTR,#timeMSec
   \   000012   C3           CLR     C
   \   000013   E0           MOVX    A,@DPTR
   \   000014   94E8         SUBB    A,#-0x18
   \   000016   A3           INC     DPTR
   \   000017   E0           MOVX    A,@DPTR
   \   000018   9403         SUBB    A,#0x3
   \   00001A   4037         JC      ??osalClockUpdate_0
    205            {
    206              OSAL_timeSeconds += timeMSec / 1000;
   \   00001C   90....       MOV     DPTR,#timeMSec
   \   00001F   E0           MOVX    A,@DPTR
   \   000020   F8           MOV     R0,A
   \   000021   A3           INC     DPTR
   \   000022   E0           MOVX    A,@DPTR
   \   000023   F9           MOV     R1,A
   \   000024   7AE8         MOV     R2,#-0x18
   \   000026   7B03         MOV     R3,#0x3
   \   000028   12....       LCALL   ?US_DIV_MOD
   \   00002B   88..         MOV     ?V0 + 0,R0
   \   00002D   89..         MOV     ?V0 + 1,R1
   \   00002F   E4           CLR     A
   \   000030   F5..         MOV     ?V0 + 2,A
   \   000032   F5..         MOV     ?V0 + 3,A
   \   000034   90....       MOV     DPTR,#OSAL_timeSeconds
   \   000037   78..         MOV     R0,#?V0 + 0
   \   000039   12....       LCALL   ?L_ADD_TO_X
    207              timeMSec = timeMSec % 1000;
   \   00003C   90....       MOV     DPTR,#timeMSec
   \   00003F   E0           MOVX    A,@DPTR
   \   000040   F8           MOV     R0,A
   \   000041   A3           INC     DPTR
   \   000042   E0           MOVX    A,@DPTR
   \   000043   F9           MOV     R1,A
   \   000044   7AE8         MOV     R2,#-0x18
   \   000046   7B03         MOV     R3,#0x3
   \   000048   12....       LCALL   ?US_DIV_MOD
   \   00004B   90....       MOV     DPTR,#timeMSec
   \   00004E   EA           MOV     A,R2
   \   00004F   F0           MOVX    @DPTR,A
   \   000050   A3           INC     DPTR
   \   000051   EB           MOV     A,R3
   \   000052   F0           MOVX    @DPTR,A
    208            }
    209          }
   \                     ??osalClockUpdate_0:
   \   000053   7F04         MOV     R7,#0x4
   \   000055   02....       LJMP    ?BANKED_LEAVE_XDATA
    210          
    211          /*********************************************************************
    212           * @fn      osal_setClock
    213           *
    214           * @brief   Set the new time.  This will only set the seconds portion
    215           *          of time and doesn't change the factional second counter.
    216           *
    217           * @param   newTime - number of seconds since 0 hrs, 0 minutes,
    218           *                    0 seconds, on the 1st of January 2000 UTC
    219           *
    220           * @return  none
    221           */

   \                                 In  segment BANKED_CODE, align 1, keep-with-next
    222          void osal_setClock( UTCTime newTime )
   \                     osal_setClock:
    223          {
   \   000000   74F4         MOV     A,#-0xc
   \   000002   12....       LCALL   ?BANKED_ENTER_XDATA
   \   000005                ; Saved register size: 12
   \   000005                ; Auto size: 0
   \   000005   8A..         MOV     ?V0 + 0,R2
   \   000007   8B..         MOV     ?V0 + 1,R3
   \   000009   8C..         MOV     ?V0 + 2,R4
   \   00000B   8D..         MOV     ?V0 + 3,R5
    224            OSAL_timeSeconds = newTime;
   \   00000D   90....       MOV     DPTR,#OSAL_timeSeconds
   \   000010   78..         MOV     R0,#?V0 + 0
   \   000012   12....       LCALL   ?L_MOV_TO_X
    225          }
   \   000015   7F04         MOV     R7,#0x4
   \   000017   02....       LJMP    ?BANKED_LEAVE_XDATA
    226          
    227          /*********************************************************************
    228           * @fn      osal_getClock
    229           *
    230           * @brief   Gets the current time.  This will only return the seconds
    231           *          portion of time and doesn't include the factional second
    232           *          counter.
    233           *
    234           * @param   none
    235           *
    236           * @return  number of seconds since 0 hrs, 0 minutes, 0 seconds,
    237           *          on the 1st of January 2000 UTC
    238           */

   \                                 In  segment BANKED_CODE, align 1, keep-with-next
    239          UTCTime osal_getClock( void )
   \                     osal_getClock:
    240          {
   \   000000   C082         PUSH    DPL
   \   000002   C083         PUSH    DPH
   \   000004                ; Saved register size: 2
   \   000004                ; Auto size: 0
    241            return ( OSAL_timeSeconds );
   \   000004   90....       MOV     DPTR,#OSAL_timeSeconds
   \   000007   12....       LCALL   ?XLOAD_R2345
   \   00000A   D083         POP     DPH
   \   00000C   D082         POP     DPL
   \   00000E   02....       LJMP    ?BRET
    242          }
    243          
    244          /*********************************************************************
    245           * @fn      osal_ConvertUTCTime
    246           *
    247           * @brief   Converts UTCTime to UTCTimeStruct
    248           *
    249           * @param   tm - pointer to breakdown struct
    250           *
    251           * @param   secTime - number of seconds since 0 hrs, 0 minutes,
    252           *          0 seconds, on the 1st of January 2000 UTC
    253           *
    254           * @return  none
    255           */

   \                                 In  segment BANKED_CODE, align 1, keep-with-next
    256          void osal_ConvertUTCTime( UTCTimeStruct *tm, UTCTime secTime )
   \                     osal_ConvertUTCTime:
    257          {
   \   000000   74E8         MOV     A,#-0x18
   \   000002   12....       LCALL   ?BANKED_ENTER_XDATA
   \   000005                ; Saved register size: 24
   \   000005                ; Auto size: 0
   \   000005   EA           MOV     A,R2
   \   000006   FE           MOV     R6,A
   \   000007   EB           MOV     A,R3
   \   000008   FF           MOV     R7,A
   \   000009   7418         MOV     A,#0x18
   \   00000B   12....       LCALL   ?XSTACK_DISP0_8
   \   00000E   78..         MOV     R0,#?V0 + 4
   \   000010   12....       LCALL   ?L_MOV_X
    258            // calculate the time less than a day - hours, minutes, seconds
    259            {
    260              uint32 day = secTime % DAY;
   \   000013   85....       MOV     ?V0 + 0,?V0 + 4
   \   000016   85....       MOV     ?V0 + 1,?V0 + 5
   \   000019   85....       MOV     ?V0 + 2,?V0 + 6
   \   00001C   85....       MOV     ?V0 + 3,?V0 + 7
   \   00001F   90....       MOV     DPTR,#__Constant_15180
   \   000022   78..         MOV     R0,#?V0 + 8
   \   000024   12....       LCALL   ?L_MOV_X
   \   000027   78..         MOV     R0,#?V0 + 0
   \   000029   79..         MOV     R1,#?V0 + 8
   \   00002B   12....       LCALL   ?UL_DIV_MOD
    261              tm->seconds = day % 60UL;
   \   00002E   85....       MOV     ?V0 + 0,?V0 + 8
   \   000031   85....       MOV     ?V0 + 1,?V0 + 9
   \   000034   85....       MOV     ?V0 + 2,?V0 + 10
   \   000037   85....       MOV     ?V0 + 3,?V0 + 11
   \   00003A   90....       MOV     DPTR,#__Constant_3c
   \   00003D   78..         MOV     R0,#?V0 + 12
   \   00003F   12....       LCALL   ?L_MOV_X
   \   000042   78..         MOV     R0,#?V0 + 0
   \   000044   79..         MOV     R1,#?V0 + 12
   \   000046   12....       LCALL   ?UL_DIV_MOD
   \   000049   E5..         MOV     A,?V0 + 12
   \   00004B   8E82         MOV     DPL,R6
   \   00004D   8F83         MOV     DPH,R7
   \   00004F   E5..         MOV     A,?V0 + 12
   \   000051   F0           MOVX    @DPTR,A
    262              tm->minutes = (day % 3600UL) / 60UL;
   \   000052   85....       MOV     ?V0 + 12,?V0 + 8
   \   000055   85....       MOV     ?V0 + 13,?V0 + 9
   \   000058   85....       MOV     ?V0 + 14,?V0 + 10
   \   00005B   85....       MOV     ?V0 + 15,?V0 + 11
   \   00005E   90....       MOV     DPTR,#__Constant_e10
   \   000061   78..         MOV     R0,#?V0 + 0
   \   000063   12....       LCALL   ?L_MOV_X
   \   000066   78..         MOV     R0,#?V0 + 12
   \   000068   79..         MOV     R1,#?V0 + 0
   \   00006A   12....       LCALL   ?UL_DIV_MOD
   \   00006D   90....       MOV     DPTR,#__Constant_3c
   \   000070   78..         MOV     R0,#?V0 + 12
   \   000072   12....       LCALL   ?L_MOV_X
   \   000075   78..         MOV     R0,#?V0 + 0
   \   000077   79..         MOV     R1,#?V0 + 12
   \   000079   12....       LCALL   ?UL_DIV_MOD
   \   00007C   E5..         MOV     A,?V0 + 0
   \   00007E   8E82         MOV     DPL,R6
   \   000080   8F83         MOV     DPH,R7
   \   000082   A3           INC     DPTR
   \   000083   E5..         MOV     A,?V0 + 0
   \   000085   F0           MOVX    @DPTR,A
    263              tm->hour = day / 3600UL;
   \   000086   90....       MOV     DPTR,#__Constant_e10
   \   000089   78..         MOV     R0,#?V0 + 0
   \   00008B   12....       LCALL   ?L_MOV_X
   \   00008E   78..         MOV     R0,#?V0 + 8
   \   000090   79..         MOV     R1,#?V0 + 0
   \   000092   12....       LCALL   ?UL_DIV_MOD
   \   000095   E5..         MOV     A,?V0 + 8
   \   000097   8E82         MOV     DPL,R6
   \   000099   8F83         MOV     DPH,R7
   \   00009B   A3           INC     DPTR
   \   00009C   A3           INC     DPTR
   \   00009D   E5..         MOV     A,?V0 + 8
   \   00009F   F0           MOVX    @DPTR,A
    264            }
    265          
    266            // Fill in the calendar - day, month, year
    267            {
    268              uint16 numDays = secTime / DAY;
   \   0000A0   90....       MOV     DPTR,#__Constant_15180
   \   0000A3   78..         MOV     R0,#?V0 + 0
   \   0000A5   12....       LCALL   ?L_MOV_X
   \   0000A8   78..         MOV     R0,#?V0 + 4
   \   0000AA   79..         MOV     R1,#?V0 + 0
   \   0000AC   12....       LCALL   ?UL_DIV_MOD
   \   0000AF   85....       MOV     ?V0 + 0,?V0 + 4
   \   0000B2   85....       MOV     ?V0 + 1,?V0 + 5
    269              tm->year = BEGYEAR;
   \   0000B5   8E82         MOV     DPL,R6
   \   0000B7   8F83         MOV     DPH,R7
   \   0000B9   A3           INC     DPTR
   \   0000BA   A3           INC     DPTR
   \   0000BB   A3           INC     DPTR
   \   0000BC   A3           INC     DPTR
   \   0000BD   A3           INC     DPTR
   \   0000BE   74D0         MOV     A,#-0x30
   \   0000C0   F0           MOVX    @DPTR,A
   \   0000C1   A3           INC     DPTR
   \   0000C2   7407         MOV     A,#0x7
   \   0000C4   F0           MOVX    @DPTR,A
   \   0000C5   8021         SJMP    ??osal_ConvertUTCTime_0
    270              while ( numDays >= YearLength( tm->year ) )
    271              {
    272                numDays -= YearLength( tm->year );
   \                     ??osal_ConvertUTCTime_1:
   \   0000C7   786D         MOV     R0,#0x6d
   \   0000C9   7901         MOV     R1,#0x1
   \                     ??osal_ConvertUTCTime_2:
   \   0000CB   C3           CLR     C
   \   0000CC   E5..         MOV     A,?V0 + 0
   \   0000CE   98           SUBB    A,R0
   \   0000CF   F5..         MOV     ?V0 + 0,A
   \   0000D1   E5..         MOV     A,?V0 + 1
   \   0000D3   99           SUBB    A,R1
   \   0000D4   F5..         MOV     ?V0 + 1,A
    273                tm->year++;
   \   0000D6   8E82         MOV     DPL,R6
   \   0000D8   8F83         MOV     DPH,R7
   \   0000DA   A3           INC     DPTR
   \   0000DB   A3           INC     DPTR
   \   0000DC   A3           INC     DPTR
   \   0000DD   A3           INC     DPTR
   \   0000DE   A3           INC     DPTR
   \   0000DF   E0           MOVX    A,@DPTR
   \   0000E0   2401         ADD     A,#0x1
   \   0000E2   F0           MOVX    @DPTR,A
   \   0000E3   A3           INC     DPTR
   \   0000E4   E0           MOVX    A,@DPTR
   \   0000E5   3400         ADDC    A,#0x0
   \   0000E7   F0           MOVX    @DPTR,A
   \                     ??osal_ConvertUTCTime_0:
   \   0000E8   8E82         MOV     DPL,R6
   \   0000EA   8F83         MOV     DPH,R7
   \   0000EC   A3           INC     DPTR
   \   0000ED   A3           INC     DPTR
   \   0000EE   A3           INC     DPTR
   \   0000EF   A3           INC     DPTR
   \   0000F0   A3           INC     DPTR
   \   0000F1   E0           MOVX    A,@DPTR
   \   0000F2   F8           MOV     R0,A
   \   0000F3   A3           INC     DPTR
   \   0000F4   E0           MOVX    A,@DPTR
   \   0000F5   F9           MOV     R1,A
   \   0000F6   7A90         MOV     R2,#-0x70
   \   0000F8   7B01         MOV     R3,#0x1
   \   0000FA   12....       LCALL   ?US_DIV_MOD
   \   0000FD   8A..         MOV     ?V0 + 2,R2
   \   0000FF   8B..         MOV     ?V0 + 3,R3
   \   000101   E5..         MOV     A,?V0 + 2
   \   000103   45..         ORL     A,?V0 + 3
   \   000105   603E         JZ      ??osal_ConvertUTCTime_3
   \   000107   8E82         MOV     DPL,R6
   \   000109   8F83         MOV     DPH,R7
   \   00010B   A3           INC     DPTR
   \   00010C   A3           INC     DPTR
   \   00010D   A3           INC     DPTR
   \   00010E   A3           INC     DPTR
   \   00010F   A3           INC     DPTR
   \   000110   E0           MOVX    A,@DPTR
   \   000111   F8           MOV     R0,A
   \   000112   A3           INC     DPTR
   \   000113   E0           MOVX    A,@DPTR
   \   000114   F9           MOV     R1,A
   \   000115   7A64         MOV     R2,#0x64
   \   000117   7B00         MOV     R3,#0x0
   \   000119   12....       LCALL   ?US_DIV_MOD
   \   00011C   8A..         MOV     ?V0 + 2,R2
   \   00011E   8B..         MOV     ?V0 + 3,R3
   \   000120   E5..         MOV     A,?V0 + 2
   \   000122   45..         ORL     A,?V0 + 3
   \   000124   6025         JZ      ??osal_ConvertUTCTime_4
   \   000126   8E82         MOV     DPL,R6
   \   000128   8F83         MOV     DPH,R7
   \   00012A   A3           INC     DPTR
   \   00012B   A3           INC     DPTR
   \   00012C   A3           INC     DPTR
   \   00012D   A3           INC     DPTR
   \   00012E   A3           INC     DPTR
   \   00012F   E0           MOVX    A,@DPTR
   \   000130   F8           MOV     R0,A
   \   000131   A3           INC     DPTR
   \   000132   E0           MOVX    A,@DPTR
   \   000133   F9           MOV     R1,A
   \   000134   7A04         MOV     R2,#0x4
   \   000136   7B00         MOV     R3,#0x0
   \   000138   12....       LCALL   ?US_DIV_MOD
   \   00013B   8A..         MOV     ?V0 + 2,R2
   \   00013D   8B..         MOV     ?V0 + 3,R3
   \   00013F   E5..         MOV     A,?V0 + 2
   \   000141   45..         ORL     A,?V0 + 3
   \   000143   7006         JNZ     ??osal_ConvertUTCTime_4
   \                     ??osal_ConvertUTCTime_3:
   \   000145   786E         MOV     R0,#0x6e
   \   000147   7901         MOV     R1,#0x1
   \   000149   8004         SJMP    ??osal_ConvertUTCTime_5
   \                     ??osal_ConvertUTCTime_4:
   \   00014B   786D         MOV     R0,#0x6d
   \   00014D   7901         MOV     R1,#0x1
   \                     ??osal_ConvertUTCTime_5:
   \   00014F   C3           CLR     C
   \   000150   E5..         MOV     A,?V0 + 0
   \   000152   98           SUBB    A,R0
   \   000153   E5..         MOV     A,?V0 + 1
   \   000155   99           SUBB    A,R1
   \   000156   406A         JC      ??osal_ConvertUTCTime_6
   \   000158   8E82         MOV     DPL,R6
   \   00015A   8F83         MOV     DPH,R7
   \   00015C   A3           INC     DPTR
   \   00015D   A3           INC     DPTR
   \   00015E   A3           INC     DPTR
   \   00015F   A3           INC     DPTR
   \   000160   A3           INC     DPTR
   \   000161   E0           MOVX    A,@DPTR
   \   000162   F8           MOV     R0,A
   \   000163   A3           INC     DPTR
   \   000164   E0           MOVX    A,@DPTR
   \   000165   F9           MOV     R1,A
   \   000166   7A90         MOV     R2,#-0x70
   \   000168   7B01         MOV     R3,#0x1
   \   00016A   12....       LCALL   ?US_DIV_MOD
   \   00016D   8A..         MOV     ?V0 + 2,R2
   \   00016F   8B..         MOV     ?V0 + 3,R3
   \   000171   E5..         MOV     A,?V0 + 2
   \   000173   45..         ORL     A,?V0 + 3
   \   000175   6044         JZ      ??osal_ConvertUTCTime_7
   \   000177   8E82         MOV     DPL,R6
   \   000179   8F83         MOV     DPH,R7
   \   00017B   A3           INC     DPTR
   \   00017C   A3           INC     DPTR
   \   00017D   A3           INC     DPTR
   \   00017E   A3           INC     DPTR
   \   00017F   A3           INC     DPTR
   \   000180   E0           MOVX    A,@DPTR
   \   000181   F8           MOV     R0,A
   \   000182   A3           INC     DPTR
   \   000183   E0           MOVX    A,@DPTR
   \   000184   F9           MOV     R1,A
   \   000185   7A64         MOV     R2,#0x64
   \   000187   7B00         MOV     R3,#0x0
   \   000189   12....       LCALL   ?US_DIV_MOD
   \   00018C   8A..         MOV     ?V0 + 2,R2
   \   00018E   8B..         MOV     ?V0 + 3,R3
   \   000190   E5..         MOV     A,?V0 + 2
   \   000192   45..         ORL     A,?V0 + 3
   \   000194   7003         JNZ     $+5
   \   000196   02....       LJMP    ??osal_ConvertUTCTime_1 & 0xFFFF
   \   000199   8E82         MOV     DPL,R6
   \   00019B   8F83         MOV     DPH,R7
   \   00019D   A3           INC     DPTR
   \   00019E   A3           INC     DPTR
   \   00019F   A3           INC     DPTR
   \   0001A0   A3           INC     DPTR
   \   0001A1   A3           INC     DPTR
   \   0001A2   E0           MOVX    A,@DPTR
   \   0001A3   F8           MOV     R0,A
   \   0001A4   A3           INC     DPTR
   \   0001A5   E0           MOVX    A,@DPTR
   \   0001A6   F9           MOV     R1,A
   \   0001A7   7A04         MOV     R2,#0x4
   \   0001A9   7B00         MOV     R3,#0x0
   \   0001AB   12....       LCALL   ?US_DIV_MOD
   \   0001AE   8A..         MOV     ?V0 + 2,R2
   \   0001B0   8B..         MOV     ?V0 + 3,R3
   \   0001B2   E5..         MOV     A,?V0 + 2
   \   0001B4   45..         ORL     A,?V0 + 3
   \   0001B6   6003         JZ      $+5
   \   0001B8   02....       LJMP    ??osal_ConvertUTCTime_1 & 0xFFFF
   \                     ??osal_ConvertUTCTime_7:
   \   0001BB   786E         MOV     R0,#0x6e
   \   0001BD   7901         MOV     R1,#0x1
   \   0001BF   02....       LJMP    ??osal_ConvertUTCTime_2 & 0xFFFF
    274              }
    275          
    276              tm->month = 0;
   \                     ??osal_ConvertUTCTime_6:
   \   0001C2   8E82         MOV     DPL,R6
   \   0001C4   8F83         MOV     DPH,R7
   \   0001C6   A3           INC     DPTR
   \   0001C7   A3           INC     DPTR
   \   0001C8   A3           INC     DPTR
   \   0001C9   A3           INC     DPTR
   \   0001CA   7400         MOV     A,#0x0
   \   0001CC   F0           MOVX    @DPTR,A
   \   0001CD   802A         SJMP    ??osal_ConvertUTCTime_8
    277              while ( numDays >= monthLength( IsLeapYear( tm->year ), tm->month ) )
    278              {
    279                numDays -= monthLength( IsLeapYear( tm->year ), tm->month );
   \                     ??osal_ConvertUTCTime_9:
   \   0001CF   7900         MOV     R1,#0x0
   \                     ??osal_ConvertUTCTime_10:
   \   0001D1                ; Setup parameters for call to function monthLength
   \   0001D1   8E82         MOV     DPL,R6
   \   0001D3   8F83         MOV     DPH,R7
   \   0001D5   A3           INC     DPTR
   \   0001D6   A3           INC     DPTR
   \   0001D7   A3           INC     DPTR
   \   0001D8   A3           INC     DPTR
   \   0001D9   E0           MOVX    A,@DPTR
   \   0001DA   FA           MOV     R2,A
   \   0001DB   12....       LCALL   ??monthLength?relay
   \   0001DE   E9           MOV     A,R1
   \   0001DF   F8           MOV     R0,A
   \   0001E0   7900         MOV     R1,#0x0
   \   0001E2   C3           CLR     C
   \   0001E3   E5..         MOV     A,?V0 + 0
   \   0001E5   98           SUBB    A,R0
   \   0001E6   F5..         MOV     ?V0 + 0,A
   \   0001E8   E5..         MOV     A,?V0 + 1
   \   0001EA   99           SUBB    A,R1
   \   0001EB   F5..         MOV     ?V0 + 1,A
    280                tm->month++;
   \   0001ED   8E82         MOV     DPL,R6
   \   0001EF   8F83         MOV     DPH,R7
   \   0001F1   A3           INC     DPTR
   \   0001F2   A3           INC     DPTR
   \   0001F3   A3           INC     DPTR
   \   0001F4   A3           INC     DPTR
   \   0001F5   E0           MOVX    A,@DPTR
   \   0001F6   2401         ADD     A,#0x1
   \   0001F8   F0           MOVX    @DPTR,A
   \                     ??osal_ConvertUTCTime_8:
   \   0001F9   8E82         MOV     DPL,R6
   \   0001FB   8F83         MOV     DPH,R7
   \   0001FD   A3           INC     DPTR
   \   0001FE   A3           INC     DPTR
   \   0001FF   A3           INC     DPTR
   \   000200   A3           INC     DPTR
   \   000201   A3           INC     DPTR
   \   000202   E0           MOVX    A,@DPTR
   \   000203   F8           MOV     R0,A
   \   000204   A3           INC     DPTR
   \   000205   E0           MOVX    A,@DPTR
   \   000206   F9           MOV     R1,A
   \   000207   7A90         MOV     R2,#-0x70
   \   000209   7B01         MOV     R3,#0x1
   \   00020B   12....       LCALL   ?US_DIV_MOD
   \   00020E   8A..         MOV     ?V0 + 2,R2
   \   000210   8B..         MOV     ?V0 + 3,R3
   \   000212   E5..         MOV     A,?V0 + 2
   \   000214   45..         ORL     A,?V0 + 3
   \   000216   603E         JZ      ??osal_ConvertUTCTime_11
   \   000218   8E82         MOV     DPL,R6
   \   00021A   8F83         MOV     DPH,R7
   \   00021C   A3           INC     DPTR
   \   00021D   A3           INC     DPTR
   \   00021E   A3           INC     DPTR
   \   00021F   A3           INC     DPTR
   \   000220   A3           INC     DPTR
   \   000221   E0           MOVX    A,@DPTR
   \   000222   F8           MOV     R0,A
   \   000223   A3           INC     DPTR
   \   000224   E0           MOVX    A,@DPTR
   \   000225   F9           MOV     R1,A
   \   000226   7A64         MOV     R2,#0x64
   \   000228   7B00         MOV     R3,#0x0
   \   00022A   12....       LCALL   ?US_DIV_MOD
   \   00022D   8A..         MOV     ?V0 + 2,R2
   \   00022F   8B..         MOV     ?V0 + 3,R3
   \   000231   E5..         MOV     A,?V0 + 2
   \   000233   45..         ORL     A,?V0 + 3
   \   000235   6023         JZ      ??osal_ConvertUTCTime_12
   \   000237   8E82         MOV     DPL,R6
   \   000239   8F83         MOV     DPH,R7
   \   00023B   A3           INC     DPTR
   \   00023C   A3           INC     DPTR
   \   00023D   A3           INC     DPTR
   \   00023E   A3           INC     DPTR
   \   00023F   A3           INC     DPTR
   \   000240   E0           MOVX    A,@DPTR
   \   000241   F8           MOV     R0,A
   \   000242   A3           INC     DPTR
   \   000243   E0           MOVX    A,@DPTR
   \   000244   F9           MOV     R1,A
   \   000245   7A04         MOV     R2,#0x4
   \   000247   7B00         MOV     R3,#0x0
   \   000249   12....       LCALL   ?US_DIV_MOD
   \   00024C   8A..         MOV     ?V0 + 2,R2
   \   00024E   8B..         MOV     ?V0 + 3,R3
   \   000250   E5..         MOV     A,?V0 + 2
   \   000252   45..         ORL     A,?V0 + 3
   \   000254   7004         JNZ     ??osal_ConvertUTCTime_12
   \                     ??osal_ConvertUTCTime_11:
   \   000256   7901         MOV     R1,#0x1
   \   000258   8002         SJMP    ??osal_ConvertUTCTime_13
   \                     ??osal_ConvertUTCTime_12:
   \   00025A   7900         MOV     R1,#0x0
   \                     ??osal_ConvertUTCTime_13:
   \   00025C                ; Setup parameters for call to function monthLength
   \   00025C   8E82         MOV     DPL,R6
   \   00025E   8F83         MOV     DPH,R7
   \   000260   A3           INC     DPTR
   \   000261   A3           INC     DPTR
   \   000262   A3           INC     DPTR
   \   000263   A3           INC     DPTR
   \   000264   E0           MOVX    A,@DPTR
   \   000265   FA           MOV     R2,A
   \   000266   12....       LCALL   ??monthLength?relay
   \   000269   E9           MOV     A,R1
   \   00026A   F8           MOV     R0,A
   \   00026B   7900         MOV     R1,#0x0
   \   00026D   C3           CLR     C
   \   00026E   E5..         MOV     A,?V0 + 0
   \   000270   98           SUBB    A,R0
   \   000271   E5..         MOV     A,?V0 + 1
   \   000273   99           SUBB    A,R1
   \   000274   4068         JC      ??osal_ConvertUTCTime_14
   \   000276   8E82         MOV     DPL,R6
   \   000278   8F83         MOV     DPH,R7
   \   00027A   A3           INC     DPTR
   \   00027B   A3           INC     DPTR
   \   00027C   A3           INC     DPTR
   \   00027D   A3           INC     DPTR
   \   00027E   A3           INC     DPTR
   \   00027F   E0           MOVX    A,@DPTR
   \   000280   F8           MOV     R0,A
   \   000281   A3           INC     DPTR
   \   000282   E0           MOVX    A,@DPTR
   \   000283   F9           MOV     R1,A
   \   000284   7A90         MOV     R2,#-0x70
   \   000286   7B01         MOV     R3,#0x1
   \   000288   12....       LCALL   ?US_DIV_MOD
   \   00028B   8A..         MOV     ?V0 + 2,R2
   \   00028D   8B..         MOV     ?V0 + 3,R3
   \   00028F   E5..         MOV     A,?V0 + 2
   \   000291   45..         ORL     A,?V0 + 3
   \   000293   6044         JZ      ??osal_ConvertUTCTime_15
   \   000295   8E82         MOV     DPL,R6
   \   000297   8F83         MOV     DPH,R7
   \   000299   A3           INC     DPTR
   \   00029A   A3           INC     DPTR
   \   00029B   A3           INC     DPTR
   \   00029C   A3           INC     DPTR
   \   00029D   A3           INC     DPTR
   \   00029E   E0           MOVX    A,@DPTR
   \   00029F   F8           MOV     R0,A
   \   0002A0   A3           INC     DPTR
   \   0002A1   E0           MOVX    A,@DPTR
   \   0002A2   F9           MOV     R1,A
   \   0002A3   7A64         MOV     R2,#0x64
   \   0002A5   7B00         MOV     R3,#0x0
   \   0002A7   12....       LCALL   ?US_DIV_MOD
   \   0002AA   8A..         MOV     ?V0 + 2,R2
   \   0002AC   8B..         MOV     ?V0 + 3,R3
   \   0002AE   E5..         MOV     A,?V0 + 2
   \   0002B0   45..         ORL     A,?V0 + 3
   \   0002B2   7003         JNZ     $+5
   \   0002B4   02....       LJMP    ??osal_ConvertUTCTime_9 & 0xFFFF
   \   0002B7   8E82         MOV     DPL,R6
   \   0002B9   8F83         MOV     DPH,R7
   \   0002BB   A3           INC     DPTR
   \   0002BC   A3           INC     DPTR
   \   0002BD   A3           INC     DPTR
   \   0002BE   A3           INC     DPTR
   \   0002BF   A3           INC     DPTR
   \   0002C0   E0           MOVX    A,@DPTR
   \   0002C1   F8           MOV     R0,A
   \   0002C2   A3           INC     DPTR
   \   0002C3   E0           MOVX    A,@DPTR
   \   0002C4   F9           MOV     R1,A
   \   0002C5   7A04         MOV     R2,#0x4
   \   0002C7   7B00         MOV     R3,#0x0
   \   0002C9   12....       LCALL   ?US_DIV_MOD
   \   0002CC   8A..         MOV     ?V0 + 2,R2
   \   0002CE   8B..         MOV     ?V0 + 3,R3
   \   0002D0   E5..         MOV     A,?V0 + 2
   \   0002D2   45..         ORL     A,?V0 + 3
   \   0002D4   6003         JZ      $+5
   \   0002D6   02....       LJMP    ??osal_ConvertUTCTime_9 & 0xFFFF
   \                     ??osal_ConvertUTCTime_15:
   \   0002D9   7901         MOV     R1,#0x1
   \   0002DB   02....       LJMP    ??osal_ConvertUTCTime_10 & 0xFFFF
    281              }
    282          
    283              tm->day = numDays;
   \                     ??osal_ConvertUTCTime_14:
   \   0002DE   E5..         MOV     A,?V0 + 0
   \   0002E0   8E82         MOV     DPL,R6
   \   0002E2   8F83         MOV     DPH,R7
   \   0002E4   A3           INC     DPTR
   \   0002E5   A3           INC     DPTR
   \   0002E6   A3           INC     DPTR
   \   0002E7   E5..         MOV     A,?V0 + 0
   \   0002E9   F0           MOVX    @DPTR,A
    284            }
    285          }
   \   0002EA   7F10         MOV     R7,#0x10
   \   0002EC   02....       LJMP    ?BANKED_LEAVE_XDATA
    286          
    287          /*********************************************************************
    288           * @fn      monthLength
    289           *
    290           * @param   lpyr - 1 for leap year, 0 if not
    291           *
    292           * @param   mon - 0 - 11 (jan - dec)
    293           *
    294           * @return  number of days in specified month
    295           */

   \                                 In  segment BANKED_CODE, align 1, keep-with-next
    296          static uint8 monthLength( uint8 lpyr, uint8 mon )
   \                     monthLength:
    297          {
   \   000000                ; Saved register size: 0
   \   000000                ; Auto size: 0
   \   000000   E9           MOV     A,R1
   \   000001   F8           MOV     R0,A
    298            uint8 days = 31;
   \   000002   791F         MOV     R1,#0x1f
    299          
    300          	if ( mon == 1 ) // feb
   \   000004   7401         MOV     A,#0x1
   \   000006   6A           XRL     A,R2
   \   000007   7006         JNZ     ??monthLength_0
    301            {
    302          		days = ( 28 + lpyr );
   \   000009   741C         MOV     A,#0x1c
   \   00000B   28           ADD     A,R0
   \   00000C   F9           MOV     R1,A
   \   00000D   800E         SJMP    ??monthLength_1
    303            }
    304            else
    305            {
    306              if ( mon > 6 ) // aug-dec
   \                     ??monthLength_0:
   \   00000F   EA           MOV     A,R2
   \   000010   C3           CLR     C
   \   000011   9407         SUBB    A,#0x7
   \   000013   4001         JC      ??monthLength_2
    307              {
    308                mon--;
   \   000015   1A           DEC     R2
    309              }
    310          
    311              if ( mon & 1 )
   \                     ??monthLength_2:
   \   000016   EA           MOV     A,R2
   \   000017   A2E0         MOV     C,0xE0 /* A   */.0
   \   000019   5002         JNC     ??monthLength_1
    312              {
    313                days = 30;
   \   00001B   791E         MOV     R1,#0x1e
    314              }
    315            }
    316          
    317          	return ( days );
   \                     ??monthLength_1:
   \   00001D   02....       LJMP    ?BRET
    318          }
    319          
    320          /*********************************************************************
    321           * @fn      osal_ConvertUTCSecs
    322           *
    323           * @brief   Converts a UTCTimeStruct to UTCTime
    324           *
    325           * @param   tm - pointer to provided struct
    326           *
    327           * @return  number of seconds since 00:00:00 on 01/01/2000 (UTC)
    328           */

   \                                 In  segment BANKED_CODE, align 1, keep-with-next
    329          UTCTime osal_ConvertUTCSecs( UTCTimeStruct *tm )
   \                     osal_ConvertUTCSecs:
    330          {
   \   000000   74E8         MOV     A,#-0x18
   \   000002   12....       LCALL   ?BANKED_ENTER_XDATA
   \   000005                ; Saved register size: 24
   \   000005                ; Auto size: 0
   \   000005   EA           MOV     A,R2
   \   000006   FE           MOV     R6,A
   \   000007   EB           MOV     A,R3
   \   000008   FF           MOV     R7,A
    331            uint32 seconds;
    332          
    333            /* Seconds for the partial day */
    334            seconds = (((tm->hour * 60UL) + tm->minutes) * 60UL) + tm->seconds;
   \   000009   8E82         MOV     DPL,R6
   \   00000B   8F83         MOV     DPH,R7
   \   00000D   A3           INC     DPTR
   \   00000E   A3           INC     DPTR
   \   00000F   E0           MOVX    A,@DPTR
   \   000010   F5..         MOV     ?V0 + 4,A
   \   000012   E4           CLR     A
   \   000013   F5..         MOV     ?V0 + 5,A
   \   000015   F5..         MOV     ?V0 + 6,A
   \   000017   F5..         MOV     ?V0 + 7,A
   \   000019   90....       MOV     DPTR,#__Constant_3c
   \   00001C   78..         MOV     R0,#?V0 + 0
   \   00001E   12....       LCALL   ?L_MOV_X
   \   000021   78..         MOV     R0,#?V0 + 4
   \   000023   79..         MOV     R1,#?V0 + 0
   \   000025   12....       LCALL   ?L_MUL
   \   000028   8E82         MOV     DPL,R6
   \   00002A   8F83         MOV     DPH,R7
   \   00002C   A3           INC     DPTR
   \   00002D   E0           MOVX    A,@DPTR
   \   00002E   F5..         MOV     ?V0 + 0,A
   \   000030   E4           CLR     A
   \   000031   F5..         MOV     ?V0 + 1,A
   \   000033   F5..         MOV     ?V0 + 2,A
   \   000035   F5..         MOV     ?V0 + 3,A
   \   000037   78..         MOV     R0,#?V0 + 4
   \   000039   79..         MOV     R1,#?V0 + 0
   \   00003B   12....       LCALL   ?L_ADD
   \   00003E   90....       MOV     DPTR,#__Constant_3c
   \   000041   78..         MOV     R0,#?V0 + 0
   \   000043   12....       LCALL   ?L_MOV_X
   \   000046   78..         MOV     R0,#?V0 + 4
   \   000048   79..         MOV     R1,#?V0 + 0
   \   00004A   12....       LCALL   ?L_MUL
   \   00004D   8E82         MOV     DPL,R6
   \   00004F   8F83         MOV     DPH,R7
   \   000051   E0           MOVX    A,@DPTR
   \   000052   F5..         MOV     ?V0 + 0,A
   \   000054   E4           CLR     A
   \   000055   F5..         MOV     ?V0 + 1,A
   \   000057   F5..         MOV     ?V0 + 2,A
   \   000059   F5..         MOV     ?V0 + 3,A
   \   00005B   78..         MOV     R0,#?V0 + 4
   \   00005D   79..         MOV     R1,#?V0 + 0
   \   00005F   12....       LCALL   ?L_ADD
    335          
    336            /* Account for previous complete days */
    337            {
    338              /* Start with complete days in current month */
    339              uint16 days = tm->day;
   \   000062   8E82         MOV     DPL,R6
   \   000064   8F83         MOV     DPH,R7
   \   000066   A3           INC     DPTR
   \   000067   A3           INC     DPTR
   \   000068   A3           INC     DPTR
   \   000069   E0           MOVX    A,@DPTR
   \   00006A   F5..         MOV     ?V0 + 0,A
   \   00006C   75..00       MOV     ?V0 + 1,#0x0
    340          
    341              /* Next, complete months in current year */
    342              {
    343                int8 month = tm->month;
   \   00006F   8E82         MOV     DPL,R6
   \   000071   8F83         MOV     DPH,R7
   \   000073   A3           INC     DPTR
   \   000074   A3           INC     DPTR
   \   000075   A3           INC     DPTR
   \   000076   A3           INC     DPTR
   \   000077   E0           MOVX    A,@DPTR
   \   000078   F5..         MOV     ?V0 + 2,A
   \   00007A   8015         SJMP    ??osal_ConvertUTCSecs_0
    344                while ( --month >= 0 )
    345                {
    346                  days += monthLength( IsLeapYear( tm->year ), month );
   \                     ??osal_ConvertUTCSecs_1:
   \   00007C   7900         MOV     R1,#0x0
   \                     ??osal_ConvertUTCSecs_2:
   \   00007E                ; Setup parameters for call to function monthLength
   \   00007E   AA..         MOV     R2,?V0 + 2
   \   000080   12....       LCALL   ??monthLength?relay
   \   000083   E9           MOV     A,R1
   \   000084   F8           MOV     R0,A
   \   000085   7900         MOV     R1,#0x0
   \   000087   E5..         MOV     A,?V0 + 0
   \   000089   28           ADD     A,R0
   \   00008A   F5..         MOV     ?V0 + 0,A
   \   00008C   E5..         MOV     A,?V0 + 1
   \   00008E   39           ADDC    A,R1
   \   00008F   F5..         MOV     ?V0 + 1,A
   \                     ??osal_ConvertUTCSecs_0:
   \   000091   74FF         MOV     A,#-0x1
   \   000093   25..         ADD     A,?V0 + 2
   \   000095   F8           MOV     R0,A
   \   000096   88..         MOV     ?V0 + 2,R0
   \   000098   E8           MOV     A,R0
   \   000099   C3           CLR     C
   \   00009A   9400         SUBB    A,#0x0
   \   00009C   A2D2         MOV     C,0xD0 /* PSW */.2
   \   00009E   65D0         XRL     A,PSW
   \   0000A0   33           RLC     A
   \   0000A1   4065         JC      ??osal_ConvertUTCSecs_3
   \   0000A3   8E82         MOV     DPL,R6
   \   0000A5   8F83         MOV     DPH,R7
   \   0000A7   A3           INC     DPTR
   \   0000A8   A3           INC     DPTR
   \   0000A9   A3           INC     DPTR
   \   0000AA   A3           INC     DPTR
   \   0000AB   A3           INC     DPTR
   \   0000AC   E0           MOVX    A,@DPTR
   \   0000AD   F8           MOV     R0,A
   \   0000AE   A3           INC     DPTR
   \   0000AF   E0           MOVX    A,@DPTR
   \   0000B0   F9           MOV     R1,A
   \   0000B1   7A90         MOV     R2,#-0x70
   \   0000B3   7B01         MOV     R3,#0x1
   \   0000B5   12....       LCALL   ?US_DIV_MOD
   \   0000B8   8A..         MOV     ?V0 + 8,R2
   \   0000BA   8B..         MOV     ?V0 + 9,R3
   \   0000BC   E5..         MOV     A,?V0 + 8
   \   0000BE   45..         ORL     A,?V0 + 9
   \   0000C0   6041         JZ      ??osal_ConvertUTCSecs_4
   \   0000C2   8E82         MOV     DPL,R6
   \   0000C4   8F83         MOV     DPH,R7
   \   0000C6   A3           INC     DPTR
   \   0000C7   A3           INC     DPTR
   \   0000C8   A3           INC     DPTR
   \   0000C9   A3           INC     DPTR
   \   0000CA   A3           INC     DPTR
   \   0000CB   E0           MOVX    A,@DPTR
   \   0000CC   F8           MOV     R0,A
   \   0000CD   A3           INC     DPTR
   \   0000CE   E0           MOVX    A,@DPTR
   \   0000CF   F9           MOV     R1,A
   \   0000D0   7A64         MOV     R2,#0x64
   \   0000D2   7B00         MOV     R3,#0x0
   \   0000D4   12....       LCALL   ?US_DIV_MOD
   \   0000D7   8A..         MOV     ?V0 + 8,R2
   \   0000D9   8B..         MOV     ?V0 + 9,R3
   \   0000DB   E5..         MOV     A,?V0 + 8
   \   0000DD   45..         ORL     A,?V0 + 9
   \   0000DF   609B         JZ      ??osal_ConvertUTCSecs_1
   \   0000E1   8E82         MOV     DPL,R6
   \   0000E3   8F83         MOV     DPH,R7
   \   0000E5   A3           INC     DPTR
   \   0000E6   A3           INC     DPTR
   \   0000E7   A3           INC     DPTR
   \   0000E8   A3           INC     DPTR
   \   0000E9   A3           INC     DPTR
   \   0000EA   E0           MOVX    A,@DPTR
   \   0000EB   F8           MOV     R0,A
   \   0000EC   A3           INC     DPTR
   \   0000ED   E0           MOVX    A,@DPTR
   \   0000EE   F9           MOV     R1,A
   \   0000EF   7A04         MOV     R2,#0x4
   \   0000F1   7B00         MOV     R3,#0x0
   \   0000F3   12....       LCALL   ?US_DIV_MOD
   \   0000F6   8A..         MOV     ?V0 + 8,R2
   \   0000F8   8B..         MOV     ?V0 + 9,R3
   \   0000FA   E5..         MOV     A,?V0 + 8
   \   0000FC   45..         ORL     A,?V0 + 9
   \   0000FE   6003         JZ      $+5
   \   000100   02....       LJMP    ??osal_ConvertUTCSecs_1 & 0xFFFF
   \                     ??osal_ConvertUTCSecs_4:
   \   000103   7901         MOV     R1,#0x1
   \   000105   02....       LJMP    ??osal_ConvertUTCSecs_2 & 0xFFFF
    347                }
    348              }
    349          
    350              /* Next, complete years before current year */
    351              {
    352                uint16 year = tm->year;
   \                     ??osal_ConvertUTCSecs_3:
   \   000108   8E82         MOV     DPL,R6
   \   00010A   8F83         MOV     DPH,R7
   \   00010C   A3           INC     DPTR
   \   00010D   A3           INC     DPTR
   \   00010E   A3           INC     DPTR
   \   00010F   A3           INC     DPTR
   \   000110   A3           INC     DPTR
   \   000111   E0           MOVX    A,@DPTR
   \   000112   FC           MOV     R4,A
   \   000113   A3           INC     DPTR
   \   000114   E0           MOVX    A,@DPTR
   \   000115   FD           MOV     R5,A
   \   000116   800E         SJMP    ??osal_ConvertUTCSecs_5
    353                while ( --year >= BEGYEAR )
    354                {
    355                  days += YearLength( year );
   \                     ??osal_ConvertUTCSecs_6:
   \   000118   786D         MOV     R0,#0x6d
   \   00011A   7901         MOV     R1,#0x1
   \                     ??osal_ConvertUTCSecs_7:
   \   00011C   E5..         MOV     A,?V0 + 0
   \   00011E   28           ADD     A,R0
   \   00011F   F5..         MOV     ?V0 + 0,A
   \   000121   E5..         MOV     A,?V0 + 1
   \   000123   39           ADDC    A,R1
   \   000124   F5..         MOV     ?V0 + 1,A
   \                     ??osal_ConvertUTCSecs_5:
   \   000126   EC           MOV     A,R4
   \   000127   24FF         ADD     A,#-0x1
   \   000129   F8           MOV     R0,A
   \   00012A   ED           MOV     A,R5
   \   00012B   34FF         ADDC    A,#-0x1
   \   00012D   F9           MOV     R1,A
   \   00012E   E8           MOV     A,R0
   \   00012F   FC           MOV     R4,A
   \   000130   E9           MOV     A,R1
   \   000131   FD           MOV     R5,A
   \   000132   C3           CLR     C
   \   000133   E8           MOV     A,R0
   \   000134   94D0         SUBB    A,#-0x30
   \   000136   E9           MOV     A,R1
   \   000137   9407         SUBB    A,#0x7
   \   000139   4045         JC      ??osal_ConvertUTCSecs_8
   \   00013B   EC           MOV     A,R4
   \   00013C   F8           MOV     R0,A
   \   00013D   ED           MOV     A,R5
   \   00013E   F9           MOV     R1,A
   \   00013F   7A90         MOV     R2,#-0x70
   \   000141   7B01         MOV     R3,#0x1
   \   000143   12....       LCALL   ?US_DIV_MOD
   \   000146   8A..         MOV     ?V0 + 8,R2
   \   000148   8B..         MOV     ?V0 + 9,R3
   \   00014A   E5..         MOV     A,?V0 + 8
   \   00014C   45..         ORL     A,?V0 + 9
   \   00014E   602A         JZ      ??osal_ConvertUTCSecs_9
   \   000150   EC           MOV     A,R4
   \   000151   F8           MOV     R0,A
   \   000152   ED           MOV     A,R5
   \   000153   F9           MOV     R1,A
   \   000154   7A64         MOV     R2,#0x64
   \   000156   7B00         MOV     R3,#0x0
   \   000158   12....       LCALL   ?US_DIV_MOD
   \   00015B   8A..         MOV     ?V0 + 8,R2
   \   00015D   8B..         MOV     ?V0 + 9,R3
   \   00015F   E5..         MOV     A,?V0 + 8
   \   000161   45..         ORL     A,?V0 + 9
   \   000163   60B3         JZ      ??osal_ConvertUTCSecs_6
   \   000165   EC           MOV     A,R4
   \   000166   F8           MOV     R0,A
   \   000167   ED           MOV     A,R5
   \   000168   F9           MOV     R1,A
   \   000169   7A04         MOV     R2,#0x4
   \   00016B   7B00         MOV     R3,#0x0
   \   00016D   12....       LCALL   ?US_DIV_MOD
   \   000170   8A..         MOV     ?V0 + 8,R2
   \   000172   8B..         MOV     ?V0 + 9,R3
   \   000174   E5..         MOV     A,?V0 + 8
   \   000176   45..         ORL     A,?V0 + 9
   \   000178   709E         JNZ     ??osal_ConvertUTCSecs_6
   \                     ??osal_ConvertUTCSecs_9:
   \   00017A   786E         MOV     R0,#0x6e
   \   00017C   7901         MOV     R1,#0x1
   \   00017E   809C         SJMP    ??osal_ConvertUTCSecs_7
    356                }
    357              }
    358          
    359              /* Add total seconds before partial day */
    360              seconds += (days * DAY);
   \                     ??osal_ConvertUTCSecs_8:
   \   000180   85....       MOV     ?V0 + 8,?V0 + 0
   \   000183   85....       MOV     ?V0 + 9,?V0 + 1
   \   000186   E4           CLR     A
   \   000187   F5..         MOV     ?V0 + 10,A
   \   000189   F5..         MOV     ?V0 + 11,A
   \   00018B   90....       MOV     DPTR,#__Constant_15180
   \   00018E   78..         MOV     R0,#?V0 + 12
   \   000190   12....       LCALL   ?L_MOV_X
   \   000193   78..         MOV     R0,#?V0 + 8
   \   000195   79..         MOV     R1,#?V0 + 12
   \   000197   12....       LCALL   ?L_MUL
   \   00019A   78..         MOV     R0,#?V0 + 4
   \   00019C   79..         MOV     R1,#?V0 + 8
   \   00019E   12....       LCALL   ?L_ADD
    361            }
    362          
    363            return ( seconds );
   \   0001A1   AA..         MOV     R2,?V0 + 4
   \   0001A3   AB..         MOV     R3,?V0 + 5
   \   0001A5   AC..         MOV     R4,?V0 + 6
   \   0001A7   AD..         MOV     R5,?V0 + 7
   \   0001A9   7F10         MOV     R7,#0x10
   \   0001AB   02....       LJMP    ?BANKED_LEAVE_XDATA
    364          }

   \                                 In  segment XDATA_ROM_C, align 1
   \                     __Constant_8:
   \   000000   08000000     DD 8

   \                                 In  segment XDATA_ROM_C, align 1
   \                     __Constant_15180:
   \   000000   80510100     DD 86400

   \                                 In  segment XDATA_ROM_C, align 1
   \                     __Constant_3c:
   \   000000   3C000000     DD 60

   \                                 In  segment XDATA_ROM_C, align 1
   \                     __Constant_e10:
   \   000000   100E0000     DD 3600

   \                                 In  segment BANK_RELAYS, align 1
   \                     ??osalTimeUpdate?relay:
   \   000000   12....       LCALL   ?BDISPATCH
   \   000003   ......       DC24    osalTimeUpdate

   \                                 In  segment BANK_RELAYS, align 1
   \                     ??osalClockUpdate?relay:
   \   000000   12....       LCALL   ?BDISPATCH
   \   000003   ......       DC24    osalClockUpdate

   \                                 In  segment BANK_RELAYS, align 1
   \                     ??osal_setClock?relay:
   \   000000   12....       LCALL   ?BDISPATCH
   \   000003   ......       DC24    osal_setClock

   \                                 In  segment BANK_RELAYS, align 1
   \                     ??osal_getClock?relay:
   \   000000   12....       LCALL   ?BDISPATCH
   \   000003   ......       DC24    osal_getClock

   \                                 In  segment BANK_RELAYS, align 1
   \                     ??osal_ConvertUTCTime?relay:
   \   000000   12....       LCALL   ?BDISPATCH
   \   000003   ......       DC24    osal_ConvertUTCTime

   \                                 In  segment BANK_RELAYS, align 1
   \                     ??monthLength?relay:
   \   000000   12....       LCALL   ?BDISPATCH
   \   000003   ......       DC24    monthLength

   \                                 In  segment BANK_RELAYS, align 1
   \                     ??osal_ConvertUTCSecs?relay:
   \   000000   12....       LCALL   ?BDISPATCH
   \   000003   ......       DC24    osal_ConvertUTCSecs

   Maximum stack usage in bytes:

     Function                     ISTACK PSTACK XSTACK
     --------                     ------ ------ ------
     monthLength                      0      0     24
     osalClockUpdate                  0      0     28
     osalTimeUpdate                   0      0     18
       -> macMcuPrecisionCount        0      0     32
       -> osalMcuDivide31By16To16     0      0     36
       -> osalClockUpdate             0      0     32
       -> osalTimerUpdate             0      0     32
     osal_ConvertUTCSecs              0      0     24
       -> monthLength                 0      0     48
     osal_ConvertUTCTime              1      0     28
       -> monthLength                 0      0     48
       -> monthLength                 0      0     48
     osal_getClock                    2      0      0
     osal_setClock                    0      0     12


   Segment part sizes:

     Function/Label              Bytes
     --------------              -----
     _A_IEN0                        1
     previousMacTimerTick           4
     remUsTicks                     2
     timeMSec                       2
     OSAL_timeSeconds               4
     osalTimeUpdate               219
     osalClockUpdate               88
     osal_setClock                 26
     osal_getClock                 17
     osal_ConvertUTCTime          751
     monthLength                   32
     osal_ConvertUTCSecs          430
     __Constant_8                   4
     __Constant_15180               4
     __Constant_3c                  4
     __Constant_e10                 4
     ??osalTimeUpdate?relay         6
     ??osalClockUpdate?relay        6
     ??osal_setClock?relay          6
     ??osal_getClock?relay          6
     ??osal_ConvertUTCTime?relay    6
     ??monthLength?relay            6
     ??osal_ConvertUTCSecs?relay    6

 
 1 563 bytes in segment BANKED_CODE
    42 bytes in segment BANK_RELAYS
     1 byte  in segment SFR_AN
    16 bytes in segment XDATA_ROM_C
    12 bytes in segment XDATA_Z
 
 1 605 bytes of CODE  memory
     0 bytes of CONST memory (+ 16 bytes shared)
     0 bytes of DATA  memory (+  1 byte  shared)
    12 bytes of XDATA memory

Errors: none
Warnings: none
