###############################################################################
#                                                                             #
# IAR C/C++ Compiler V8.10.3.10338/W32 for 8051         25/Aug/2018  23:10:08 #
# Copyright 2004-2011 IAR Systems AB.                                         #
#                                                                             #
#    Core               =  plain                                              #
#    Code model         =  banked                                             #
#    Data model         =  large                                              #
#    Calling convention =  xdata reentrant                                    #
#    Constant location  =  data_rom                                           #
#    Dptr setup         =  1,16                                               #
#    Source file        =  F:\work\iot-hardware\logger\logger\Components\zmac #
#                          \f8w\zmac.c                                        #
#    Command line       =  -f F:\work\iot-hardware\logger\logger\Projects\zst #
#                          ack\Samples\GenericApp\CC2530DB\..\..\..\Tools\CC2 #
#                          530DB\f8wEndev.cfg (-DCPU32MHZ -DROOT=__near_func  #
#                          -DMAC_CFG_TX_DATA_MAX=3 -DMAC_CFG_TX_MAX=6         #
#                          -DMAC_CFG_RX_MAX=3) -f F:\work\iot-hardware\logger #
#                          \logger\Projects\zstack\Samples\GenericApp\CC2530D #
#                          B\..\..\..\Tools\CC2530DB\f8wConfig.cfg            #
#                          (-DZIGBEEPRO -DSECURE=0 -DZG_SECURE_DYNAMIC=0      #
#                          -DREFLECTOR -DDEFAULT_CHANLIST=0x00000800          #
#                          -DZDAPP_CONFIG_PAN_ID=0xFFFF                       #
#                          -DNWK_START_DELAY=100 -DEXTENDED_JOINING_RANDOM_MA #
#                          SK=0x007F -DBEACON_REQUEST_DELAY=100               #
#                          -DBEACON_REQ_DELAY_MASK=0x00FF                     #
#                          -DLINK_STATUS_JITTER_MASK=0x007F                   #
#                          -DROUTE_EXPIRY_TIME=30 -DAPSC_ACK_WAIT_DURATION_PO #
#                          LLED=3000 -DNWK_INDIRECT_MSG_TIMEOUT=7             #
#                          -DMAX_RREQ_ENTRIES=8 -DAPSC_MAX_FRAME_RETRIES=3    #
#                          -DNWK_MAX_DATA_RETRIES=2                           #
#                          -DMAX_POLL_FAILURE_RETRIES=2 -DMAX_BCAST=9         #
#                          -DAPS_MAX_GROUPS=16 -DMAX_RTG_ENTRIES=40           #
#                          -DNWK_MAX_BINDING_ENTRIES=4                        #
#                          -DMAX_BINDING_CLUSTER_IDS=4 "-DDEFAULT_KEY={0x01,  #
#                          0x03, 0x05, 0x07, 0x09, 0x0B, 0x0D, 0x0F, 0x00,    #
#                          0x02, 0x04, 0x06, 0x08, 0x0A, 0x0C, 0x0D}"         #
#                          -DMAC_MAX_FRAME_SIZE=116                           #
#                          -DZDNWKMGR_MIN_TRANSMISSIONS=20 "-DCONST=const     #
#                          __code" -DGENERIC=__generic                        #
#                          -DRFD_RCVC_ALWAYS_ON=FALSE -DPOLL_RATE=1000        #
#                          -DQUEUED_POLL_RATE=100 -DRESPONSE_POLL_RATE=100)   #
#                          -DREJOIN_POLL_RATE=440 F:\work\iot-hardware\logger #
#                          \logger\Components\zmac\f8w\zmac.c -D              #
#                          NWK_AUTO_POLL -D ZTOOL_P1 -D MT_TASK -D            #
#                          MT_SYS_FUNC -D MT_ZDO_FUNC -D LCD_SUPPORTED=DEBUG  #
#                          -D xPOWER_SAVING -lC F:\work\iot-hardware\logger\l #
#                          ogger\Projects\zstack\Samples\GenericApp\CC2530DB\ #
#                          EndDeviceEB\List\ -lA F:\work\iot-hardware\logger\ #
#                          logger\Projects\zstack\Samples\GenericApp\CC2530DB #
#                          \EndDeviceEB\List\ --diag_suppress Pe001,Pa010 -o  #
#                          F:\work\iot-hardware\logger\logger\Projects\zstack #
#                          \Samples\GenericApp\CC2530DB\EndDeviceEB\Obj\ -e   #
#                          --no_cse --no_unroll --no_inline --no_code_motion  #
#                          --no_tbaa --debug --core=plain --dptr=16,1         #
#                          --data_model=large --code_model=banked             #
#                          --calling_convention=xdata_reentrant               #
#                          --place_constants=data_rom --nr_virtual_regs 16    #
#                          -I F:\work\iot-hardware\logger\logger\Projects\zst #
#                          ack\Samples\GenericApp\CC2530DB\ -I                #
#                          F:\work\iot-hardware\logger\logger\Projects\zstack #
#                          \Samples\GenericApp\CC2530DB\..\Source\ -I         #
#                          F:\work\iot-hardware\logger\logger\Projects\zstack #
#                          \Samples\GenericApp\CC2530DB\..\..\..\ZMain\TI2530 #
#                          DB\ -I F:\work\iot-hardware\logger\logger\Projects #
#                          \zstack\Samples\GenericApp\CC2530DB\..\..\..\..\.. #
#                          \Components\hal\include\ -I                        #
#                          F:\work\iot-hardware\logger\logger\Projects\zstack #
#                          \Samples\GenericApp\CC2530DB\..\..\..\..\..\Compon #
#                          ents\hal\target\CC2530EB\ -I                       #
#                          F:\work\iot-hardware\logger\logger\Projects\zstack #
#                          \Samples\GenericApp\CC2530DB\..\..\..\..\..\Compon #
#                          ents\mac\include\ -I F:\work\iot-hardware\logger\l #
#                          ogger\Projects\zstack\Samples\GenericApp\CC2530DB\ #
#                          ..\..\..\..\..\Components\mac\high_level\ -I       #
#                          F:\work\iot-hardware\logger\logger\Projects\zstack #
#                          \Samples\GenericApp\CC2530DB\..\..\..\..\..\Compon #
#                          ents\mac\low_level\srf04\ -I                       #
#                          F:\work\iot-hardware\logger\logger\Projects\zstack #
#                          \Samples\GenericApp\CC2530DB\..\..\..\..\..\Compon #
#                          ents\mac\low_level\srf04\single_chip\ -I           #
#                          F:\work\iot-hardware\logger\logger\Projects\zstack #
#                          \Samples\GenericApp\CC2530DB\..\..\..\..\..\Compon #
#                          ents\mt\ -I F:\work\iot-hardware\logger\logger\Pro #
#                          jects\zstack\Samples\GenericApp\CC2530DB\..\..\..\ #
#                          ..\..\Components\osal\include\ -I                  #
#                          F:\work\iot-hardware\logger\logger\Projects\zstack #
#                          \Samples\GenericApp\CC2530DB\..\..\..\..\..\Compon #
#                          ents\services\saddr\ -I F:\work\iot-hardware\logge #
#                          r\logger\Projects\zstack\Samples\GenericApp\CC2530 #
#                          DB\..\..\..\..\..\Components\services\sdata\ -I    #
#                          F:\work\iot-hardware\logger\logger\Projects\zstack #
#                          \Samples\GenericApp\CC2530DB\..\..\..\..\..\Compon #
#                          ents\stack\af\ -I F:\work\iot-hardware\logger\logg #
#                          er\Projects\zstack\Samples\GenericApp\CC2530DB\..\ #
#                          ..\..\..\..\Components\stack\nwk\ -I               #
#                          F:\work\iot-hardware\logger\logger\Projects\zstack #
#                          \Samples\GenericApp\CC2530DB\..\..\..\..\..\Compon #
#                          ents\stack\sapi\ -I F:\work\iot-hardware\logger\lo #
#                          gger\Projects\zstack\Samples\GenericApp\CC2530DB\. #
#                          .\..\..\..\..\Components\stack\sec\ -I             #
#                          F:\work\iot-hardware\logger\logger\Projects\zstack #
#                          \Samples\GenericApp\CC2530DB\..\..\..\..\..\Compon #
#                          ents\stack\sys\ -I F:\work\iot-hardware\logger\log #
#                          ger\Projects\zstack\Samples\GenericApp\CC2530DB\.. #
#                          \..\..\..\..\Components\stack\zdo\ -I              #
#                          F:\work\iot-hardware\logger\logger\Projects\zstack #
#                          \Samples\GenericApp\CC2530DB\..\..\..\..\..\Compon #
#                          ents\zmac\ -I F:\work\iot-hardware\logger\logger\P #
#                          rojects\zstack\Samples\GenericApp\CC2530DB\..\..\. #
#                          .\..\..\Components\zmac\f8w\ -Ol                   #
#                          --require_prototypes                               #
#    List file          =  F:\work\iot-hardware\logger\logger\Projects\zstack #
#                          \Samples\GenericApp\CC2530DB\EndDeviceEB\List\zmac #
#                          .lst                                               #
#    Object file        =  F:\work\iot-hardware\logger\logger\Projects\zstack #
#                          \Samples\GenericApp\CC2530DB\EndDeviceEB\Obj\zmac. #
#                          r51                                                #
#                                                                             #
#                                                                             #
###############################################################################

F:\work\iot-hardware\logger\logger\Components\zmac\f8w\zmac.c
      1          /**************************************************************************************************
      2            Filename:       zmac.c
      3            Revised:        $Date: 2011-02-28 16:59:59 -0800 (Mon, 28 Feb 2011) $
      4            Revision:       $Revision: 25230 $
      5          
      6          
      7            Description:    This file contains the ZStack MAC Porting Layer
      8          
      9          
     10            Copyright 2005-2010 Texas Instruments Incorporated. All rights reserved.
     11          
     12            IMPORTANT: Your use of this Software is limited to those specific rights
     13            granted under the terms of a software license agreement between the user
     14            who downloaded the software, his/her employer (which must be your employer)
     15            and Texas Instruments Incorporated (the "License").  You may not use this
     16            Software unless you agree to abide by the terms of the License. The License
     17            limits your use, and you acknowledge, that the Software may not be modified,
     18            copied or distributed unless embedded on a Texas Instruments microcontroller
     19            or used solely and exclusively in conjunction with a Texas Instruments radio
     20            frequency transceiver, which is integrated into your product.  Other than for
     21            the foregoing purpose, you may not use, reproduce, copy, prepare derivative
     22            works of, modify, distribute, perform, display or sell this Software and/or
     23            its documentation for any purpose.
     24          
     25            YOU FURTHER ACKNOWLEDGE AND AGREE THAT THE SOFTWARE AND DOCUMENTATION ARE
     26            PROVIDED “AS IS" WITHOUT WARRANTY OF ANY KIND, EITHER EXPRESS OR IMPLIED,
     27            INCLUDING WITHOUT LIMITATION, ANY WARRANTY OF MERCHANTABILITY, TITLE,
     28            NON-INFRINGEMENT AND FITNESS FOR A PARTICULAR PURPOSE. IN NO EVENT SHALL
     29            TEXAS INSTRUMENTS OR ITS LICENSORS BE LIABLE OR OBLIGATED UNDER CONTRACT,
     30            NEGLIGENCE, STRICT LIABILITY, CONTRIBUTION, BREACH OF WARRANTY, OR OTHER
     31            LEGAL EQUITABLE THEORY ANY DIRECT OR INDIRECT DAMAGES OR EXPENSES
     32            INCLUDING BUT NOT LIMITED TO ANY INCIDENTAL, SPECIAL, INDIRECT, PUNITIVE
     33            OR CONSEQUENTIAL DAMAGES, LOST PROFITS OR LOST DATA, COST OF PROCUREMENT
     34            OF SUBSTITUTE GOODS, TECHNOLOGY, SERVICES, OR ANY CLAIMS BY THIRD PARTIES
     35            (INCLUDING BUT NOT LIMITED TO ANY DEFENSE THEREOF), OR OTHER SIMILAR COSTS.
     36          
     37            Should you have any questions regarding your right to use this Software,
     38            contact Texas Instruments Incorporated at www.TI.com.
     39          **************************************************************************************************/
     40          
     41          /********************************************************************************************************
     42           *                                               INCLUDES
     43           ********************************************************************************************************/
     44          
     45          #include "ZComDef.h"
     46          #include "OSAL.h"
     47          #include "ZMAC.h"
     48          #include "mac_main.h"
     49          #include "ssp.h"
     50          
     51          #if !defined NONWK
     52            #include "ZGlobals.h"
     53          #endif
     54          
     55          /********************************************************************************************************
     56           *                                                 MACROS
     57           ********************************************************************************************************/
     58          
     59          /********************************************************************************************************
     60           *                                               CONSTANTS
     61           ********************************************************************************************************/
     62          
     63          /********************************************************************************************************
     64           *                                               GLOBALS
     65           ********************************************************************************************************/

   \                                 In  segment XDATA_Z, align 1, keep-with-next
     66          uint32 _ScanChannels;
   \                     _ScanChannels:
   \   000000                DS 4
   \   000004                REQUIRE __INIT_XDATA_Z
     67          
     68          extern uint8 aExtendedAddress[];
     69          
     70          /**************************************************************************************************
     71           * @fn          MAC_SetRandomSeedCB
     72           *
     73           * @brief       MAC function: Set the function pointer for the random seed callback.
     74           *
     75           * input parameters
     76           *
     77           * @param       pCBFcn - function pointer of the random seed callback
     78           *
     79           * output parameters
     80           *
     81           * None.
     82           *
     83           * @return      none
     84           **************************************************************************************************
     85           */
     86          extern void MAC_SetRandomSeedCB(macRNGFcn_t pCBFcn);
     87          /********************************************************************************************************
     88           *                                               LOCALS
     89           ********************************************************************************************************/
     90          
     91          /* Pointer to scan result buffer */

   \                                 In  segment XDATA_Z, align 1, keep-with-next
     92          void *ZMac_ScanBuf = NULL;
   \                     ZMac_ScanBuf:
   \   000000                DS 2
   \   000002                REQUIRE __INIT_XDATA_Z
     93          
     94          /********************************************************************************************************
     95           * LOCAL FUNCTION PROTOTYPES
     96           ********************************************************************************************************/
     97          
     98          /********************************************************************************************************
     99           *                                                TYPEDEFS
    100           ********************************************************************************************************/
    101          
    102          
    103          /********************************************************************************************************
    104           *                                                FUNCTIONS
    105           ********************************************************************************************************/
    106          
    107          /********************************************************************************************************
    108           * @fn      ZMacInit
    109           *
    110           * @brief   Initialize MAC.
    111           *
    112           * @param   none.
    113           *
    114           * @return  status.
    115           ********************************************************************************************************/

   \                                 In  segment BANKED_CODE, align 1, keep-with-next
    116          uint8 ZMacInit( void )
   \                     ZMacInit:
    117          {
   \   000000   74F7         MOV     A,#-0x9
   \   000002   12....       LCALL   ?BANKED_ENTER_XDATA
   \   000005                ; Saved register size: 9
   \   000005                ; Auto size: 0
    118            uint8 stat;
    119          
    120          #if defined( ZCL_KEY_ESTABLISH )
    121            /* Set the callback function for 16 byte random seed */
    122            MAC_SetRandomSeedCB( SSP_StoreRandomSeedNV);
    123          #endif
    124          
    125            MAC_Init();
   \   000005                ; Setup parameters for call to function MAC_Init
   \   000005   12....       LCALL   ??MAC_Init?relay
    126            MAC_InitDevice();
   \   000008                ; Setup parameters for call to function MAC_InitDevice
   \   000008   12....       LCALL   ??MAC_InitDevice?relay
    127          
    128          #if !defined NONWK
    129            if ( ZG_BUILD_RTR_TYPE )
    130            {
    131              MAC_InitCoord();
    132            }
    133          #endif
    134          
    135            // If OK, initialize the MAC
    136            stat = ZMacReset( TRUE );
   \   00000B                ; Setup parameters for call to function ZMacReset
   \   00000B   7901         MOV     R1,#0x1
   \   00000D   12....       LCALL   ??ZMacReset?relay
   \   000010   E9           MOV     A,R1
   \   000011   FE           MOV     R6,A
    137          
    138            // Turn off interrupts
    139            osal_int_disable( INTS_ALL );
   \   000012                ; Setup parameters for call to function osal_int_disable
   \   000012   79FF         MOV     R1,#-0x1
   \   000014   12....       LCALL   ??osal_int_disable?relay
   \   000017   E9           MOV     A,R1
    140          
    141            return ( stat );
   \   000018   EE           MOV     A,R6
   \   000019   F9           MOV     R1,A
   \   00001A   7F01         MOV     R7,#0x1
   \   00001C   02....       LJMP    ?BANKED_LEAVE_XDATA
    142          }
    143          
    144          /********************************************************************************************************
    145           * @fn      ZMacReset
    146           *
    147           * @brief   Reset the MAC.
    148           *
    149           * @param   Default to PIB defaults.
    150           *
    151           * @return  status.
    152           ********************************************************************************************************/

   \                                 In  segment BANKED_CODE, align 1, keep-with-next
    153          uint8 ZMacReset( bool SetDefaultPIB )
   \                     ZMacReset:
    154          {
   \   000000   74F7         MOV     A,#-0x9
   \   000002   12....       LCALL   ?BANKED_ENTER_XDATA
   \   000005                ; Saved register size: 9
   \   000005                ; Auto size: 1
   \   000005   74FF         MOV     A,#-0x1
   \   000007   12....       LCALL   ?ALLOC_XSTACK8
   \   00000A   E9           MOV     A,R1
   \   00000B   FF           MOV     R7,A
    155            byte stat;
    156            byte value;
    157          
    158            stat = MAC_MlmeResetReq( SetDefaultPIB );
   \   00000C                ; Setup parameters for call to function MAC_MlmeResetReq
   \   00000C   F9           MOV     R1,A
   \   00000D   12....       LCALL   ??MAC_MlmeResetReq?relay
   \   000010   E9           MOV     A,R1
   \   000011   FE           MOV     R6,A
    159          
    160            // Don't send PAN ID conflict
    161            value = FALSE;
   \   000012   85..82       MOV     DPL,?XSP + 0
   \   000015   85..83       MOV     DPH,?XSP + 1
   \   000018   7400         MOV     A,#0x0
   \   00001A   F0           MOVX    @DPTR,A
    162            MAC_MlmeSetReq( MAC_ASSOCIATED_PAN_COORD, &value );
   \   00001B                ; Setup parameters for call to function MAC_MlmeSetReq
   \   00001B   85..82       MOV     DPL,?XSP + 0
   \   00001E   85..83       MOV     DPH,?XSP + 1
   \   000021   AA82         MOV     R2,DPL
   \   000023   AB83         MOV     R3,DPH
   \   000025   7956         MOV     R1,#0x56
   \   000027   12....       LCALL   ??MAC_MlmeSetReq?relay
   \   00002A   E9           MOV     A,R1
    163            MAC_MlmeSetReq( MAC_EXTENDED_ADDRESS, &aExtendedAddress );
   \   00002B                ; Setup parameters for call to function MAC_MlmeSetReq
   \   00002B   7A..         MOV     R2,#aExtendedAddress & 0xff
   \   00002D   7B..         MOV     R3,#(aExtendedAddress >> 8) & 0xff
   \   00002F   79E2         MOV     R1,#-0x1e
   \   000031   12....       LCALL   ??MAC_MlmeSetReq?relay
   \   000034   E9           MOV     A,R1
    164          
    165            if (ZMac_ScanBuf)
   \   000035   90....       MOV     DPTR,#ZMac_ScanBuf
   \   000038   E0           MOVX    A,@DPTR
   \   000039   F8           MOV     R0,A
   \   00003A   A3           INC     DPTR
   \   00003B   E0           MOVX    A,@DPTR
   \   00003C   F9           MOV     R1,A
   \   00003D   E8           MOV     A,R0
   \   00003E   49           ORL     A,R1
   \   00003F   6015         JZ      ??ZMacReset_0
    166            {
    167              osal_mem_free(ZMac_ScanBuf);
   \   000041                ; Setup parameters for call to function osal_mem_free
   \   000041   90....       MOV     DPTR,#ZMac_ScanBuf
   \   000044   E0           MOVX    A,@DPTR
   \   000045   FA           MOV     R2,A
   \   000046   A3           INC     DPTR
   \   000047   E0           MOVX    A,@DPTR
   \   000048   FB           MOV     R3,A
   \   000049   12....       LCALL   ??osal_mem_free?relay
    168              ZMac_ScanBuf = NULL;
   \   00004C   90....       MOV     DPTR,#ZMac_ScanBuf
   \   00004F   7400         MOV     A,#0x0
   \   000051   F0           MOVX    @DPTR,A
   \   000052   A3           INC     DPTR
   \   000053   7400         MOV     A,#0x0
   \   000055   F0           MOVX    @DPTR,A
    169            }
    170          
    171            return ( stat );
   \                     ??ZMacReset_0:
   \   000056   EE           MOV     A,R6
   \   000057   F9           MOV     R1,A
   \   000058   7401         MOV     A,#0x1
   \   00005A   12....       LCALL   ?DEALLOC_XSTACK8
   \   00005D   7F01         MOV     R7,#0x1
   \   00005F   02....       LJMP    ?BANKED_LEAVE_XDATA
    172          }
    173          
    174          
    175          /********************************************************************************************************
    176           * @fn      ZMacGetReq
    177           *
    178           * @brief   Read a MAC PIB attribute.
    179           *
    180           * @param   attr - PIB attribute to get
    181           * @param   value - pointer to the buffer to store the attribute
    182           *
    183           * @return  status
    184           ********************************************************************************************************/

   \                                 In  segment BANKED_CODE, align 1, keep-with-next
    185          uint8 ZMacGetReq( uint8 attr, uint8 *value )
   \                     ZMacGetReq:
    186          {
   \   000000   74F7         MOV     A,#-0x9
   \   000002   12....       LCALL   ?BANKED_ENTER_XDATA
   \   000005                ; Saved register size: 9
   \   000005                ; Auto size: 0
   \   000005   E9           MOV     A,R1
   \   000006   FE           MOV     R6,A
    187            if ( attr == ZMacExtAddr )
   \   000007   74E2         MOV     A,#-0x1e
   \   000009   6E           XRL     A,R6
   \   00000A   700B         JNZ     ??ZMacGetReq_0
    188            {
    189              osal_cpyExtAddr( value, &aExtendedAddress );
   \   00000C                ; Setup parameters for call to function sAddrExtCpy
   \   00000C   7C..         MOV     R4,#aExtendedAddress & 0xff
   \   00000E   7D..         MOV     R5,#(aExtendedAddress >> 8) & 0xff
   \   000010   12....       LCALL   ??sAddrExtCpy?relay
    190              return ZMacSuccess;
   \   000013   7900         MOV     R1,#0x0
   \   000015   8005         SJMP    ??ZMacGetReq_1
    191            }
    192          
    193            return (ZMacStatus_t) MAC_MlmeGetReq( attr, value );
   \                     ??ZMacGetReq_0:
   \   000017                ; Setup parameters for call to function MAC_MlmeGetReq
   \   000017   EE           MOV     A,R6
   \   000018   F9           MOV     R1,A
   \   000019   12....       LCALL   ??MAC_MlmeGetReq?relay
   \                     ??ZMacGetReq_1:
   \   00001C   7F01         MOV     R7,#0x1
   \   00001E   02....       LJMP    ?BANKED_LEAVE_XDATA
    194          }
    195          
    196          
    197          /********************************************************************************************************
    198           * @fn      ZMacSetReq
    199           *
    200           * @brief   Write a MAC PIB attribute.
    201           *
    202           * @param   attr - PIB attribute to Set
    203           * @param   value - pointer to the data
    204           *
    205           * @return  status
    206           ********************************************************************************************************/

   \                                 In  segment BANKED_CODE, align 1, keep-with-next
    207          uint8 ZMacSetReq( uint8 attr, byte *value )
   \                     ZMacSetReq:
    208          {
   \   000000   74F7         MOV     A,#-0x9
   \   000002   12....       LCALL   ?BANKED_ENTER_XDATA
   \   000005                ; Saved register size: 9
   \   000005                ; Auto size: 0
   \   000005   89..         MOV     ?V0 + 0,R1
   \   000007   EA           MOV     A,R2
   \   000008   FE           MOV     R6,A
   \   000009   EB           MOV     A,R3
   \   00000A   FF           MOV     R7,A
    209            if ( attr == ZMacExtAddr )
   \   00000B   74E2         MOV     A,#-0x1e
   \   00000D   65..         XRL     A,?V0 + 0
   \   00000F   700B         JNZ     ??ZMacSetReq_0
    210            {
    211              osal_cpyExtAddr( aExtendedAddress, value );
   \   000011                ; Setup parameters for call to function sAddrExtCpy
   \   000011   EE           MOV     A,R6
   \   000012   FC           MOV     R4,A
   \   000013   EF           MOV     A,R7
   \   000014   FD           MOV     R5,A
   \   000015   7A..         MOV     R2,#aExtendedAddress & 0xff
   \   000017   7B..         MOV     R3,#(aExtendedAddress >> 8) & 0xff
   \   000019   12....       LCALL   ??sAddrExtCpy?relay
    212            }
    213          
    214            return (ZMacStatus_t) MAC_MlmeSetReq( attr, value );
   \                     ??ZMacSetReq_0:
   \   00001C                ; Setup parameters for call to function MAC_MlmeSetReq
   \   00001C   EE           MOV     A,R6
   \   00001D   FA           MOV     R2,A
   \   00001E   EF           MOV     A,R7
   \   00001F   FB           MOV     R3,A
   \   000020   A9..         MOV     R1,?V0 + 0
   \   000022   12....       LCALL   ??MAC_MlmeSetReq?relay
   \   000025   7F01         MOV     R7,#0x1
   \   000027   02....       LJMP    ?BANKED_LEAVE_XDATA
    215          }
    216          
    217          #ifdef MAC_SECURITY
    218          /********************************************************************************************************
    219           * @fn      ZMacSecurityGetReq
    220           *
    221           * @brief   Read a MAC Security PIB attribute.
    222           *
    223           * @param   attr - PIB attribute to get
    224           * @param   value - pointer to the buffer to store the attribute
    225           *
    226           * @return  status
    227           ********************************************************************************************************/
    228          uint8 ZMacSecurityGetReq( uint8 attr, uint8 *value )
    229          {
    230            return (ZMacStatus_t) MAC_MlmeGetSecurityReq( attr, value );
    231          }
    232          
    233          
    234          /********************************************************************************************************
    235           * @fn      ZMacSecuritySetReq
    236           *
    237           * @brief   Write a MAC Security PIB attribute.
    238           *
    239           * @param   attr - PIB attribute to Set
    240           * @param   value - pointer to the data
    241           *
    242           * @return  status
    243           ********************************************************************************************************/
    244          uint8 ZMacSecuritySetReq( uint8 attr, byte *value )
    245          {
    246            return (ZMacStatus_t) MAC_MlmeSetSecurityReq( attr, value );
    247          }
    248          #endif /* MAC_SECURITY */
    249          
    250          /********************************************************************************************************
    251           * @fn      ZMacAssociateReq
    252           *
    253           * @brief   Request an association with a coordinator.
    254           *
    255           * @param   structure with info need to associate.
    256           *
    257           * @return  status
    258           ********************************************************************************************************/

   \                                 In  segment BANKED_CODE, align 1, keep-with-next
    259          uint8 ZMacAssociateReq( ZMacAssociateReq_t *pData )
   \                     ZMacAssociateReq:
    260          {
   \   000000   C082         PUSH    DPL
   \   000002   C083         PUSH    DPH
   \   000004                ; Saved register size: 2
   \   000004                ; Auto size: 0
    261            /* Right now, set security to zero */
    262            pData->Sec.SecurityLevel = false;
   \   000004   EA           MOV     A,R2
   \   000005   2416         ADD     A,#0x16
   \   000007   F582         MOV     DPL,A
   \   000009   EB           MOV     A,R3
   \   00000A   3400         ADDC    A,#0x0
   \   00000C   F583         MOV     DPH,A
   \   00000E   7400         MOV     A,#0x0
   \   000010   F0           MOVX    @DPTR,A
    263          
    264            MAC_MlmeAssociateReq ( (macMlmeAssociateReq_t *)pData);
   \   000011                ; Setup parameters for call to function MAC_MlmeAssociateReq
   \   000011   12....       LCALL   ??MAC_MlmeAssociateReq?relay
    265            return ( ZMacSuccess );
   \   000014   7900         MOV     R1,#0x0
   \   000016   D083         POP     DPH
   \   000018   D082         POP     DPL
   \   00001A   02....       LJMP    ?BRET
    266          }
    267          
    268          /********************************************************************************************************
    269           * @fn      ZMacAssociateRsp
    270           *
    271           * @brief   Request to send an association response message.
    272           *
    273           * @param   structure with associate response and info needed to send it.
    274           *
    275           * @return  MAC_SUCCESS or MAC error code
    276           ********************************************************************************************************/

   \                                 In  segment BANKED_CODE, align 1, keep-with-next
    277          uint8 ZMacAssociateRsp( ZMacAssociateRsp_t *pData )
   \                     ZMacAssociateRsp:
    278          {
   \   000000   C082         PUSH    DPL
   \   000002   C083         PUSH    DPH
   \   000004                ; Saved register size: 2
   \   000004                ; Auto size: 0
    279            /* TBD: set security to zero for now. Require Ztool change */
    280            pData->Sec.SecurityLevel = false;
   \   000004   EA           MOV     A,R2
   \   000005   2413         ADD     A,#0x13
   \   000007   F582         MOV     DPL,A
   \   000009   EB           MOV     A,R3
   \   00000A   3400         ADDC    A,#0x0
   \   00000C   F583         MOV     DPH,A
   \   00000E   7400         MOV     A,#0x0
   \   000010   F0           MOVX    @DPTR,A
    281          
    282            return ( MAC_MlmeAssociateRsp( (macMlmeAssociateRsp_t *) pData ) );
   \   000011                ; Setup parameters for call to function MAC_MlmeAssociateRsp
   \   000011   12....       LCALL   ??MAC_MlmeAssociateRsp?relay
   \   000014   D083         POP     DPH
   \   000016   D082         POP     DPL
   \   000018   02....       LJMP    ?BRET
    283          }
    284          
    285          /********************************************************************************************************
    286           * @fn      ZMacDisassociateReq
    287           *
    288           * @brief   Request to send a disassociate request message.
    289           *
    290           * @param   structure with info need send it.
    291           *
    292           * @return  status
    293           ********************************************************************************************************/

   \                                 In  segment BANKED_CODE, align 1, keep-with-next
    294          uint8 ZMacDisassociateReq( ZMacDisassociateReq_t *pData )
   \                     ZMacDisassociateReq:
    295          {
   \   000000   C082         PUSH    DPL
   \   000002   C083         PUSH    DPH
   \   000004                ; Saved register size: 2
   \   000004                ; Auto size: 0
    296            /* Right now, set security to zero */
    297            pData->Sec.SecurityLevel = false;
   \   000004   EA           MOV     A,R2
   \   000005   2415         ADD     A,#0x15
   \   000007   F582         MOV     DPL,A
   \   000009   EB           MOV     A,R3
   \   00000A   3400         ADDC    A,#0x0
   \   00000C   F583         MOV     DPH,A
   \   00000E   7400         MOV     A,#0x0
   \   000010   F0           MOVX    @DPTR,A
    298          
    299            MAC_MlmeDisassociateReq( (macMlmeDisassociateReq_t *)pData);
   \   000011                ; Setup parameters for call to function MAC_MlmeDisassociateReq
   \   000011   12....       LCALL   ??MAC_MlmeDisassociateReq?relay
    300            return ( ZMacSuccess );
   \   000014   7900         MOV     R1,#0x0
   \   000016   D083         POP     DPH
   \   000018   D082         POP     DPL
   \   00001A   02....       LJMP    ?BRET
    301          }
    302          
    303          /********************************************************************************************************
    304           * @fn      ZMacOrphanRsp
    305           *
    306           * @brief   Allows next higher layer to respond to an orphan indication message.
    307           *
    308           * @param   structure with info need send it.
    309           *
    310           * @return  status
    311           ********************************************************************************************************/

   \                                 In  segment BANKED_CODE, align 1, keep-with-next
    312          uint8 ZMacOrphanRsp( ZMacOrphanRsp_t *pData )
   \                     ZMacOrphanRsp:
    313          {
   \   000000   C082         PUSH    DPL
   \   000002   C083         PUSH    DPH
   \   000004                ; Saved register size: 2
   \   000004                ; Auto size: 0
    314            /* Right now, set security to zero */
    315            pData->Sec.SecurityLevel = false;
   \   000004   EA           MOV     A,R2
   \   000005   2413         ADD     A,#0x13
   \   000007   F582         MOV     DPL,A
   \   000009   EB           MOV     A,R3
   \   00000A   3400         ADDC    A,#0x0
   \   00000C   F583         MOV     DPH,A
   \   00000E   7400         MOV     A,#0x0
   \   000010   F0           MOVX    @DPTR,A
    316          
    317            MAC_MlmeOrphanRsp( (macMlmeOrphanRsp_t *)pData);
   \   000011                ; Setup parameters for call to function MAC_MlmeOrphanRsp
   \   000011   12....       LCALL   ??MAC_MlmeOrphanRsp?relay
    318            return ( ZMacSuccess );
   \   000014   7900         MOV     R1,#0x0
   \   000016   D083         POP     DPH
   \   000018   D082         POP     DPL
   \   00001A   02....       LJMP    ?BRET
    319          }
    320          
    321          /********************************************************************************************************
    322           * @fn      ZMacScanReq
    323           *
    324           * @brief   This function is called to perform a network scan.
    325           *
    326           * @param   param - structure with info need send it.
    327           *
    328           * @return  status
    329           ********************************************************************************************************/

   \                                 In  segment BANKED_CODE, align 1, keep-with-next
    330          uint8 ZMacScanReq( ZMacScanReq_t *pData )
   \                     ZMacScanReq:
    331          {
   \   000000   74F6         MOV     A,#-0xa
   \   000002   12....       LCALL   ?BANKED_ENTER_XDATA
   \   000005                ; Saved register size: 10
   \   000005                ; Auto size: 0
   \   000005   EA           MOV     A,R2
   \   000006   FE           MOV     R6,A
   \   000007   EB           MOV     A,R3
   \   000008   FF           MOV     R7,A
    332            _ScanChannels = pData->ScanChannels;
   \   000009   8E82         MOV     DPL,R6
   \   00000B   8F83         MOV     DPH,R7
   \   00000D   12....       LCALL   ?XLOAD_R2345
   \   000010   90....       MOV     DPTR,#_ScanChannels
   \   000013   12....       LCALL   ?XSTORE_R2345
    333          
    334            /* scan in progress */
    335            if (ZMac_ScanBuf != NULL)
   \   000016   90....       MOV     DPTR,#ZMac_ScanBuf
   \   000019   E0           MOVX    A,@DPTR
   \   00001A   F8           MOV     R0,A
   \   00001B   A3           INC     DPTR
   \   00001C   E0           MOVX    A,@DPTR
   \   00001D   F9           MOV     R1,A
   \   00001E   E8           MOV     A,R0
   \   00001F   49           ORL     A,R1
   \   000020   6004         JZ      ??ZMacScanReq_0
    336            {
    337              return MAC_SCAN_IN_PROGRESS;
   \   000022   79FC         MOV     R1,#-0x4
   \   000024   8079         SJMP    ??ZMacScanReq_1
    338            }
    339          
    340            if (pData->ScanType != ZMAC_ORPHAN_SCAN)
   \                     ??ZMacScanReq_0:
   \   000026   8E82         MOV     DPL,R6
   \   000028   8F83         MOV     DPH,R7
   \   00002A   A3           INC     DPTR
   \   00002B   A3           INC     DPTR
   \   00002C   A3           INC     DPTR
   \   00002D   A3           INC     DPTR
   \   00002E   E0           MOVX    A,@DPTR
   \   00002F   6403         XRL     A,#0x3
   \   000031   6056         JZ      ??ZMacScanReq_2
    341            {
    342              /* Allocate memory depends on the scan type */
    343              if (pData->ScanType == ZMAC_ED_SCAN)
   \   000033   8E82         MOV     DPL,R6
   \   000035   8F83         MOV     DPH,R7
   \   000037   A3           INC     DPTR
   \   000038   A3           INC     DPTR
   \   000039   A3           INC     DPTR
   \   00003A   A3           INC     DPTR
   \   00003B   E0           MOVX    A,@DPTR
   \   00003C   7066         JNZ     ??ZMacScanReq_3
    344              {
    345                if ((ZMac_ScanBuf = osal_mem_alloc(ZMAC_ED_SCAN_MAXCHANNELS)) == NULL)
   \   00003E                ; Setup parameters for call to function osal_mem_alloc
   \   00003E   7A1B         MOV     R2,#0x1b
   \   000040   7B00         MOV     R3,#0x0
   \   000042   12....       LCALL   ??osal_mem_alloc?relay
   \   000045   8A..         MOV     ?V0 + 0,R2
   \   000047   8B..         MOV     ?V0 + 1,R3
   \   000049   A8..         MOV     R0,?V0 + 0
   \   00004B   A9..         MOV     R1,?V0 + 1
   \   00004D   90....       MOV     DPTR,#ZMac_ScanBuf
   \   000050   E8           MOV     A,R0
   \   000051   F0           MOVX    @DPTR,A
   \   000052   A3           INC     DPTR
   \   000053   E9           MOV     A,R1
   \   000054   F0           MOVX    @DPTR,A
   \   000055   E8           MOV     A,R0
   \   000056   49           ORL     A,R1
   \   000057   7004         JNZ     ??ZMacScanReq_4
    346                {
    347                  return MAC_NO_RESOURCES;
   \   000059   791A         MOV     R1,#0x1a
   \   00005B   8042         SJMP    ??ZMacScanReq_1
    348                }
    349                osal_memset(ZMac_ScanBuf, 0, ZMAC_ED_SCAN_MAXCHANNELS);
   \                     ??ZMacScanReq_4:
   \   00005D                ; Setup parameters for call to function osal_memset
   \   00005D   7C1B         MOV     R4,#0x1b
   \   00005F   7D00         MOV     R5,#0x0
   \   000061   7900         MOV     R1,#0x0
   \   000063   90....       MOV     DPTR,#ZMac_ScanBuf
   \   000066   E0           MOVX    A,@DPTR
   \   000067   FA           MOV     R2,A
   \   000068   A3           INC     DPTR
   \   000069   E0           MOVX    A,@DPTR
   \   00006A   FB           MOV     R3,A
   \   00006B   12....       LCALL   ??osal_memset?relay
    350                pData->Result.pEnergyDetect = ((uint8*)ZMac_ScanBuf) + MAC_CHAN_11;
   \   00006E   90....       MOV     DPTR,#ZMac_ScanBuf
   \   000071   E0           MOVX    A,@DPTR
   \   000072   240B         ADD     A,#0xb
   \   000074   F8           MOV     R0,A
   \   000075   A3           INC     DPTR
   \   000076   E0           MOVX    A,@DPTR
   \   000077   3400         ADDC    A,#0x0
   \   000079   F9           MOV     R1,A
   \   00007A   EE           MOV     A,R6
   \   00007B   2413         ADD     A,#0x13
   \   00007D   F582         MOV     DPL,A
   \   00007F   EF           MOV     A,R7
   \   000080   3400         ADDC    A,#0x0
   \   000082   F583         MOV     DPH,A
   \   000084   E8           MOV     A,R0
   \   000085   F0           MOVX    @DPTR,A
   \   000086   A3           INC     DPTR
   \   000087   E9           MOV     A,R1
   \   000088   F0           MOVX    @DPTR,A
    351              }
    352              else if (pData->MaxResults > 0)
    353              {
    354                if ((ZMac_ScanBuf = pData->Result.pPanDescriptor =
    355                     osal_mem_alloc( sizeof( ZMacPanDesc_t ) * pData->MaxResults )) == NULL)
    356                {
    357                  return MAC_NO_RESOURCES;
    358                }
    359              }
    360            }
    361          
    362            /* Channel Page */
    363            pData->ChannelPage = 0x00;
   \                     ??ZMacScanReq_2:
   \   000089   8E82         MOV     DPL,R6
   \   00008B   8F83         MOV     DPH,R7
   \   00008D   A3           INC     DPTR
   \   00008E   A3           INC     DPTR
   \   00008F   A3           INC     DPTR
   \   000090   A3           INC     DPTR
   \   000091   A3           INC     DPTR
   \   000092   A3           INC     DPTR
   \   000093   7400         MOV     A,#0x0
   \   000095   F0           MOVX    @DPTR,A
    364          
    365            MAC_MlmeScanReq ((macMlmeScanReq_t *)pData);
   \   000096                ; Setup parameters for call to function MAC_MlmeScanReq
   \   000096   EE           MOV     A,R6
   \   000097   FA           MOV     R2,A
   \   000098   EF           MOV     A,R7
   \   000099   FB           MOV     R3,A
   \   00009A   12....       LCALL   ??MAC_MlmeScanReq?relay
    366          
    367            return ZMacSuccess;
   \   00009D   7900         MOV     R1,#0x0
   \                     ??ZMacScanReq_1:
   \   00009F   7F02         MOV     R7,#0x2
   \   0000A1   02....       LJMP    ?BANKED_LEAVE_XDATA
   \                     ??ZMacScanReq_3:
   \   0000A4   8E82         MOV     DPL,R6
   \   0000A6   8F83         MOV     DPH,R7
   \   0000A8   A3           INC     DPTR
   \   0000A9   A3           INC     DPTR
   \   0000AA   A3           INC     DPTR
   \   0000AB   A3           INC     DPTR
   \   0000AC   A3           INC     DPTR
   \   0000AD   A3           INC     DPTR
   \   0000AE   A3           INC     DPTR
   \   0000AF   E0           MOVX    A,@DPTR
   \   0000B0   C3           CLR     C
   \   0000B1   9401         SUBB    A,#0x1
   \   0000B3   40D4         JC      ??ZMacScanReq_2
   \   0000B5                ; Setup parameters for call to function osal_mem_alloc
   \   0000B5   8E82         MOV     DPL,R6
   \   0000B7   8F83         MOV     DPH,R7
   \   0000B9   A3           INC     DPTR
   \   0000BA   A3           INC     DPTR
   \   0000BB   A3           INC     DPTR
   \   0000BC   A3           INC     DPTR
   \   0000BD   A3           INC     DPTR
   \   0000BE   A3           INC     DPTR
   \   0000BF   A3           INC     DPTR
   \   0000C0   E0           MOVX    A,@DPTR
   \   0000C1   FA           MOV     R2,A
   \   0000C2   7B00         MOV     R3,#0x0
   \   0000C4   EA           MOV     A,R2
   \   0000C5   75F021       MOV     B,#0x21
   \   0000C8   A4           MUL     AB
   \   0000C9   CA           XCH     A,R2
   \   0000CA   A8F0         MOV     R0,B
   \   0000CC   75F000       MOV     B,#0x0
   \   0000CF   A4           MUL     AB
   \   0000D0   28           ADD     A,R0
   \   0000D1   F8           MOV     R0,A
   \   0000D2   75F021       MOV     B,#0x21
   \   0000D5   EB           MOV     A,R3
   \   0000D6   A4           MUL     AB
   \   0000D7   28           ADD     A,R0
   \   0000D8   FB           MOV     R3,A
   \   0000D9   12....       LCALL   ??osal_mem_alloc?relay
   \   0000DC   8A..         MOV     ?V0 + 0,R2
   \   0000DE   8B..         MOV     ?V0 + 1,R3
   \   0000E0   A8..         MOV     R0,?V0 + 0
   \   0000E2   A9..         MOV     R1,?V0 + 1
   \   0000E4   EE           MOV     A,R6
   \   0000E5   2413         ADD     A,#0x13
   \   0000E7   F582         MOV     DPL,A
   \   0000E9   EF           MOV     A,R7
   \   0000EA   3400         ADDC    A,#0x0
   \   0000EC   F583         MOV     DPH,A
   \   0000EE   E8           MOV     A,R0
   \   0000EF   F0           MOVX    @DPTR,A
   \   0000F0   A3           INC     DPTR
   \   0000F1   E9           MOV     A,R1
   \   0000F2   F0           MOVX    @DPTR,A
   \   0000F3   90....       MOV     DPTR,#ZMac_ScanBuf
   \   0000F6   E8           MOV     A,R0
   \   0000F7   F0           MOVX    @DPTR,A
   \   0000F8   A3           INC     DPTR
   \   0000F9   E9           MOV     A,R1
   \   0000FA   F0           MOVX    @DPTR,A
   \   0000FB   E8           MOV     A,R0
   \   0000FC   49           ORL     A,R1
   \   0000FD   708A         JNZ     ??ZMacScanReq_2
   \   0000FF   791A         MOV     R1,#0x1a
   \   000101   809C         SJMP    ??ZMacScanReq_1
    368          }
    369          
    370          
    371          /********************************************************************************************************
    372           * @fn      ZMacStartReq
    373           *
    374           * @brief   This function is called to tell the MAC to transmit beacons
    375           *          and become a coordinator.
    376           *
    377           * @param   structure with info need send it.
    378           *
    379           * @return  status
    380           ********************************************************************************************************/

   \                                 In  segment BANKED_CODE, align 1, keep-with-next
    381          uint8 ZMacStartReq( ZMacStartReq_t *pData )
   \                     ZMacStartReq:
    382          {
   \   000000   74F7         MOV     A,#-0x9
   \   000002   12....       LCALL   ?BANKED_ENTER_XDATA
   \   000005                ; Saved register size: 9
   \   000005                ; Auto size: 1
   \   000005   74FF         MOV     A,#-0x1
   \   000007   12....       LCALL   ?ALLOC_XSTACK8
   \   00000A   EA           MOV     A,R2
   \   00000B   FE           MOV     R6,A
   \   00000C   EB           MOV     A,R3
   \   00000D   FF           MOV     R7,A
    383            uint8 stat;
    384          
    385            // Probably want to keep the receiver on
    386            stat = true;
   \   00000E   85..82       MOV     DPL,?XSP + 0
   \   000011   85..83       MOV     DPH,?XSP + 1
   \   000014   7401         MOV     A,#0x1
   \   000016   F0           MOVX    @DPTR,A
    387            MAC_MlmeSetReq( MAC_RX_ON_WHEN_IDLE, &stat );
   \   000017                ; Setup parameters for call to function MAC_MlmeSetReq
   \   000017   85..82       MOV     DPL,?XSP + 0
   \   00001A   85..83       MOV     DPH,?XSP + 1
   \   00001D   AA82         MOV     R2,DPL
   \   00001F   AB83         MOV     R3,DPH
   \   000021   7952         MOV     R1,#0x52
   \   000023   12....       LCALL   ??MAC_MlmeSetReq?relay
   \   000026   E9           MOV     A,R1
    388          
    389            /* Right now, set security to zero */
    390            pData->RealignSec.SecurityLevel = false;
   \   000027   EE           MOV     A,R6
   \   000028   2415         ADD     A,#0x15
   \   00002A   F582         MOV     DPL,A
   \   00002C   EF           MOV     A,R7
   \   00002D   3400         ADDC    A,#0x0
   \   00002F   F583         MOV     DPH,A
   \   000031   7400         MOV     A,#0x0
   \   000033   F0           MOVX    @DPTR,A
    391            pData->BeaconSec.SecurityLevel = false;
   \   000034   EE           MOV     A,R6
   \   000035   2420         ADD     A,#0x20
   \   000037   F582         MOV     DPL,A
   \   000039   EF           MOV     A,R7
   \   00003A   3400         ADDC    A,#0x0
   \   00003C   F583         MOV     DPH,A
   \   00003E   7400         MOV     A,#0x0
   \   000040   F0           MOVX    @DPTR,A
    392          
    393          
    394            MAC_MlmeStartReq((macMlmeStartReq_t *) pData);
   \   000041                ; Setup parameters for call to function MAC_MlmeStartReq
   \   000041   EE           MOV     A,R6
   \   000042   FA           MOV     R2,A
   \   000043   EF           MOV     A,R7
   \   000044   FB           MOV     R3,A
   \   000045   12....       LCALL   ??MAC_MlmeStartReq?relay
    395          
    396            // MAC does not issue mlmeStartConfirm(), so we have to
    397            // mlmeStartConfirm( stat );  This needs to be addressed some how
    398          
    399            return ZMacSuccess;
   \   000048   7900         MOV     R1,#0x0
   \   00004A   7401         MOV     A,#0x1
   \   00004C   12....       LCALL   ?DEALLOC_XSTACK8
   \   00004F   7F01         MOV     R7,#0x1
   \   000051   02....       LJMP    ?BANKED_LEAVE_XDATA
    400          }
    401          
    402          /********************************************************************************************************
    403           * @fn      ZMacSyncReq
    404           *
    405           * @brief   This function is called to request a sync to the current
    406           *          networks beacons.
    407           *
    408           * @param   LogicalChannel -
    409           * @param   TrackBeacon - true/false
    410           *
    411           * @return  status
    412           ********************************************************************************************************/

   \                                 In  segment BANKED_CODE, align 1, keep-with-next
    413          uint8 ZMacSyncReq( ZMacSyncReq_t *pData )
   \                     ZMacSyncReq:
    414          {
   \   000000   C082         PUSH    DPL
   \   000002   C083         PUSH    DPH
   \   000004                ; Saved register size: 2
   \   000004                ; Auto size: 0
    415            MAC_MlmeSyncReq( (macMlmeSyncReq_t *)pData);
   \   000004                ; Setup parameters for call to function MAC_MlmeSyncReq
   \   000004   12....       LCALL   ??MAC_MlmeSyncReq?relay
    416            return ZMacSuccess;
   \   000007   7900         MOV     R1,#0x0
   \   000009   D083         POP     DPH
   \   00000B   D082         POP     DPL
   \   00000D   02....       LJMP    ?BRET
    417          }
    418          
    419          /********************************************************************************************************
    420           * @fn      ZMacPollReq
    421           *
    422           * @brief   This function is called to request MAC data request poll.
    423           *
    424           * @param   coordAddr -
    425           * @param   coordPanId -
    426           * @param   SecurityEnable - true or false.
    427           *
    428           * @return  status
    429           ********************************************************************************************************/

   \                                 In  segment BANKED_CODE, align 1, keep-with-next
    430          uint8 ZMacPollReq( ZMacPollReq_t *pData )
   \                     ZMacPollReq:
    431          {
   \   000000   C082         PUSH    DPL
   \   000002   C083         PUSH    DPH
   \   000004                ; Saved register size: 2
   \   000004                ; Auto size: 0
    432            /* Right now, set security to zero */
    433            pData->Sec.SecurityLevel = false;
   \   000004   EA           MOV     A,R2
   \   000005   2413         ADD     A,#0x13
   \   000007   F582         MOV     DPL,A
   \   000009   EB           MOV     A,R3
   \   00000A   3400         ADDC    A,#0x0
   \   00000C   F583         MOV     DPH,A
   \   00000E   7400         MOV     A,#0x0
   \   000010   F0           MOVX    @DPTR,A
    434          
    435            MAC_MlmePollReq ((macMlmePollReq_t *)pData);
   \   000011                ; Setup parameters for call to function MAC_MlmePollReq
   \   000011   12....       LCALL   ??MAC_MlmePollReq?relay
    436            return ( ZMacSuccess );
   \   000014   7900         MOV     R1,#0x0
   \   000016   D083         POP     DPH
   \   000018   D082         POP     DPL
   \   00001A   02....       LJMP    ?BRET
    437          }
    438          
    439          /********************************************************************************************************
    440           * @fn      ZMacDataReqSec
    441           *
    442           * @brief   Send a MAC Data Frame packet, calls the passed in function to apply non-MAC security
    443           *          on the MAC data field after the MAC buffer allocation.
    444           *
    445           * @param   pData - structure containing data and where to send it.
    446           * @param   secCB - callback function to apply security, NULL indicates no security
    447           *
    448           * @return  status
    449           ********************************************************************************************************/

   \                                 In  segment BANKED_CODE, align 1, keep-with-next
    450          uint8 ZMacDataReqSec( ZMacDataReq_t *pData, applySecCB_t secCB )
   \                     ZMacDataReqSec:
    451          {
   \   000000   74F1         MOV     A,#-0xf
   \   000002   12....       LCALL   ?BANKED_ENTER_XDATA
   \   000005                ; Saved register size: 15
   \   000005                ; Auto size: 0
   \   000005   8A..         MOV     ?V0 + 0,R2
   \   000007   8B..         MOV     ?V0 + 1,R3
   \   000009   8C..         MOV     ?V0 + 2,R4
   \   00000B   8D..         MOV     ?V0 + 3,R5
    452            macMcpsDataReq_t *pBuf;
    453          
    454            /* Allocate memory */
    455            pBuf = MAC_McpsDataAlloc( pData->msduLength, pData->Sec.SecurityLevel, pData->Sec.KeyIdMode );
   \   00000D                ; Setup parameters for call to function MAC_McpsDataAlloc
   \   00000D   E5..         MOV     A,?V0 + 0
   \   00000F   2419         ADD     A,#0x19
   \   000011   F582         MOV     DPL,A
   \   000013   E5..         MOV     A,?V0 + 1
   \   000015   3400         ADDC    A,#0x0
   \   000017   F583         MOV     DPH,A
   \   000019   E0           MOVX    A,@DPTR
   \   00001A   FB           MOV     R3,A
   \   00001B   E5..         MOV     A,?V0 + 0
   \   00001D   2418         ADD     A,#0x18
   \   00001F   F582         MOV     DPL,A
   \   000021   E5..         MOV     A,?V0 + 1
   \   000023   3400         ADDC    A,#0x0
   \   000025   F583         MOV     DPH,A
   \   000027   E0           MOVX    A,@DPTR
   \   000028   FA           MOV     R2,A
   \   000029   E5..         MOV     A,?V0 + 0
   \   00002B   241B         ADD     A,#0x1b
   \   00002D   F582         MOV     DPL,A
   \   00002F   E5..         MOV     A,?V0 + 1
   \   000031   3400         ADDC    A,#0x0
   \   000033   F583         MOV     DPH,A
   \   000035   E0           MOVX    A,@DPTR
   \   000036   F9           MOV     R1,A
   \   000037   12....       LCALL   ??MAC_McpsDataAlloc?relay
   \   00003A   8A..         MOV     ?V0 + 4,R2
   \   00003C   8B..         MOV     ?V0 + 5,R3
   \   00003E   AE..         MOV     R6,?V0 + 4
   \   000040   AF..         MOV     R7,?V0 + 5
    456          
    457            if ( pBuf )
   \   000042   EE           MOV     A,R6
   \   000043   4F           ORL     A,R7
   \   000044   7003         JNZ     $+5
   \   000046   02....       LJMP    ??ZMacDataReqSec_0 & 0xFFFF
    458            {
    459              /* Copy the addresses */
    460              osal_memcpy( &pBuf->mac, pData, sizeof (macDataReq_t) );
   \   000049                ; Setup parameters for call to function osal_memcpy
   \   000049   85....       MOV     ?V0 + 4,?V0 + 0
   \   00004C   85....       MOV     ?V0 + 5,?V0 + 1
   \   00004F   75..00       MOV     ?V0 + 6,#0x0
   \   000052   78..         MOV     R0,#?V0 + 4
   \   000054   12....       LCALL   ?PUSH_XSTACK_I_THREE
   \   000057   7C10         MOV     R4,#0x10
   \   000059   7D00         MOV     R5,#0x0
   \   00005B   EE           MOV     A,R6
   \   00005C   2422         ADD     A,#0x22
   \   00005E   FA           MOV     R2,A
   \   00005F   EF           MOV     A,R7
   \   000060   3400         ADDC    A,#0x0
   \   000062   FB           MOV     R3,A
   \   000063   12....       LCALL   ??osal_memcpy?relay
   \   000066   7403         MOV     A,#0x3
   \   000068   12....       LCALL   ?DEALLOC_XSTACK8
    461          
    462              /* Copy data */
    463              osal_memcpy( pBuf->msdu.p, pData->msdu, pData->msduLength );
   \   00006B                ; Setup parameters for call to function osal_memcpy
   \   00006B   E5..         MOV     A,?V0 + 0
   \   00006D   241C         ADD     A,#0x1c
   \   00006F   F582         MOV     DPL,A
   \   000071   E5..         MOV     A,?V0 + 1
   \   000073   3400         ADDC    A,#0x0
   \   000075   F583         MOV     DPH,A
   \   000077   E0           MOVX    A,@DPTR
   \   000078   F5..         MOV     ?V0 + 4,A
   \   00007A   A3           INC     DPTR
   \   00007B   E0           MOVX    A,@DPTR
   \   00007C   F5..         MOV     ?V0 + 5,A
   \   00007E   75..00       MOV     ?V0 + 6,#0x0
   \   000081   78..         MOV     R0,#?V0 + 4
   \   000083   12....       LCALL   ?PUSH_XSTACK_I_THREE
   \   000086   E5..         MOV     A,?V0 + 0
   \   000088   241B         ADD     A,#0x1b
   \   00008A   F582         MOV     DPL,A
   \   00008C   E5..         MOV     A,?V0 + 1
   \   00008E   3400         ADDC    A,#0x0
   \   000090   F583         MOV     DPH,A
   \   000092   E0           MOVX    A,@DPTR
   \   000093   FC           MOV     R4,A
   \   000094   7D00         MOV     R5,#0x0
   \   000096   8E82         MOV     DPL,R6
   \   000098   8F83         MOV     DPH,R7
   \   00009A   A3           INC     DPTR
   \   00009B   A3           INC     DPTR
   \   00009C   E0           MOVX    A,@DPTR
   \   00009D   FA           MOV     R2,A
   \   00009E   A3           INC     DPTR
   \   00009F   E0           MOVX    A,@DPTR
   \   0000A0   FB           MOV     R3,A
   \   0000A1   12....       LCALL   ??osal_memcpy?relay
   \   0000A4   7403         MOV     A,#0x3
   \   0000A6   12....       LCALL   ?DEALLOC_XSTACK8
    464          
    465              /* Copy Security parameters */
    466              osal_memcpy( &pBuf->sec, &pData->Sec, sizeof (macSec_t));
   \   0000A9                ; Setup parameters for call to function osal_memcpy
   \   0000A9   E5..         MOV     A,?V0 + 0
   \   0000AB   2410         ADD     A,#0x10
   \   0000AD   F5..         MOV     ?V0 + 0,A
   \   0000AF   E5..         MOV     A,?V0 + 1
   \   0000B1   3400         ADDC    A,#0x0
   \   0000B3   F5..         MOV     ?V0 + 1,A
   \   0000B5   85....       MOV     ?V0 + 4,?V0 + 0
   \   0000B8   85....       MOV     ?V0 + 5,?V0 + 1
   \   0000BB   75..00       MOV     ?V0 + 6,#0x0
   \   0000BE   78..         MOV     R0,#?V0 + 4
   \   0000C0   12....       LCALL   ?PUSH_XSTACK_I_THREE
   \   0000C3   7C0B         MOV     R4,#0xb
   \   0000C5   7D00         MOV     R5,#0x0
   \   0000C7   EE           MOV     A,R6
   \   0000C8   2417         ADD     A,#0x17
   \   0000CA   FA           MOV     R2,A
   \   0000CB   EF           MOV     A,R7
   \   0000CC   3400         ADDC    A,#0x0
   \   0000CE   FB           MOV     R3,A
   \   0000CF   12....       LCALL   ??osal_memcpy?relay
   \   0000D2   7403         MOV     A,#0x3
   \   0000D4   12....       LCALL   ?DEALLOC_XSTACK8
    467          
    468              /* Encrypt in place */
    469              if ( secCB && pBuf->msdu.len && pBuf->msdu.p )
   \   0000D7   E5..         MOV     A,?V0 + 2
   \   0000D9   45..         ORL     A,?V0 + 3
   \   0000DB   6047         JZ      ??ZMacDataReqSec_1
   \   0000DD   8E82         MOV     DPL,R6
   \   0000DF   8F83         MOV     DPH,R7
   \   0000E1   A3           INC     DPTR
   \   0000E2   A3           INC     DPTR
   \   0000E3   A3           INC     DPTR
   \   0000E4   A3           INC     DPTR
   \   0000E5   E0           MOVX    A,@DPTR
   \   0000E6   603C         JZ      ??ZMacDataReqSec_1
   \   0000E8   8E82         MOV     DPL,R6
   \   0000EA   8F83         MOV     DPH,R7
   \   0000EC   A3           INC     DPTR
   \   0000ED   A3           INC     DPTR
   \   0000EE   E0           MOVX    A,@DPTR
   \   0000EF   F8           MOV     R0,A
   \   0000F0   A3           INC     DPTR
   \   0000F1   E0           MOVX    A,@DPTR
   \   0000F2   F9           MOV     R1,A
   \   0000F3   E8           MOV     A,R0
   \   0000F4   49           ORL     A,R1
   \   0000F5   602D         JZ      ??ZMacDataReqSec_1
    470              {
    471                if ( secCB( pBuf->msdu.len, pBuf->msdu.p ) != ZSuccess )
   \   0000F7                ; Setup parameters for indirect call
   \   0000F7   8E82         MOV     DPL,R6
   \   0000F9   8F83         MOV     DPH,R7
   \   0000FB   A3           INC     DPTR
   \   0000FC   A3           INC     DPTR
   \   0000FD   E0           MOVX    A,@DPTR
   \   0000FE   FA           MOV     R2,A
   \   0000FF   A3           INC     DPTR
   \   000100   E0           MOVX    A,@DPTR
   \   000101   FB           MOV     R3,A
   \   000102   8E82         MOV     DPL,R6
   \   000104   8F83         MOV     DPH,R7
   \   000106   A3           INC     DPTR
   \   000107   A3           INC     DPTR
   \   000108   A3           INC     DPTR
   \   000109   A3           INC     DPTR
   \   00010A   E0           MOVX    A,@DPTR
   \   00010B   F9           MOV     R1,A
   \   00010C   85..82       MOV     DPL,?V0 + 2
   \   00010F   85..83       MOV     DPH,?V0 + 3
   \   000112   12....       LCALL   ?CALL_IND
   \   000115   E9           MOV     A,R1
   \   000116   600C         JZ      ??ZMacDataReqSec_1
    472                {
    473                  // Deallocate the buffer.  MAC_McpsDataAlloc() calls osal_msg_allocate() and
    474                  // returns the same pointer.
    475                  osal_msg_deallocate( (uint8 *)pBuf );
   \   000118                ; Setup parameters for call to function osal_msg_deallocate
   \   000118   EE           MOV     A,R6
   \   000119   FA           MOV     R2,A
   \   00011A   EF           MOV     A,R7
   \   00011B   FB           MOV     R3,A
   \   00011C   12....       LCALL   ??osal_msg_deallocate?relay
   \   00011F   E9           MOV     A,R1
    476          
    477                  return ( MAC_NO_RESOURCES );
   \   000120   791A         MOV     R1,#0x1a
   \   000122   800D         SJMP    ??ZMacDataReqSec_2
    478                }
    479              }
    480          
    481              /* Call Mac Data Request */
    482              MAC_McpsDataReq( pBuf );
   \                     ??ZMacDataReqSec_1:
   \   000124                ; Setup parameters for call to function MAC_McpsDataReq
   \   000124   EE           MOV     A,R6
   \   000125   FA           MOV     R2,A
   \   000126   EF           MOV     A,R7
   \   000127   FB           MOV     R3,A
   \   000128   12....       LCALL   ??MAC_McpsDataReq?relay
    483          
    484              return ( ZMacSuccess );
   \   00012B   7900         MOV     R1,#0x0
   \   00012D   8002         SJMP    ??ZMacDataReqSec_2
    485            }
    486          
    487            return ( MAC_NO_RESOURCES );
   \                     ??ZMacDataReqSec_0:
   \   00012F   791A         MOV     R1,#0x1a
   \                     ??ZMacDataReqSec_2:
   \   000131   7F07         MOV     R7,#0x7
   \   000133   02....       LJMP    ?BANKED_LEAVE_XDATA
    488          }
    489          
    490          /********************************************************************************************************
    491           * @fn      ZMacDataReq
    492           *
    493           * @brief   Send a MAC Data Frame packet.
    494           *
    495           * @param   structure containing data and where to send it.
    496           *
    497           * @return  status
    498           ********************************************************************************************************/

   \                                 In  segment BANKED_CODE, align 1, keep-with-next
    499          uint8 ZMacDataReq( ZMacDataReq_t *pData )
   \                     ZMacDataReq:
    500          {
   \   000000   C082         PUSH    DPL
   \   000002   C083         PUSH    DPH
   \   000004                ; Saved register size: 2
   \   000004                ; Auto size: 0
    501            return ZMacDataReqSec( pData, NULL );
   \   000004                ; Setup parameters for call to function ZMacDataReqSec
   \   000004   7C00         MOV     R4,#0x0
   \   000006   7D00         MOV     R5,#0x0
   \   000008   12....       LCALL   ??ZMacDataReqSec?relay
   \   00000B   D083         POP     DPH
   \   00000D   D082         POP     DPL
   \   00000F   02....       LJMP    ?BRET
    502          }
    503          
    504          /********************************************************************************************************
    505           * @fn      ZMacPurgeReq
    506           *
    507           * @brief   Purge a MAC Data Frame packet.
    508           *
    509           * @param   MSDU data handle.
    510           *
    511           * @return  status
    512           ********************************************************************************************************/

   \                                 In  segment BANKED_CODE, align 1, keep-with-next
    513          uint8 ZMacPurgeReq( byte Handle )
   \                     ZMacPurgeReq:
    514          {
   \   000000   74F7         MOV     A,#-0x9
   \   000002   12....       LCALL   ?BANKED_ENTER_XDATA
   \   000005                ; Saved register size: 9
   \   000005                ; Auto size: 0
   \   000005   E9           MOV     A,R1
   \   000006   FE           MOV     R6,A
    515            MAC_McpsPurgeReq( Handle );
   \   000007                ; Setup parameters for call to function MAC_McpsPurgeReq
   \   000007   F9           MOV     R1,A
   \   000008   12....       LCALL   ??MAC_McpsPurgeReq?relay
    516            return ZMacSuccess;
   \   00000B   7900         MOV     R1,#0x0
   \   00000D   7F01         MOV     R7,#0x1
   \   00000F   02....       LJMP    ?BANKED_LEAVE_XDATA
    517          }
    518          
    519          /********************************************************************************************************
    520           * @fn      ZMacSrcMatchEnable
    521           *
    522           * @brief   This function is call to enable AUTOPEND and source address matching.
    523           *
    524           * @param   addressType - address type that the application uses
    525           *                        SADDR_MODE_SHORT or SADDR_MODE_EXT.
    526           *          numEntries  - number of source address table entries to be used
    527           *
    528           * @return  status
    529           ********************************************************************************************************/

   \                                 In  segment BANKED_CODE, align 1, keep-with-next
    530          ZMacStatus_t ZMacSrcMatchEnable (uint8 addrType, uint8 numEntries)
   \                     ZMacSrcMatchEnable:
    531          {
   \   000000   74F7         MOV     A,#-0x9
   \   000002   12....       LCALL   ?BANKED_ENTER_XDATA
   \   000005                ; Saved register size: 9
   \   000005                ; Auto size: 0
   \   000005   E9           MOV     A,R1
   \   000006   FF           MOV     R7,A
   \   000007   EA           MOV     A,R2
   \   000008   FE           MOV     R6,A
    532            return (MAC_SrcMatchEnable(addrType, numEntries));
   \   000009                ; Setup parameters for call to function MAC_SrcMatchEnable
   \   000009   FA           MOV     R2,A
   \   00000A   EF           MOV     A,R7
   \   00000B   F9           MOV     R1,A
   \   00000C   12....       LCALL   ??MAC_SrcMatchEnable?relay
   \   00000F   7F01         MOV     R7,#0x1
   \   000011   02....       LJMP    ?BANKED_LEAVE_XDATA
    533          }
    534          
    535          /********************************************************************************************************
    536           * @fn      ZMacSrcMatchAddEntry
    537           *
    538           * @brief   This function is called to add a short or extended address to source address table.
    539           *
    540           * @param   addr - a pointer to sAddr_t which contains addrMode
    541           *                     and a union of a short 16-bit MAC address or an extended
    542           *                     64-bit MAC address to be added to the source address table.
    543           *          panID - the device PAN ID. It is only used when the addr is
    544           *                      using short address
    545           *
    546           * @return  status
    547           ********************************************************************************************************/

   \                                 In  segment BANKED_CODE, align 1, keep-with-next
    548          ZMacStatus_t ZMacSrcMatchAddEntry (zAddrType_t *addr, uint16 panID)
   \                     ZMacSrcMatchAddEntry:
    549          {
   \   000000   C082         PUSH    DPL
   \   000002   C083         PUSH    DPH
   \   000004                ; Saved register size: 2
   \   000004                ; Auto size: 0
    550            return (MAC_SrcMatchAddEntry ((sAddr_t*)addr, panID));
   \   000004                ; Setup parameters for call to function MAC_SrcMatchAddEntry
   \   000004   12....       LCALL   ??MAC_SrcMatchAddEntry?relay
   \   000007   D083         POP     DPH
   \   000009   D082         POP     DPL
   \   00000B   02....       LJMP    ?BRET
    551          }
    552          
    553          /********************************************************************************************************
    554           * @fn      ZMacSrcMatchDeleteEntry
    555           *
    556           * @brief   This function is called to delete a short or extended address from source address table.
    557           *
    558           * @param   addr - a pointer to sAddr_t which contains addrMode
    559           *                     and a union of a short 16-bit MAC address or an extended
    560           *                     64-bit MAC address to be added to the source address table.
    561           *          panID - the device PAN ID. It is only used when the addr is
    562           *                      using short address
    563           *
    564           * @return  status
    565           ********************************************************************************************************/

   \                                 In  segment BANKED_CODE, align 1, keep-with-next
    566          ZMacStatus_t ZMacSrcMatchDeleteEntry (zAddrType_t *addr, uint16 panID)
   \                     ZMacSrcMatchDeleteEntry:
    567          {
   \   000000   C082         PUSH    DPL
   \   000002   C083         PUSH    DPH
   \   000004                ; Saved register size: 2
   \   000004                ; Auto size: 0
    568            return (MAC_SrcMatchDeleteEntry ((sAddr_t*)addr, panID));
   \   000004                ; Setup parameters for call to function MAC_SrcMatchDeleteEntry
   \   000004   12....       LCALL   ??MAC_SrcMatchDeleteEntry?relay
   \   000007   D083         POP     DPH
   \   000009   D082         POP     DPL
   \   00000B   02....       LJMP    ?BRET
    569          }
    570          
    571          /********************************************************************************************************
    572           * @fn       ZMacSrcMatchAckAllPending
    573           *
    574           * @brief    Enabled/disable acknowledging all packets with pending bit set
    575           *           It is normally enabled when adding new entries to
    576           *           the source address table fails due to the table is full, or
    577           *           disabled when more entries are deleted and the table has
    578           *           empty slots.
    579           *
    580           * @param    option - true (acknowledging all packets with pending field set)
    581           *                    false (acknowledging all packets with pending field cleared)
    582           *
    583           * @return   status
    584           ********************************************************************************************************/

   \                                 In  segment BANKED_CODE, align 1, keep-with-next
    585          ZMacStatus_t ZMacSrcMatchAckAllPending (uint8 option)
   \                     ZMacSrcMatchAckAllPending:
    586          {
   \   000000   74F7         MOV     A,#-0x9
   \   000002   12....       LCALL   ?BANKED_ENTER_XDATA
   \   000005                ; Saved register size: 9
   \   000005                ; Auto size: 0
   \   000005   E9           MOV     A,R1
   \   000006   FE           MOV     R6,A
    587            MAC_SrcMatchAckAllPending (option);
   \   000007                ; Setup parameters for call to function MAC_SrcMatchAckAllPending
   \   000007   F9           MOV     R1,A
   \   000008   12....       LCALL   ??MAC_SrcMatchAckAllPending?relay
    588          
    589            return ZMacSuccess;
   \   00000B   7900         MOV     R1,#0x0
   \   00000D   7F01         MOV     R7,#0x1
   \   00000F   02....       LJMP    ?BANKED_LEAVE_XDATA
    590          }
    591          
    592          /********************************************************************************************************
    593           * @fn       ZMacSrcMatchCheckAllPending
    594           *
    595           * @brief    This function is called to check if acknowledging all packets with pending bit set is enabled.
    596           *
    597           * @param    none
    598           *
    599           * @return   status
    600           ********************************************************************************************************/

   \                                 In  segment BANKED_CODE, align 1, keep-with-next
    601          ZMacStatus_t ZMacSrcMatchCheckAllPending (void)
   \                     ZMacSrcMatchCheckAllPending:
    602          {
   \   000000   C082         PUSH    DPL
   \   000002   C083         PUSH    DPH
   \   000004                ; Saved register size: 2
   \   000004                ; Auto size: 0
    603            return (MAC_SrcMatchCheckAllPending ());
   \   000004                ; Setup parameters for call to function MAC_SrcMatchCheckAllPending
   \   000004   12....       LCALL   ??MAC_SrcMatchCheckAllPending?relay
   \   000007   D083         POP     DPH
   \   000009   D082         POP     DPL
   \   00000B   02....       LJMP    ?BRET
    604          }
    605          
    606          /********************************************************************************************************
    607           * @fn      - ZMACPwrOnReq
    608           *
    609           * @brief   - This function requests the MAC to power on the radio hardware
    610           *            and wake up.  When the power on procedure is complete the MAC
    611           *            will send a MAC_PWR_ON_CNF to the application.
    612           *
    613           * @input   - None.
    614           *
    615           * @output  - None.
    616           *
    617           * @return  - None.
    618           ********************************************************************************************************/

   \                                 In  segment BANKED_CODE, align 1, keep-with-next
    619          void ZMacPwrOnReq ( void )
   \                     ZMacPwrOnReq:
    620          {
   \   000000   C082         PUSH    DPL
   \   000002   C083         PUSH    DPH
   \   000004                ; Saved register size: 2
   \   000004                ; Auto size: 0
    621            MAC_PwrOnReq();
   \   000004                ; Setup parameters for call to function MAC_PwrOnReq
   \   000004   12....       LCALL   ??MAC_PwrOnReq?relay
    622          }
   \   000007   D083         POP     DPH
   \   000009   D082         POP     DPL
   \   00000B   02....       LJMP    ?BRET
    623          
    624          /********************************************************************************************************
    625           * @fn          MAC_PwrMode
    626           *
    627           * @brief       This function returns the current power mode of the MAC.
    628           *
    629           * input parameters
    630           *
    631           * None.
    632           *
    633           * output parameters
    634           *
    635           * None.
    636           *
    637           * @return      The current power mode of the MAC.
    638           ********************************************************************************************************/

   \                                 In  segment BANKED_CODE, align 1, keep-with-next
    639          uint8 ZMac_PwrMode(void)
   \                     ZMac_PwrMode:
    640          {
   \   000000   C082         PUSH    DPL
   \   000002   C083         PUSH    DPH
   \   000004                ; Saved register size: 2
   \   000004                ; Auto size: 0
    641            return (MAC_PwrMode());
   \   000004                ; Setup parameters for call to function MAC_PwrMode
   \   000004   12....       LCALL   ??MAC_PwrMode?relay
   \   000007   D083         POP     DPH
   \   000009   D082         POP     DPL
   \   00000B   02....       LJMP    ?BRET
    642          }
    643          
    644          /********************************************************************************************************
    645           * @fn      ZMacSetTransmitPower
    646           *
    647           * @brief   Set the transmitter power according to the level setting param.
    648           *
    649           * @param   Valid power level setting as defined in ZMAC.h.
    650           *
    651           * @return  ZMacSuccess if PHY_TRANSMIT_POWER found or ZMacUnsupportedAttribute.
    652           ********************************************************************************************************/

   \                                 In  segment BANKED_CODE, align 1, keep-with-next
    653          uint8 ZMacSetTransmitPower( ZMacTransmitPower_t level )
   \                     ZMacSetTransmitPower:
    654          {
   \   000000   C082         PUSH    DPL
   \   000002   C083         PUSH    DPH
   \   000004                ; Saved register size: 2
   \   000004                ; Auto size: 1
   \   000004   74FF         MOV     A,#-0x1
   \   000006   12....       LCALL   ?ALLOC_XSTACK8
   \   000009   E9           MOV     A,R1
   \   00000A   85..82       MOV     DPL,?XSP + 0
   \   00000D   85..83       MOV     DPH,?XSP + 1
   \   000010   F0           MOVX    @DPTR,A
    655            return MAC_MlmeSetReq( ZMacPhyTransmitPowerSigned, &level );
   \   000011                ; Setup parameters for call to function MAC_MlmeSetReq
   \   000011   85..82       MOV     DPL,?XSP + 0
   \   000014   85..83       MOV     DPH,?XSP + 1
   \   000017   AA82         MOV     R2,DPL
   \   000019   AB83         MOV     R3,DPH
   \   00001B   79E5         MOV     R1,#-0x1b
   \   00001D   12....       LCALL   ??MAC_MlmeSetReq?relay
   \   000020   7401         MOV     A,#0x1
   \   000022   12....       LCALL   ?DEALLOC_XSTACK8
   \   000025   D083         POP     DPH
   \   000027   D082         POP     DPL
   \   000029   02....       LJMP    ?BRET
    656          }
    657          
    658          /********************************************************************************************************
    659           * @fn      ZMacSendNoData
    660           *
    661           * @brief   This function sends an empty msg
    662           *
    663           * @param   DstAddr   - destination short address
    664           *          DstPANId  - destination pan id
    665           *
    666           * @return  None
    667           ********************************************************************************************************/

   \                                 In  segment BANKED_CODE, align 1, keep-with-next
    668          void ZMacSendNoData ( uint16 DstAddr, uint16 DstPANId )
   \                     ZMacSendNoData:
    669          {
   \   000000   74F4         MOV     A,#-0xc
   \   000002   12....       LCALL   ?BANKED_ENTER_XDATA
   \   000005                ; Saved register size: 12
   \   000005                ; Auto size: 0
   \   000005   8A..         MOV     ?V0 + 0,R2
   \   000007   8B..         MOV     ?V0 + 1,R3
   \   000009   EC           MOV     A,R4
   \   00000A   FE           MOV     R6,A
   \   00000B   ED           MOV     A,R5
   \   00000C   FF           MOV     R7,A
    670            macMcpsDataReq_t *pBuf;
    671          
    672            /* Allocate memory */
    673            pBuf = MAC_McpsDataAlloc(0, MAC_SEC_LEVEL_NONE, MAC_KEY_ID_MODE_NONE);
   \   00000D                ; Setup parameters for call to function MAC_McpsDataAlloc
   \   00000D   7B00         MOV     R3,#0x0
   \   00000F   7A00         MOV     R2,#0x0
   \   000011   7900         MOV     R1,#0x0
   \   000013   12....       LCALL   ??MAC_McpsDataAlloc?relay
   \   000016   8A..         MOV     ?V0 + 2,R2
   \   000018   8B..         MOV     ?V0 + 3,R3
   \   00001A   AA..         MOV     R2,?V0 + 2
   \   00001C   AB..         MOV     R3,?V0 + 3
    674          
    675            if (pBuf)
   \   00001E   EA           MOV     A,R2
   \   00001F   4B           ORL     A,R3
   \   000020   6064         JZ      ??ZMacSendNoData_0
    676            {
    677              /* Fill in src information */
    678              pBuf->mac.srcAddrMode              = SADDR_MODE_SHORT;
   \   000022   EA           MOV     A,R2
   \   000023   242D         ADD     A,#0x2d
   \   000025   F582         MOV     DPL,A
   \   000027   EB           MOV     A,R3
   \   000028   3400         ADDC    A,#0x0
   \   00002A   F583         MOV     DPH,A
   \   00002C   7402         MOV     A,#0x2
   \   00002E   F0           MOVX    @DPTR,A
    679          
    680              /* Fill in dst information */
    681              pBuf->mac.dstAddr.addr.shortAddr   = DstAddr;
   \   00002F   EA           MOV     A,R2
   \   000030   2422         ADD     A,#0x22
   \   000032   F582         MOV     DPL,A
   \   000034   EB           MOV     A,R3
   \   000035   3400         ADDC    A,#0x0
   \   000037   F583         MOV     DPH,A
   \   000039   E5..         MOV     A,?V0 + 0
   \   00003B   F0           MOVX    @DPTR,A
   \   00003C   A3           INC     DPTR
   \   00003D   E5..         MOV     A,?V0 + 1
   \   00003F   F0           MOVX    @DPTR,A
    682              pBuf->mac.dstAddr.addrMode         = SADDR_MODE_SHORT;
   \   000040   EA           MOV     A,R2
   \   000041   242A         ADD     A,#0x2a
   \   000043   F582         MOV     DPL,A
   \   000045   EB           MOV     A,R3
   \   000046   3400         ADDC    A,#0x0
   \   000048   F583         MOV     DPH,A
   \   00004A   7402         MOV     A,#0x2
   \   00004C   F0           MOVX    @DPTR,A
    683              pBuf->mac.dstPanId                 = DstPANId;
   \   00004D   EA           MOV     A,R2
   \   00004E   242B         ADD     A,#0x2b
   \   000050   F582         MOV     DPL,A
   \   000052   EB           MOV     A,R3
   \   000053   3400         ADDC    A,#0x0
   \   000055   F583         MOV     DPH,A
   \   000057   EE           MOV     A,R6
   \   000058   F0           MOVX    @DPTR,A
   \   000059   A3           INC     DPTR
   \   00005A   EF           MOV     A,R7
   \   00005B   F0           MOVX    @DPTR,A
    684          
    685              /* Misc information */
    686              pBuf->mac.msduHandle               = 0;
   \   00005C   EA           MOV     A,R2
   \   00005D   242E         ADD     A,#0x2e
   \   00005F   F582         MOV     DPL,A
   \   000061   EB           MOV     A,R3
   \   000062   3400         ADDC    A,#0x0
   \   000064   F583         MOV     DPH,A
   \   000066   7400         MOV     A,#0x0
   \   000068   F0           MOVX    @DPTR,A
    687              pBuf->mac.txOptions                = ZMAC_TXOPTION_ACK | ZMAC_TXOPTION_NO_RETRANS | ZMAC_TXOPTION_NO_CNF;
   \   000069   EA           MOV     A,R2
   \   00006A   242F         ADD     A,#0x2f
   \   00006C   F582         MOV     DPL,A
   \   00006E   EB           MOV     A,R3
   \   00006F   3400         ADDC    A,#0x0
   \   000071   F583         MOV     DPH,A
   \   000073   7431         MOV     A,#0x31
   \   000075   F0           MOVX    @DPTR,A
    688          
    689              /* Right now, set security to zero */
    690              pBuf->sec.securityLevel = false;
   \   000076   EA           MOV     A,R2
   \   000077   241F         ADD     A,#0x1f
   \   000079   F582         MOV     DPL,A
   \   00007B   EB           MOV     A,R3
   \   00007C   3400         ADDC    A,#0x0
   \   00007E   F583         MOV     DPH,A
   \   000080   7400         MOV     A,#0x0
   \   000082   F0           MOVX    @DPTR,A
    691          
    692              /* Call Mac Data Request */
    693              MAC_McpsDataReq(pBuf);
   \   000083                ; Setup parameters for call to function MAC_McpsDataReq
   \   000083   12....       LCALL   ??MAC_McpsDataReq?relay
    694            }
    695          
    696          }
   \                     ??ZMacSendNoData_0:
   \   000086   7F04         MOV     R7,#0x4
   \   000088   02....       LJMP    ?BANKED_LEAVE_XDATA
    697          
    698          /********************************************************************************************************
    699           * @fn      ZMacStateIdle
    700           *
    701           * @brief   This function returns true if the MAC state is idle.
    702           *
    703           * @param   none
    704           *
    705           * @return  TRUE if the MAC state is idle, FALSE otherwise.
    706           ********************************************************************************************************/

   \                                 In  segment BANKED_CODE, align 1, keep-with-next
    707          uint8 ZMacStateIdle( void )
   \                     ZMacStateIdle:
    708          {
   \   000000   C082         PUSH    DPL
   \   000002   C083         PUSH    DPH
   \   000004                ; Saved register size: 2
   \   000004                ; Auto size: 0
    709            return macStateIdle();
   \   000004                ; Setup parameters for call to function macStateIdle
   \   000004   12....       LCALL   ??macStateIdle?relay
   \   000007   D083         POP     DPH
   \   000009   D082         POP     DPL
   \   00000B   02....       LJMP    ?BRET
    710          }

   \                                 In  segment BANK_RELAYS, align 1
   \                     ??ZMacInit?relay:
   \   000000   12....       LCALL   ?BDISPATCH
   \   000003   ......       DC24    ZMacInit

   \                                 In  segment BANK_RELAYS, align 1
   \                     ??ZMacReset?relay:
   \   000000   12....       LCALL   ?BDISPATCH
   \   000003   ......       DC24    ZMacReset

   \                                 In  segment BANK_RELAYS, align 1
   \                     ??ZMacGetReq?relay:
   \   000000   12....       LCALL   ?BDISPATCH
   \   000003   ......       DC24    ZMacGetReq

   \                                 In  segment BANK_RELAYS, align 1
   \                     ??ZMacSetReq?relay:
   \   000000   12....       LCALL   ?BDISPATCH
   \   000003   ......       DC24    ZMacSetReq

   \                                 In  segment BANK_RELAYS, align 1
   \                     ??ZMacAssociateReq?relay:
   \   000000   12....       LCALL   ?BDISPATCH
   \   000003   ......       DC24    ZMacAssociateReq

   \                                 In  segment BANK_RELAYS, align 1
   \                     ??ZMacAssociateRsp?relay:
   \   000000   12....       LCALL   ?BDISPATCH
   \   000003   ......       DC24    ZMacAssociateRsp

   \                                 In  segment BANK_RELAYS, align 1
   \                     ??ZMacDisassociateReq?relay:
   \   000000   12....       LCALL   ?BDISPATCH
   \   000003   ......       DC24    ZMacDisassociateReq

   \                                 In  segment BANK_RELAYS, align 1
   \                     ??ZMacOrphanRsp?relay:
   \   000000   12....       LCALL   ?BDISPATCH
   \   000003   ......       DC24    ZMacOrphanRsp

   \                                 In  segment BANK_RELAYS, align 1
   \                     ??ZMacScanReq?relay:
   \   000000   12....       LCALL   ?BDISPATCH
   \   000003   ......       DC24    ZMacScanReq

   \                                 In  segment BANK_RELAYS, align 1
   \                     ??ZMacStartReq?relay:
   \   000000   12....       LCALL   ?BDISPATCH
   \   000003   ......       DC24    ZMacStartReq

   \                                 In  segment BANK_RELAYS, align 1
   \                     ??ZMacSyncReq?relay:
   \   000000   12....       LCALL   ?BDISPATCH
   \   000003   ......       DC24    ZMacSyncReq

   \                                 In  segment BANK_RELAYS, align 1
   \                     ??ZMacPollReq?relay:
   \   000000   12....       LCALL   ?BDISPATCH
   \   000003   ......       DC24    ZMacPollReq

   \                                 In  segment BANK_RELAYS, align 1
   \                     ??ZMacDataReqSec?relay:
   \   000000   12....       LCALL   ?BDISPATCH
   \   000003   ......       DC24    ZMacDataReqSec

   \                                 In  segment BANK_RELAYS, align 1
   \                     ??ZMacDataReq?relay:
   \   000000   12....       LCALL   ?BDISPATCH
   \   000003   ......       DC24    ZMacDataReq

   \                                 In  segment BANK_RELAYS, align 1
   \                     ??ZMacPurgeReq?relay:
   \   000000   12....       LCALL   ?BDISPATCH
   \   000003   ......       DC24    ZMacPurgeReq

   \                                 In  segment BANK_RELAYS, align 1
   \                     ??ZMacSrcMatchEnable?relay:
   \   000000   12....       LCALL   ?BDISPATCH
   \   000003   ......       DC24    ZMacSrcMatchEnable

   \                                 In  segment BANK_RELAYS, align 1
   \                     ??ZMacSrcMatchAddEntry?relay:
   \   000000   12....       LCALL   ?BDISPATCH
   \   000003   ......       DC24    ZMacSrcMatchAddEntry

   \                                 In  segment BANK_RELAYS, align 1
   \                     ??ZMacSrcMatchDeleteEntry?relay:
   \   000000   12....       LCALL   ?BDISPATCH
   \   000003   ......       DC24    ZMacSrcMatchDeleteEntry

   \                                 In  segment BANK_RELAYS, align 1
   \                     ??ZMacSrcMatchAckAllPending?relay:
   \   000000   12....       LCALL   ?BDISPATCH
   \   000003   ......       DC24    ZMacSrcMatchAckAllPending

   \                                 In  segment BANK_RELAYS, align 1
   \                     ??ZMacSrcMatchCheckAllPending?relay:
   \   000000   12....       LCALL   ?BDISPATCH
   \   000003   ......       DC24    ZMacSrcMatchCheckAllPending

   \                                 In  segment BANK_RELAYS, align 1
   \                     ??ZMacPwrOnReq?relay:
   \   000000   12....       LCALL   ?BDISPATCH
   \   000003   ......       DC24    ZMacPwrOnReq

   \                                 In  segment BANK_RELAYS, align 1
   \                     ??ZMac_PwrMode?relay:
   \   000000   12....       LCALL   ?BDISPATCH
   \   000003   ......       DC24    ZMac_PwrMode

   \                                 In  segment BANK_RELAYS, align 1
   \                     ??ZMacSetTransmitPower?relay:
   \   000000   12....       LCALL   ?BDISPATCH
   \   000003   ......       DC24    ZMacSetTransmitPower

   \                                 In  segment BANK_RELAYS, align 1
   \                     ??ZMacSendNoData?relay:
   \   000000   12....       LCALL   ?BDISPATCH
   \   000003   ......       DC24    ZMacSendNoData

   \                                 In  segment BANK_RELAYS, align 1
   \                     ??ZMacStateIdle?relay:
   \   000000   12....       LCALL   ?BDISPATCH
   \   000003   ......       DC24    ZMacStateIdle

   Maximum stack usage in bytes:

     Function                       ISTACK PSTACK XSTACK
     --------                       ------ ------ ------
     ZMacAssociateReq                   2      0      0
       -> MAC_MlmeAssociateReq          4      0      0
     ZMacAssociateRsp                   2      0      0
       -> MAC_MlmeAssociateRsp          4      0      0
     ZMacDataReq                        2      0      0
       -> ZMacDataReqSec                4      0      0
     ZMacDataReqSec                     0      0     18
       -> MAC_McpsDataAlloc             0      0     30
       -> osal_memcpy                   0      0     36
       -> osal_memcpy                   0      0     36
       -> osal_memcpy                   0      0     36
       -> osal_msg_deallocate           0      0     30
       -> MAC_McpsDataReq               0      0     30
     ZMacDisassociateReq                2      0      0
       -> MAC_MlmeDisassociateReq       4      0      0
     ZMacGetReq                         0      0      9
       -> sAddrExtCpy                   0      0     18
       -> MAC_MlmeGetReq                0      0     18
     ZMacInit                           0      0      9
       -> MAC_Init                      0      0     18
       -> MAC_InitDevice                0      0     18
       -> ZMacReset                     0      0     18
       -> osal_int_disable              0      0     18
     ZMacOrphanRsp                      2      0      0
       -> MAC_MlmeOrphanRsp             4      0      0
     ZMacPollReq                        2      0      0
       -> MAC_MlmePollReq               4      0      0
     ZMacPurgeReq                       0      0      9
       -> MAC_McpsPurgeReq              0      0     18
     ZMacPwrOnReq                       2      0      0
       -> MAC_PwrOnReq                  4      0      0
     ZMacReset                          0      0     19
       -> MAC_MlmeResetReq              0      0     20
       -> MAC_MlmeSetReq                0      0     20
       -> MAC_MlmeSetReq                0      0     20
       -> osal_mem_free                 0      0     20
     ZMacScanReq                        0      0     10
       -> osal_mem_alloc                0      0     20
       -> osal_memset                   0      0     20
       -> MAC_MlmeScanReq               0      0     20
       -> osal_mem_alloc                0      0     20
     ZMacSendNoData                     0      0     12
       -> MAC_McpsDataAlloc             0      0     24
       -> MAC_McpsDataReq               0      0     24
     ZMacSetReq                         0      0      9
       -> sAddrExtCpy                   0      0     18
       -> MAC_MlmeSetReq                0      0     18
     ZMacSetTransmitPower               3      0      1
       -> MAC_MlmeSetReq                4      0      2
     ZMacSrcMatchAckAllPending          0      0      9
       -> MAC_SrcMatchAckAllPending     0      0     18
     ZMacSrcMatchAddEntry               2      0      0
       -> MAC_SrcMatchAddEntry          4      0      0
     ZMacSrcMatchCheckAllPending        2      0      0
       -> MAC_SrcMatchCheckAllPending
                                        4      0      0
     ZMacSrcMatchDeleteEntry            2      0      0
       -> MAC_SrcMatchDeleteEntry       4      0      0
     ZMacSrcMatchEnable                 0      0      9
       -> MAC_SrcMatchEnable            0      0     18
     ZMacStartReq                       0      0     10
       -> MAC_MlmeSetReq                0      0     20
       -> MAC_MlmeStartReq              0      0     20
     ZMacStateIdle                      2      0      0
       -> macStateIdle                  4      0      0
     ZMacSyncReq                        2      0      0
       -> MAC_MlmeSyncReq               4      0      0
     ZMac_PwrMode                       2      0      0
       -> MAC_PwrMode                   4      0      0


   Segment part sizes:

     Function/Label                      Bytes
     --------------                      -----
     _ScanChannels                          4
     ZMac_ScanBuf                           2
     ZMacInit                              31
     ZMacReset                             98
     ZMacGetReq                            33
     ZMacSetReq                            42
     ZMacAssociateReq                      29
     ZMacAssociateRsp                      27
     ZMacDisassociateReq                   29
     ZMacOrphanRsp                         29
     ZMacScanReq                          259
     ZMacStartReq                          84
     ZMacSyncReq                           16
     ZMacPollReq                           29
     ZMacDataReqSec                       310
     ZMacDataReq                           18
     ZMacPurgeReq                          18
     ZMacSrcMatchEnable                    20
     ZMacSrcMatchAddEntry                  14
     ZMacSrcMatchDeleteEntry               14
     ZMacSrcMatchAckAllPending             18
     ZMacSrcMatchCheckAllPending           14
     ZMacPwrOnReq                          14
     ZMac_PwrMode                          14
     ZMacSetTransmitPower                  44
     ZMacSendNoData                       139
     ZMacStateIdle                         14
     ??ZMacInit?relay                       6
     ??ZMacReset?relay                      6
     ??ZMacGetReq?relay                     6
     ??ZMacSetReq?relay                     6
     ??ZMacAssociateReq?relay               6
     ??ZMacAssociateRsp?relay               6
     ??ZMacDisassociateReq?relay            6
     ??ZMacOrphanRsp?relay                  6
     ??ZMacScanReq?relay                    6
     ??ZMacStartReq?relay                   6
     ??ZMacSyncReq?relay                    6
     ??ZMacPollReq?relay                    6
     ??ZMacDataReqSec?relay                 6
     ??ZMacDataReq?relay                    6
     ??ZMacPurgeReq?relay                   6
     ??ZMacSrcMatchEnable?relay             6
     ??ZMacSrcMatchAddEntry?relay           6
     ??ZMacSrcMatchDeleteEntry?relay        6
     ??ZMacSrcMatchAckAllPending?relay      6
     ??ZMacSrcMatchCheckAllPending?relay    6
     ??ZMacPwrOnReq?relay                   6
     ??ZMac_PwrMode?relay                   6
     ??ZMacSetTransmitPower?relay           6
     ??ZMacSendNoData?relay                 6
     ??ZMacStateIdle?relay                  6

 
 1 357 bytes in segment BANKED_CODE
   150 bytes in segment BANK_RELAYS
     6 bytes in segment XDATA_Z
 
 1 507 bytes of CODE  memory
     6 bytes of XDATA memory

Errors: none
Warnings: none
